
sensor_stm32.elf:     file format elf32-littlearm

Sections:
Idx Name          Size      VMA       LMA       File off  Algn
  0 .isr_vector   0000010c  08000000  08000000  00010000  2**0
                  CONTENTS, ALLOC, LOAD, READONLY, DATA
  1 .text         00006cb8  0800010c  0800010c  0001010c  2**2
                  CONTENTS, ALLOC, LOAD, READONLY, CODE
  2 .rodata       00000378  08006dc4  08006dc4  00016dc4  2**2
                  CONTENTS, ALLOC, LOAD, READONLY, DATA
  3 .ARM.extab    00000000  0800713c  0800713c  000201e8  2**0
                  CONTENTS
  4 .ARM          00000000  0800713c  0800713c  000201e8  2**0
                  CONTENTS
  5 .preinit_array 00000000  0800713c  0800713c  000201e8  2**0
                  CONTENTS, ALLOC, LOAD, DATA
  6 .init_array   00000008  0800713c  0800713c  0001713c  2**2
                  CONTENTS, ALLOC, LOAD, DATA
  7 .fini_array   00000008  08007144  08007144  00017144  2**2
                  CONTENTS, ALLOC, LOAD, DATA
  8 .data         000001e8  20000000  0800714c  00020000  2**2
                  CONTENTS, ALLOC, LOAD, DATA
  9 .bss          000013e0  200001e8  08007334  000201e8  2**2
                  ALLOC
 10 ._user_heap_stack 00000600  200015c8  08007334  000215c8  2**0
                  ALLOC
 11 .ARM.attributes 00000029  00000000  00000000  000201e8  2**0
                  CONTENTS, READONLY
 12 .comment      00000050  00000000  00000000  00020211  2**0
                  CONTENTS, READONLY
 13 .debug_frame  00000d98  00000000  00000000  00020264  2**2
                  CONTENTS, READONLY, DEBUGGING, OCTETS

Disassembly of section .text:

0800010c <__do_global_dtors_aux>:
 800010c:	b510      	push	{r4, lr}
 800010e:	4c05      	ldr	r4, [pc, #20]	; (8000124 <__do_global_dtors_aux+0x18>)
 8000110:	7823      	ldrb	r3, [r4, #0]
 8000112:	b933      	cbnz	r3, 8000122 <__do_global_dtors_aux+0x16>
 8000114:	4b04      	ldr	r3, [pc, #16]	; (8000128 <__do_global_dtors_aux+0x1c>)
 8000116:	b113      	cbz	r3, 800011e <__do_global_dtors_aux+0x12>
 8000118:	4804      	ldr	r0, [pc, #16]	; (800012c <__do_global_dtors_aux+0x20>)
 800011a:	f3af 8000 	nop.w
 800011e:	2301      	movs	r3, #1
 8000120:	7023      	strb	r3, [r4, #0]
 8000122:	bd10      	pop	{r4, pc}
 8000124:	200001e8 	.word	0x200001e8
 8000128:	00000000 	.word	0x00000000
 800012c:	08006dac 	.word	0x08006dac

08000130 <frame_dummy>:
 8000130:	b508      	push	{r3, lr}
 8000132:	4b03      	ldr	r3, [pc, #12]	; (8000140 <frame_dummy+0x10>)
 8000134:	b11b      	cbz	r3, 800013e <frame_dummy+0xe>
 8000136:	4903      	ldr	r1, [pc, #12]	; (8000144 <frame_dummy+0x14>)
 8000138:	4803      	ldr	r0, [pc, #12]	; (8000148 <frame_dummy+0x18>)
 800013a:	f3af 8000 	nop.w
 800013e:	bd08      	pop	{r3, pc}
 8000140:	00000000 	.word	0x00000000
 8000144:	200001ec 	.word	0x200001ec
 8000148:	08006dac 	.word	0x08006dac

0800014c <strlen>:
 800014c:	4603      	mov	r3, r0
 800014e:	f813 2b01 	ldrb.w	r2, [r3], #1
 8000152:	2a00      	cmp	r2, #0
 8000154:	d1fb      	bne.n	800014e <strlen+0x2>
 8000156:	1a18      	subs	r0, r3, r0
 8000158:	3801      	subs	r0, #1
 800015a:	4770      	bx	lr

0800015c <_ZZN22CommandLineInterpreterC4EtENUlvE_4_FUNEv>:
 800015c:	4770      	bx	lr

0800015e <_ZNSt12_Vector_baseIN3CLI7CommandESaIS1_EE11_M_allocateEj.isra.0>:
 800015e:	b508      	push	{r3, lr}
 8000160:	b148      	cbz	r0, 8000176 <_ZNSt12_Vector_baseIN3CLI7CommandESaIS1_EE11_M_allocateEj.isra.0+0x18>
 8000162:	f1b0 6f80 	cmp.w	r0, #67108864	; 0x4000000
 8000166:	d301      	bcc.n	800016c <_ZNSt12_Vector_baseIN3CLI7CommandESaIS1_EE11_M_allocateEj.isra.0+0xe>
 8000168:	f005 fbcf 	bl	800590a <_ZSt17__throw_bad_allocv>
 800016c:	0140      	lsls	r0, r0, #5
 800016e:	e8bd 4008 	ldmia.w	sp!, {r3, lr}
 8000172:	f005 bbb9 	b.w	80058e8 <_Znwj>
 8000176:	bd08      	pop	{r3, pc}

08000178 <_ZNSt7__cxx1112basic_stringIcSt11char_traitsIcESaIcEE9_M_createERjj.isra.0>:
 8000178:	b508      	push	{r3, lr}
 800017a:	6803      	ldr	r3, [r0, #0]
 800017c:	2b00      	cmp	r3, #0
 800017e:	da02      	bge.n	8000186 <_ZNSt7__cxx1112basic_stringIcSt11char_traitsIcESaIcEE9_M_createERjj.isra.0+0xe>
 8000180:	480c      	ldr	r0, [pc, #48]	; (80001b4 <_ZNSt7__cxx1112basic_stringIcSt11char_traitsIcESaIcEE9_M_createERjj.isra.0+0x3c>)
 8000182:	f005 fbc8 	bl	8005916 <_ZSt20__throw_length_errorPKc>
 8000186:	428b      	cmp	r3, r1
 8000188:	d90a      	bls.n	80001a0 <_ZNSt7__cxx1112basic_stringIcSt11char_traitsIcESaIcEE9_M_createERjj.isra.0+0x28>
 800018a:	ebb3 0f41 	cmp.w	r3, r1, lsl #1
 800018e:	ea4f 0241 	mov.w	r2, r1, lsl #1
 8000192:	d205      	bcs.n	80001a0 <_ZNSt7__cxx1112basic_stringIcSt11char_traitsIcESaIcEE9_M_createERjj.isra.0+0x28>
 8000194:	2a00      	cmp	r2, #0
 8000196:	bfb6      	itet	lt
 8000198:	f06f 4300 	mvnlt.w	r3, #2147483648	; 0x80000000
 800019c:	6002      	strge	r2, [r0, #0]
 800019e:	6003      	strlt	r3, [r0, #0]
 80001a0:	6800      	ldr	r0, [r0, #0]
 80001a2:	3001      	adds	r0, #1
 80001a4:	d501      	bpl.n	80001aa <_ZNSt7__cxx1112basic_stringIcSt11char_traitsIcESaIcEE9_M_createERjj.isra.0+0x32>
 80001a6:	f005 fbb0 	bl	800590a <_ZSt17__throw_bad_allocv>
 80001aa:	e8bd 4008 	ldmia.w	sp!, {r3, lr}
 80001ae:	f005 bb9b 	b.w	80058e8 <_Znwj>
 80001b2:	bf00      	nop
 80001b4:	08006dc4 	.word	0x08006dc4

080001b8 <_ZNSt12_Vector_baseIN3CLI7CommandESaIS1_EE13_M_deallocateEPS1_j.isra.0>:
 80001b8:	b110      	cbz	r0, 80001c0 <_ZNSt12_Vector_baseIN3CLI7CommandESaIS1_EE13_M_deallocateEPS1_j.isra.0+0x8>
 80001ba:	0149      	lsls	r1, r1, #5
 80001bc:	f005 bb92 	b.w	80058e4 <_ZdlPvj>
 80001c0:	4770      	bx	lr

080001c2 <_ZNSt7__cxx1112basic_stringIcSt11char_traitsIcESaIcEEC1EOS4_>:
 80001c2:	460b      	mov	r3, r1
 80001c4:	f100 0208 	add.w	r2, r0, #8
 80001c8:	6002      	str	r2, [r0, #0]
 80001ca:	b570      	push	{r4, r5, r6, lr}
 80001cc:	f853 4b08 	ldr.w	r4, [r3], #8
 80001d0:	42a3      	cmp	r3, r4
 80001d2:	d10f      	bne.n	80001f4 <_ZNSt7__cxx1112basic_stringIcSt11char_traitsIcESaIcEEC1EOS4_+0x32>
 80001d4:	461c      	mov	r4, r3
 80001d6:	f101 0518 	add.w	r5, r1, #24
 80001da:	f854 6b04 	ldr.w	r6, [r4], #4
 80001de:	42ac      	cmp	r4, r5
 80001e0:	f842 6b04 	str.w	r6, [r2], #4
 80001e4:	d1f9      	bne.n	80001da <_ZNSt7__cxx1112basic_stringIcSt11char_traitsIcESaIcEEC1EOS4_+0x18>
 80001e6:	600b      	str	r3, [r1, #0]
 80001e8:	2300      	movs	r3, #0
 80001ea:	684a      	ldr	r2, [r1, #4]
 80001ec:	720b      	strb	r3, [r1, #8]
 80001ee:	6042      	str	r2, [r0, #4]
 80001f0:	604b      	str	r3, [r1, #4]
 80001f2:	bd70      	pop	{r4, r5, r6, pc}
 80001f4:	688a      	ldr	r2, [r1, #8]
 80001f6:	6004      	str	r4, [r0, #0]
 80001f8:	6082      	str	r2, [r0, #8]
 80001fa:	e7f4      	b.n	80001e6 <_ZNSt7__cxx1112basic_stringIcSt11char_traitsIcESaIcEEC1EOS4_+0x24>

080001fc <_ZSteqIcEN9__gnu_cxx11__enable_ifIXsrSt9__is_charIT_E7__valueEbE6__typeERKNSt7__cxx1112basic_stringIS3_St11char_traitsIS3_ESaIS3_EEESE_>:
 80001fc:	b508      	push	{r3, lr}
 80001fe:	6842      	ldr	r2, [r0, #4]
 8000200:	684b      	ldr	r3, [r1, #4]
 8000202:	429a      	cmp	r2, r3
 8000204:	d108      	bne.n	8000218 <_ZSteqIcEN9__gnu_cxx11__enable_ifIXsrSt9__is_charIT_E7__valueEbE6__typeERKNSt7__cxx1112basic_stringIS3_St11char_traitsIS3_ESaIS3_EEESE_+0x1c>
 8000206:	b14a      	cbz	r2, 800021c <_ZSteqIcEN9__gnu_cxx11__enable_ifIXsrSt9__is_charIT_E7__valueEbE6__typeERKNSt7__cxx1112basic_stringIS3_St11char_traitsIS3_ESaIS3_EEESE_+0x20>
 8000208:	6809      	ldr	r1, [r1, #0]
 800020a:	6800      	ldr	r0, [r0, #0]
 800020c:	f005 fc02 	bl	8005a14 <memcmp>
 8000210:	fab0 f080 	clz	r0, r0
 8000214:	0940      	lsrs	r0, r0, #5
 8000216:	bd08      	pop	{r3, pc}
 8000218:	2000      	movs	r0, #0
 800021a:	e7fc      	b.n	8000216 <_ZSteqIcEN9__gnu_cxx11__enable_ifIXsrSt9__is_charIT_E7__valueEbE6__typeERKNSt7__cxx1112basic_stringIS3_St11char_traitsIS3_ESaIS3_EEESE_+0x1a>
 800021c:	2001      	movs	r0, #1
 800021e:	e7fa      	b.n	8000216 <_ZSteqIcEN9__gnu_cxx11__enable_ifIXsrSt9__is_charIT_E7__valueEbE6__typeERKNSt7__cxx1112basic_stringIS3_St11char_traitsIS3_ESaIS3_EEESE_+0x1a>

08000220 <_ZNSt7__cxx1112basic_stringIcSt11char_traitsIcESaIcEE10_M_disposeEv>:
 8000220:	4602      	mov	r2, r0
 8000222:	4603      	mov	r3, r0
 8000224:	f852 0b08 	ldr.w	r0, [r2], #8
 8000228:	4290      	cmp	r0, r2
 800022a:	d003      	beq.n	8000234 <_ZNSt7__cxx1112basic_stringIcSt11char_traitsIcESaIcEE10_M_disposeEv+0x14>
 800022c:	6899      	ldr	r1, [r3, #8]
 800022e:	3101      	adds	r1, #1
 8000230:	f005 bb58 	b.w	80058e4 <_ZdlPvj>
 8000234:	4770      	bx	lr
	...

08000238 <_ZN22CommandLineInterpreterD1Ev>:
 8000238:	b570      	push	{r4, r5, r6, lr}
 800023a:	e9d0 560b 	ldrd	r5, r6, [r0, #44]	; 0x2c
 800023e:	4604      	mov	r4, r0
 8000240:	4b11      	ldr	r3, [pc, #68]	; (8000288 <_ZN22CommandLineInterpreterD1Ev+0x50>)
 8000242:	6003      	str	r3, [r0, #0]
 8000244:	42ae      	cmp	r6, r5
 8000246:	d004      	beq.n	8000252 <_ZN22CommandLineInterpreterD1Ev+0x1a>
 8000248:	4628      	mov	r0, r5
 800024a:	f7ff ffe9 	bl	8000220 <_ZNSt7__cxx1112basic_stringIcSt11char_traitsIcESaIcEE10_M_disposeEv>
 800024e:	3520      	adds	r5, #32
 8000250:	e7f8      	b.n	8000244 <_ZN22CommandLineInterpreterD1Ev+0xc>
 8000252:	6ae0      	ldr	r0, [r4, #44]	; 0x2c
 8000254:	6b61      	ldr	r1, [r4, #52]	; 0x34
 8000256:	1a09      	subs	r1, r1, r0
 8000258:	1149      	asrs	r1, r1, #5
 800025a:	f7ff ffad 	bl	80001b8 <_ZNSt12_Vector_baseIN3CLI7CommandESaIS1_EE13_M_deallocateEPS1_j.isra.0>
 800025e:	f104 0014 	add.w	r0, r4, #20
 8000262:	f7ff ffdd 	bl	8000220 <_ZNSt7__cxx1112basic_stringIcSt11char_traitsIcESaIcEE10_M_disposeEv>
 8000266:	e9d4 5601 	ldrd	r5, r6, [r4, #4]
 800026a:	42ae      	cmp	r6, r5
 800026c:	d004      	beq.n	8000278 <_ZN22CommandLineInterpreterD1Ev+0x40>
 800026e:	4628      	mov	r0, r5
 8000270:	f7ff ffd6 	bl	8000220 <_ZNSt7__cxx1112basic_stringIcSt11char_traitsIcESaIcEE10_M_disposeEv>
 8000274:	3518      	adds	r5, #24
 8000276:	e7f8      	b.n	800026a <_ZN22CommandLineInterpreterD1Ev+0x32>
 8000278:	6860      	ldr	r0, [r4, #4]
 800027a:	b118      	cbz	r0, 8000284 <_ZN22CommandLineInterpreterD1Ev+0x4c>
 800027c:	68e1      	ldr	r1, [r4, #12]
 800027e:	1a09      	subs	r1, r1, r0
 8000280:	f005 fb30 	bl	80058e4 <_ZdlPvj>
 8000284:	4620      	mov	r0, r4
 8000286:	bd70      	pop	{r4, r5, r6, pc}
 8000288:	08006e30 	.word	0x08006e30

0800028c <_ZN22CommandLineInterpreterD0Ev>:
 800028c:	b510      	push	{r4, lr}
 800028e:	4604      	mov	r4, r0
 8000290:	f7ff ffd2 	bl	8000238 <_ZN22CommandLineInterpreterD1Ev>
 8000294:	4620      	mov	r0, r4
 8000296:	2138      	movs	r1, #56	; 0x38
 8000298:	f005 fb24 	bl	80058e4 <_ZdlPvj>
 800029c:	4620      	mov	r0, r4
 800029e:	bd10      	pop	{r4, pc}

080002a0 <_ZSt14__relocate_a_1IPN3CLI7CommandES2_SaIS1_EET0_T_S5_S4_RT1_.isra.0>:
 80002a0:	b570      	push	{r4, r5, r6, lr}
 80002a2:	4604      	mov	r4, r0
 80002a4:	460e      	mov	r6, r1
 80002a6:	4615      	mov	r5, r2
 80002a8:	42b4      	cmp	r4, r6
 80002aa:	d00e      	beq.n	80002ca <_ZSt14__relocate_a_1IPN3CLI7CommandES2_SaIS1_EET0_T_S5_S4_RT1_.isra.0+0x2a>
 80002ac:	4621      	mov	r1, r4
 80002ae:	4628      	mov	r0, r5
 80002b0:	f7ff ff87 	bl	80001c2 <_ZNSt7__cxx1112basic_stringIcSt11char_traitsIcESaIcEEC1EOS4_>
 80002b4:	7e23      	ldrb	r3, [r4, #24]
 80002b6:	4620      	mov	r0, r4
 80002b8:	762b      	strb	r3, [r5, #24]
 80002ba:	69e3      	ldr	r3, [r4, #28]
 80002bc:	3520      	adds	r5, #32
 80002be:	f845 3c04 	str.w	r3, [r5, #-4]
 80002c2:	f7ff ffad 	bl	8000220 <_ZNSt7__cxx1112basic_stringIcSt11char_traitsIcESaIcEE10_M_disposeEv>
 80002c6:	3420      	adds	r4, #32
 80002c8:	e7ee      	b.n	80002a8 <_ZSt14__relocate_a_1IPN3CLI7CommandES2_SaIS1_EET0_T_S5_S4_RT1_.isra.0+0x8>
 80002ca:	4628      	mov	r0, r5
 80002cc:	bd70      	pop	{r4, r5, r6, pc}

080002ce <_ZNKSt6vectorIN3CLI7CommandESaIS1_EE12_M_check_lenEjPKc>:
 80002ce:	b538      	push	{r3, r4, r5, lr}
 80002d0:	4603      	mov	r3, r0
 80002d2:	cb28      	ldmia	r3, {r3, r5}
 80002d4:	1aed      	subs	r5, r5, r3
 80002d6:	f06f 437c 	mvn.w	r3, #4227858432	; 0xfc000000
 80002da:	116c      	asrs	r4, r5, #5
 80002dc:	eba3 1565 	sub.w	r5, r3, r5, asr #5
 80002e0:	428d      	cmp	r5, r1
 80002e2:	4610      	mov	r0, r2
 80002e4:	d201      	bcs.n	80002ea <_ZNKSt6vectorIN3CLI7CommandESaIS1_EE12_M_check_lenEjPKc+0x1c>
 80002e6:	f005 fb16 	bl	8005916 <_ZSt20__throw_length_errorPKc>
 80002ea:	42a1      	cmp	r1, r4
 80002ec:	bf38      	it	cc
 80002ee:	4621      	movcc	r1, r4
 80002f0:	1860      	adds	r0, r4, r1
 80002f2:	d203      	bcs.n	80002fc <_ZNKSt6vectorIN3CLI7CommandESaIS1_EE12_M_check_lenEjPKc+0x2e>
 80002f4:	4298      	cmp	r0, r3
 80002f6:	bf28      	it	cs
 80002f8:	4618      	movcs	r0, r3
 80002fa:	bd38      	pop	{r3, r4, r5, pc}
 80002fc:	4618      	mov	r0, r3
 80002fe:	e7fc      	b.n	80002fa <_ZNKSt6vectorIN3CLI7CommandESaIS1_EE12_M_check_lenEjPKc+0x2c>

08000300 <_ZNSt7__cxx1112basic_stringIcSt11char_traitsIcESaIcEE7_S_copyEPcPKcj>:
 8000300:	2a01      	cmp	r2, #1
 8000302:	b430      	push	{r4, r5}
 8000304:	d103      	bne.n	800030e <_ZNSt7__cxx1112basic_stringIcSt11char_traitsIcESaIcEE7_S_copyEPcPKcj+0xe>
 8000306:	780b      	ldrb	r3, [r1, #0]
 8000308:	7003      	strb	r3, [r0, #0]
 800030a:	bc30      	pop	{r4, r5}
 800030c:	4770      	bx	lr
 800030e:	2a00      	cmp	r2, #0
 8000310:	d0fb      	beq.n	800030a <_ZNSt7__cxx1112basic_stringIcSt11char_traitsIcESaIcEE7_S_copyEPcPKcj+0xa>
 8000312:	bc30      	pop	{r4, r5}
 8000314:	f005 bb8e 	b.w	8005a34 <memcpy>

08000318 <_ZNSt7__cxx1112basic_stringIcSt11char_traitsIcESaIcEE12_M_constructIPKcEEvT_S8_St20forward_iterator_tag.isra.0>:
 8000318:	b573      	push	{r0, r1, r4, r5, r6, lr}
 800031a:	4605      	mov	r5, r0
 800031c:	460e      	mov	r6, r1
 800031e:	b919      	cbnz	r1, 8000328 <_ZNSt7__cxx1112basic_stringIcSt11char_traitsIcESaIcEE12_M_constructIPKcEEvT_S8_St20forward_iterator_tag.isra.0+0x10>
 8000320:	b112      	cbz	r2, 8000328 <_ZNSt7__cxx1112basic_stringIcSt11char_traitsIcESaIcEE12_M_constructIPKcEEvT_S8_St20forward_iterator_tag.isra.0+0x10>
 8000322:	480d      	ldr	r0, [pc, #52]	; (8000358 <_ZNSt7__cxx1112basic_stringIcSt11char_traitsIcESaIcEE12_M_constructIPKcEEvT_S8_St20forward_iterator_tag.isra.0+0x40>)
 8000324:	f005 faf4 	bl	8005910 <_ZSt19__throw_logic_errorPKc>
 8000328:	1b94      	subs	r4, r2, r6
 800032a:	2c0f      	cmp	r4, #15
 800032c:	9401      	str	r4, [sp, #4]
 800032e:	d906      	bls.n	800033e <_ZNSt7__cxx1112basic_stringIcSt11char_traitsIcESaIcEE12_M_constructIPKcEEvT_S8_St20forward_iterator_tag.isra.0+0x26>
 8000330:	2100      	movs	r1, #0
 8000332:	a801      	add	r0, sp, #4
 8000334:	f7ff ff20 	bl	8000178 <_ZNSt7__cxx1112basic_stringIcSt11char_traitsIcESaIcEE9_M_createERjj.isra.0>
 8000338:	9b01      	ldr	r3, [sp, #4]
 800033a:	6028      	str	r0, [r5, #0]
 800033c:	60ab      	str	r3, [r5, #8]
 800033e:	4622      	mov	r2, r4
 8000340:	4631      	mov	r1, r6
 8000342:	6828      	ldr	r0, [r5, #0]
 8000344:	f7ff ffdc 	bl	8000300 <_ZNSt7__cxx1112basic_stringIcSt11char_traitsIcESaIcEE7_S_copyEPcPKcj>
 8000348:	2100      	movs	r1, #0
 800034a:	9b01      	ldr	r3, [sp, #4]
 800034c:	682a      	ldr	r2, [r5, #0]
 800034e:	606b      	str	r3, [r5, #4]
 8000350:	54d1      	strb	r1, [r2, r3]
 8000352:	b002      	add	sp, #8
 8000354:	bd70      	pop	{r4, r5, r6, pc}
 8000356:	bf00      	nop
 8000358:	08006ddc 	.word	0x08006ddc

0800035c <_ZNSt7__cxx1112basic_stringIcSt11char_traitsIcESaIcEEC1ISt17basic_string_viewIcS2_EvEERKT_RKS3_>:
 800035c:	b510      	push	{r4, lr}
 800035e:	e9d1 2100 	ldrd	r2, r1, [r1]
 8000362:	4604      	mov	r4, r0
 8000364:	f100 0308 	add.w	r3, r0, #8
 8000368:	6003      	str	r3, [r0, #0]
 800036a:	440a      	add	r2, r1
 800036c:	f7ff ffd4 	bl	8000318 <_ZNSt7__cxx1112basic_stringIcSt11char_traitsIcESaIcEE12_M_constructIPKcEEvT_S8_St20forward_iterator_tag.isra.0>
 8000370:	4620      	mov	r0, r4
 8000372:	bd10      	pop	{r4, pc}

08000374 <_ZN22CommandLineInterpreterC1Et>:
 8000374:	e92d 41ff 	stmdb	sp!, {r0, r1, r2, r3, r4, r5, r6, r7, r8, lr}
 8000378:	2500      	movs	r5, #0
 800037a:	4604      	mov	r4, r0
 800037c:	4b1f      	ldr	r3, [pc, #124]	; (80003fc <_ZN22CommandLineInterpreterC1Et+0x88>)
 800037e:	4a20      	ldr	r2, [pc, #128]	; (8000400 <_ZN22CommandLineInterpreterC1Et+0x8c>)
 8000380:	6003      	str	r3, [r0, #0]
 8000382:	f100 031c 	add.w	r3, r0, #28
 8000386:	6143      	str	r3, [r0, #20]
 8000388:	60c5      	str	r5, [r0, #12]
 800038a:	8201      	strh	r1, [r0, #16]
 800038c:	e9c0 5501 	strd	r5, r5, [r0, #4]
 8000390:	4611      	mov	r1, r2
 8000392:	3014      	adds	r0, #20
 8000394:	f7ff ffc0 	bl	8000318 <_ZNSt7__cxx1112basic_stringIcSt11char_traitsIcESaIcEE12_M_constructIPKcEEvT_S8_St20forward_iterator_tag.isra.0>
 8000398:	2101      	movs	r1, #1
 800039a:	4a1a      	ldr	r2, [pc, #104]	; (8000404 <_ZN22CommandLineInterpreterC1Et+0x90>)
 800039c:	e9c4 550b 	strd	r5, r5, [r4, #44]	; 0x2c
 80003a0:	6365      	str	r5, [r4, #52]	; 0x34
 80003a2:	f104 002c 	add.w	r0, r4, #44	; 0x2c
 80003a6:	f7ff ff92 	bl	80002ce <_ZNKSt6vectorIN3CLI7CommandESaIS1_EE12_M_check_lenEjPKc>
 80003aa:	4607      	mov	r7, r0
 80003ac:	f7ff fed7 	bl	800015e <_ZNSt12_Vector_baseIN3CLI7CommandESaIS1_EE11_M_allocateEj.isra.0>
 80003b0:	2304      	movs	r3, #4
 80003b2:	4606      	mov	r6, r0
 80003b4:	9302      	str	r3, [sp, #8]
 80003b6:	4b14      	ldr	r3, [pc, #80]	; (8000408 <_ZN22CommandLineInterpreterC1Et+0x94>)
 80003b8:	aa01      	add	r2, sp, #4
 80003ba:	a902      	add	r1, sp, #8
 80003bc:	9303      	str	r3, [sp, #12]
 80003be:	f7ff ffcd 	bl	800035c <_ZNSt7__cxx1112basic_stringIcSt11char_traitsIcESaIcEEC1ISt17basic_string_viewIcS2_EvEERKT_RKS3_>
 80003c2:	4b12      	ldr	r3, [pc, #72]	; (800040c <_ZN22CommandLineInterpreterC1Et+0x98>)
 80003c4:	4632      	mov	r2, r6
 80003c6:	61f3      	str	r3, [r6, #28]
 80003c8:	4629      	mov	r1, r5
 80003ca:	7635      	strb	r5, [r6, #24]
 80003cc:	4628      	mov	r0, r5
 80003ce:	f7ff ff67 	bl	80002a0 <_ZSt14__relocate_a_1IPN3CLI7CommandES2_SaIS1_EET0_T_S5_S4_RT1_.isra.0>
 80003d2:	4629      	mov	r1, r5
 80003d4:	f100 0220 	add.w	r2, r0, #32
 80003d8:	4628      	mov	r0, r5
 80003da:	f7ff ff61 	bl	80002a0 <_ZSt14__relocate_a_1IPN3CLI7CommandES2_SaIS1_EET0_T_S5_S4_RT1_.isra.0>
 80003de:	6b61      	ldr	r1, [r4, #52]	; 0x34
 80003e0:	4680      	mov	r8, r0
 80003e2:	1149      	asrs	r1, r1, #5
 80003e4:	4628      	mov	r0, r5
 80003e6:	f7ff fee7 	bl	80001b8 <_ZNSt12_Vector_baseIN3CLI7CommandESaIS1_EE13_M_deallocateEPS1_j.isra.0>
 80003ea:	4620      	mov	r0, r4
 80003ec:	e9c4 680b 	strd	r6, r8, [r4, #44]	; 0x2c
 80003f0:	eb06 1647 	add.w	r6, r6, r7, lsl #5
 80003f4:	6366      	str	r6, [r4, #52]	; 0x34
 80003f6:	b004      	add	sp, #16
 80003f8:	e8bd 81f0 	ldmia.w	sp!, {r4, r5, r6, r7, r8, pc}
 80003fc:	08006e30 	.word	0x08006e30
 8000400:	08006ee4 	.word	0x08006ee4
 8000404:	08006e06 	.word	0x08006e06
 8000408:	08006e20 	.word	0x08006e20
 800040c:	0800015d 	.word	0x0800015d

08000410 <_ZNSt7__cxx1112basic_stringIcSt11char_traitsIcESaIcEE9_M_mutateEjjPKcj>:
 8000410:	e92d 47f3 	stmdb	sp!, {r0, r1, r4, r5, r6, r7, r8, r9, sl, lr}
 8000414:	9e0a      	ldr	r6, [sp, #40]	; 0x28
 8000416:	461f      	mov	r7, r3
 8000418:	6843      	ldr	r3, [r0, #4]
 800041a:	eb01 0802 	add.w	r8, r1, r2
 800041e:	1ab2      	subs	r2, r6, r2
 8000420:	441a      	add	r2, r3
 8000422:	eba3 0908 	sub.w	r9, r3, r8
 8000426:	4603      	mov	r3, r0
 8000428:	9201      	str	r2, [sp, #4]
 800042a:	f853 2b08 	ldr.w	r2, [r3], #8
 800042e:	460d      	mov	r5, r1
 8000430:	429a      	cmp	r2, r3
 8000432:	bf18      	it	ne
 8000434:	6881      	ldrne	r1, [r0, #8]
 8000436:	4604      	mov	r4, r0
 8000438:	bf08      	it	eq
 800043a:	210f      	moveq	r1, #15
 800043c:	a801      	add	r0, sp, #4
 800043e:	f7ff fe9b 	bl	8000178 <_ZNSt7__cxx1112basic_stringIcSt11char_traitsIcESaIcEE9_M_createERjj.isra.0>
 8000442:	4682      	mov	sl, r0
 8000444:	b11d      	cbz	r5, 800044e <_ZNSt7__cxx1112basic_stringIcSt11char_traitsIcESaIcEE9_M_mutateEjjPKcj+0x3e>
 8000446:	462a      	mov	r2, r5
 8000448:	6821      	ldr	r1, [r4, #0]
 800044a:	f7ff ff59 	bl	8000300 <_ZNSt7__cxx1112basic_stringIcSt11char_traitsIcESaIcEE7_S_copyEPcPKcj>
 800044e:	b137      	cbz	r7, 800045e <_ZNSt7__cxx1112basic_stringIcSt11char_traitsIcESaIcEE9_M_mutateEjjPKcj+0x4e>
 8000450:	b12e      	cbz	r6, 800045e <_ZNSt7__cxx1112basic_stringIcSt11char_traitsIcESaIcEE9_M_mutateEjjPKcj+0x4e>
 8000452:	4632      	mov	r2, r6
 8000454:	4639      	mov	r1, r7
 8000456:	eb0a 0005 	add.w	r0, sl, r5
 800045a:	f7ff ff51 	bl	8000300 <_ZNSt7__cxx1112basic_stringIcSt11char_traitsIcESaIcEE7_S_copyEPcPKcj>
 800045e:	f1b9 0f00 	cmp.w	r9, #0
 8000462:	d007      	beq.n	8000474 <_ZNSt7__cxx1112basic_stringIcSt11char_traitsIcESaIcEE9_M_mutateEjjPKcj+0x64>
 8000464:	6821      	ldr	r1, [r4, #0]
 8000466:	4435      	add	r5, r6
 8000468:	464a      	mov	r2, r9
 800046a:	4441      	add	r1, r8
 800046c:	eb0a 0005 	add.w	r0, sl, r5
 8000470:	f7ff ff46 	bl	8000300 <_ZNSt7__cxx1112basic_stringIcSt11char_traitsIcESaIcEE7_S_copyEPcPKcj>
 8000474:	4620      	mov	r0, r4
 8000476:	f7ff fed3 	bl	8000220 <_ZNSt7__cxx1112basic_stringIcSt11char_traitsIcESaIcEE10_M_disposeEv>
 800047a:	9b01      	ldr	r3, [sp, #4]
 800047c:	f8c4 a000 	str.w	sl, [r4]
 8000480:	60a3      	str	r3, [r4, #8]
 8000482:	b002      	add	sp, #8
 8000484:	e8bd 87f0 	ldmia.w	sp!, {r4, r5, r6, r7, r8, r9, sl, pc}

08000488 <_ZNSt7__cxx1112basic_stringIcSt11char_traitsIcESaIcEE9push_backEc>:
 8000488:	4603      	mov	r3, r0
 800048a:	b5f7      	push	{r0, r1, r2, r4, r5, r6, r7, lr}
 800048c:	f853 2b08 	ldr.w	r2, [r3], #8
 8000490:	6846      	ldr	r6, [r0, #4]
 8000492:	429a      	cmp	r2, r3
 8000494:	bf0c      	ite	eq
 8000496:	230f      	moveq	r3, #15
 8000498:	6883      	ldrne	r3, [r0, #8]
 800049a:	1c75      	adds	r5, r6, #1
 800049c:	429d      	cmp	r5, r3
 800049e:	4604      	mov	r4, r0
 80004a0:	460f      	mov	r7, r1
 80004a2:	d906      	bls.n	80004b2 <_ZNSt7__cxx1112basic_stringIcSt11char_traitsIcESaIcEE9push_backEc+0x2a>
 80004a4:	2301      	movs	r3, #1
 80004a6:	9300      	str	r3, [sp, #0]
 80004a8:	2300      	movs	r3, #0
 80004aa:	4631      	mov	r1, r6
 80004ac:	461a      	mov	r2, r3
 80004ae:	f7ff ffaf 	bl	8000410 <_ZNSt7__cxx1112basic_stringIcSt11char_traitsIcESaIcEE9_M_mutateEjjPKcj>
 80004b2:	2200      	movs	r2, #0
 80004b4:	6823      	ldr	r3, [r4, #0]
 80004b6:	559f      	strb	r7, [r3, r6]
 80004b8:	6823      	ldr	r3, [r4, #0]
 80004ba:	6065      	str	r5, [r4, #4]
 80004bc:	555a      	strb	r2, [r3, r5]
 80004be:	b003      	add	sp, #12
 80004c0:	bdf0      	pop	{r4, r5, r6, r7, pc}
	...

080004c4 <_ZNSt7__cxx1112basic_stringIcSt11char_traitsIcESaIcEEC1ERKS4_>:
 80004c4:	f100 0308 	add.w	r3, r0, #8
 80004c8:	b573      	push	{r0, r1, r4, r5, r6, lr}
 80004ca:	6003      	str	r3, [r0, #0]
 80004cc:	4604      	mov	r4, r0
 80004ce:	e9d1 6500 	ldrd	r6, r5, [r1]
 80004d2:	b91e      	cbnz	r6, 80004dc <_ZNSt7__cxx1112basic_stringIcSt11char_traitsIcESaIcEEC1ERKS4_+0x18>
 80004d4:	b115      	cbz	r5, 80004dc <_ZNSt7__cxx1112basic_stringIcSt11char_traitsIcESaIcEEC1ERKS4_+0x18>
 80004d6:	480d      	ldr	r0, [pc, #52]	; (800050c <_ZNSt7__cxx1112basic_stringIcSt11char_traitsIcESaIcEEC1ERKS4_+0x48>)
 80004d8:	f005 fa1a 	bl	8005910 <_ZSt19__throw_logic_errorPKc>
 80004dc:	2d0f      	cmp	r5, #15
 80004de:	9501      	str	r5, [sp, #4]
 80004e0:	d906      	bls.n	80004f0 <_ZNSt7__cxx1112basic_stringIcSt11char_traitsIcESaIcEEC1ERKS4_+0x2c>
 80004e2:	2100      	movs	r1, #0
 80004e4:	a801      	add	r0, sp, #4
 80004e6:	f7ff fe47 	bl	8000178 <_ZNSt7__cxx1112basic_stringIcSt11char_traitsIcESaIcEE9_M_createERjj.isra.0>
 80004ea:	9b01      	ldr	r3, [sp, #4]
 80004ec:	6020      	str	r0, [r4, #0]
 80004ee:	60a3      	str	r3, [r4, #8]
 80004f0:	462a      	mov	r2, r5
 80004f2:	4631      	mov	r1, r6
 80004f4:	6820      	ldr	r0, [r4, #0]
 80004f6:	f7ff ff03 	bl	8000300 <_ZNSt7__cxx1112basic_stringIcSt11char_traitsIcESaIcEE7_S_copyEPcPKcj>
 80004fa:	2100      	movs	r1, #0
 80004fc:	4620      	mov	r0, r4
 80004fe:	9b01      	ldr	r3, [sp, #4]
 8000500:	6822      	ldr	r2, [r4, #0]
 8000502:	6063      	str	r3, [r4, #4]
 8000504:	54d1      	strb	r1, [r2, r3]
 8000506:	b002      	add	sp, #8
 8000508:	bd70      	pop	{r4, r5, r6, pc}
 800050a:	bf00      	nop
 800050c:	08006ddc 	.word	0x08006ddc

08000510 <_ZN3CLI7CommandC1ERKS0_>:
 8000510:	b538      	push	{r3, r4, r5, lr}
 8000512:	460d      	mov	r5, r1
 8000514:	4604      	mov	r4, r0
 8000516:	f7ff ffd5 	bl	80004c4 <_ZNSt7__cxx1112basic_stringIcSt11char_traitsIcESaIcEEC1ERKS4_>
 800051a:	7e2b      	ldrb	r3, [r5, #24]
 800051c:	4620      	mov	r0, r4
 800051e:	7623      	strb	r3, [r4, #24]
 8000520:	69eb      	ldr	r3, [r5, #28]
 8000522:	61e3      	str	r3, [r4, #28]
 8000524:	bd38      	pop	{r3, r4, r5, pc}
	...

08000528 <_ZN22CommandLineInterpreter12add_commandsERSt6vectorIN3CLI7CommandESaIS2_EE>:
 8000528:	e92d 4ff0 	stmdb	sp!, {r4, r5, r6, r7, r8, r9, sl, fp, lr}
 800052c:	4604      	mov	r4, r0
 800052e:	684b      	ldr	r3, [r1, #4]
 8000530:	b093      	sub	sp, #76	; 0x4c
 8000532:	680f      	ldr	r7, [r1, #0]
 8000534:	f8df a0b8 	ldr.w	sl, [pc, #184]	; 80005f0 <_ZN22CommandLineInterpreter12add_commandsERSt6vectorIN3CLI7CommandESaIS2_EE+0xc8>
 8000538:	9301      	str	r3, [sp, #4]
 800053a:	9b01      	ldr	r3, [sp, #4]
 800053c:	429f      	cmp	r7, r3
 800053e:	d054      	beq.n	80005ea <_ZN22CommandLineInterpreter12add_commandsERSt6vectorIN3CLI7CommandESaIS2_EE+0xc2>
 8000540:	4639      	mov	r1, r7
 8000542:	a802      	add	r0, sp, #8
 8000544:	f7ff ffe4 	bl	8000510 <_ZN3CLI7CommandC1ERKS0_>
 8000548:	e9d4 560b 	ldrd	r5, r6, [r4, #44]	; 0x2c
 800054c:	42b5      	cmp	r5, r6
 800054e:	d015      	beq.n	800057c <_ZN22CommandLineInterpreter12add_commandsERSt6vectorIN3CLI7CommandESaIS2_EE+0x54>
 8000550:	4629      	mov	r1, r5
 8000552:	a80a      	add	r0, sp, #40	; 0x28
 8000554:	f7ff ffdc 	bl	8000510 <_ZN3CLI7CommandC1ERKS0_>
 8000558:	a90a      	add	r1, sp, #40	; 0x28
 800055a:	a802      	add	r0, sp, #8
 800055c:	f7ff fe4e 	bl	80001fc <_ZSteqIcEN9__gnu_cxx11__enable_ifIXsrSt9__is_charIT_E7__valueEbE6__typeERKNSt7__cxx1112basic_stringIS3_St11char_traitsIS3_ESaIS3_EEESE_>
 8000560:	3520      	adds	r5, #32
 8000562:	b138      	cbz	r0, 8000574 <_ZN22CommandLineInterpreter12add_commandsERSt6vectorIN3CLI7CommandESaIS2_EE+0x4c>
 8000564:	a80a      	add	r0, sp, #40	; 0x28
 8000566:	f7ff fe5b 	bl	8000220 <_ZNSt7__cxx1112basic_stringIcSt11char_traitsIcESaIcEE10_M_disposeEv>
 800056a:	a802      	add	r0, sp, #8
 800056c:	f7ff fe58 	bl	8000220 <_ZNSt7__cxx1112basic_stringIcSt11char_traitsIcESaIcEE10_M_disposeEv>
 8000570:	3720      	adds	r7, #32
 8000572:	e7e2      	b.n	800053a <_ZN22CommandLineInterpreter12add_commandsERSt6vectorIN3CLI7CommandESaIS2_EE+0x12>
 8000574:	a80a      	add	r0, sp, #40	; 0x28
 8000576:	f7ff fe53 	bl	8000220 <_ZNSt7__cxx1112basic_stringIcSt11char_traitsIcESaIcEE10_M_disposeEv>
 800057a:	e7e7      	b.n	800054c <_ZN22CommandLineInterpreter12add_commandsERSt6vectorIN3CLI7CommandESaIS2_EE+0x24>
 800057c:	e9d4 630c 	ldrd	r6, r3, [r4, #48]	; 0x30
 8000580:	429e      	cmp	r6, r3
 8000582:	d007      	beq.n	8000594 <_ZN22CommandLineInterpreter12add_commandsERSt6vectorIN3CLI7CommandESaIS2_EE+0x6c>
 8000584:	4630      	mov	r0, r6
 8000586:	a902      	add	r1, sp, #8
 8000588:	f7ff ffc2 	bl	8000510 <_ZN3CLI7CommandC1ERKS0_>
 800058c:	6b23      	ldr	r3, [r4, #48]	; 0x30
 800058e:	3320      	adds	r3, #32
 8000590:	6323      	str	r3, [r4, #48]	; 0x30
 8000592:	e7ea      	b.n	800056a <_ZN22CommandLineInterpreter12add_commandsERSt6vectorIN3CLI7CommandESaIS2_EE+0x42>
 8000594:	4652      	mov	r2, sl
 8000596:	2101      	movs	r1, #1
 8000598:	f104 002c 	add.w	r0, r4, #44	; 0x2c
 800059c:	f7ff fe97 	bl	80002ce <_ZNKSt6vectorIN3CLI7CommandESaIS1_EE12_M_check_lenEjPKc>
 80005a0:	f8d4 802c 	ldr.w	r8, [r4, #44]	; 0x2c
 80005a4:	4683      	mov	fp, r0
 80005a6:	f7ff fdda 	bl	800015e <_ZNSt12_Vector_baseIN3CLI7CommandESaIS1_EE11_M_allocateEj.isra.0>
 80005aa:	4605      	mov	r5, r0
 80005ac:	eba6 0908 	sub.w	r9, r6, r8
 80005b0:	a902      	add	r1, sp, #8
 80005b2:	4448      	add	r0, r9
 80005b4:	f7ff ffac 	bl	8000510 <_ZN3CLI7CommandC1ERKS0_>
 80005b8:	462a      	mov	r2, r5
 80005ba:	4631      	mov	r1, r6
 80005bc:	4640      	mov	r0, r8
 80005be:	f7ff fe6f 	bl	80002a0 <_ZSt14__relocate_a_1IPN3CLI7CommandES2_SaIS1_EET0_T_S5_S4_RT1_.isra.0>
 80005c2:	4631      	mov	r1, r6
 80005c4:	f100 0220 	add.w	r2, r0, #32
 80005c8:	4630      	mov	r0, r6
 80005ca:	f7ff fe69 	bl	80002a0 <_ZSt14__relocate_a_1IPN3CLI7CommandES2_SaIS1_EET0_T_S5_S4_RT1_.isra.0>
 80005ce:	4606      	mov	r6, r0
 80005d0:	6b61      	ldr	r1, [r4, #52]	; 0x34
 80005d2:	4640      	mov	r0, r8
 80005d4:	eba1 0108 	sub.w	r1, r1, r8
 80005d8:	1149      	asrs	r1, r1, #5
 80005da:	f7ff fded 	bl	80001b8 <_ZNSt12_Vector_baseIN3CLI7CommandESaIS1_EE13_M_deallocateEPS1_j.isra.0>
 80005de:	e9c4 560b 	strd	r5, r6, [r4, #44]	; 0x2c
 80005e2:	eb05 154b 	add.w	r5, r5, fp, lsl #5
 80005e6:	6365      	str	r5, [r4, #52]	; 0x34
 80005e8:	e7bf      	b.n	800056a <_ZN22CommandLineInterpreter12add_commandsERSt6vectorIN3CLI7CommandESaIS2_EE+0x42>
 80005ea:	b013      	add	sp, #76	; 0x4c
 80005ec:	e8bd 8ff0 	ldmia.w	sp!, {r4, r5, r6, r7, r8, r9, sl, fp, pc}
 80005f0:	08006e06 	.word	0x08006e06

080005f4 <_ZNSt6vectorINSt7__cxx1112basic_stringIcSt11char_traitsIcESaIcEEESaIS5_EE17_M_realloc_insertIJRKS5_EEEvN9__gnu_cxx17__normal_iteratorIPS5_S7_EEDpOT_>:
 80005f4:	e92d 4ff8 	stmdb	sp!, {r3, r4, r5, r6, r7, r8, r9, sl, fp, lr}
 80005f8:	e9d0 8a00 	ldrd	r8, sl, [r0]
 80005fc:	4c2a      	ldr	r4, [pc, #168]	; (80006a8 <_ZNSt6vectorINSt7__cxx1112basic_stringIcSt11char_traitsIcESaIcEEESaIS5_EE17_M_realloc_insertIJRKS5_EEEvN9__gnu_cxx17__normal_iteratorIPS5_S7_EEDpOT_+0xb4>)
 80005fe:	ebaa 0308 	sub.w	r3, sl, r8
 8000602:	10db      	asrs	r3, r3, #3
 8000604:	4363      	muls	r3, r4
 8000606:	4615      	mov	r5, r2
 8000608:	4a28      	ldr	r2, [pc, #160]	; (80006ac <_ZNSt6vectorINSt7__cxx1112basic_stringIcSt11char_traitsIcESaIcEEESaIS5_EE17_M_realloc_insertIJRKS5_EEEvN9__gnu_cxx17__normal_iteratorIPS5_S7_EEDpOT_+0xb8>)
 800060a:	4607      	mov	r7, r0
 800060c:	4293      	cmp	r3, r2
 800060e:	4689      	mov	r9, r1
 8000610:	d102      	bne.n	8000618 <_ZNSt6vectorINSt7__cxx1112basic_stringIcSt11char_traitsIcESaIcEEESaIS5_EE17_M_realloc_insertIJRKS5_EEEvN9__gnu_cxx17__normal_iteratorIPS5_S7_EEDpOT_+0x24>
 8000612:	4827      	ldr	r0, [pc, #156]	; (80006b0 <_ZNSt6vectorINSt7__cxx1112basic_stringIcSt11char_traitsIcESaIcEEESaIS5_EE17_M_realloc_insertIJRKS5_EEEvN9__gnu_cxx17__normal_iteratorIPS5_S7_EEDpOT_+0xbc>)
 8000614:	f005 f97f 	bl	8005916 <_ZSt20__throw_length_errorPKc>
 8000618:	2b01      	cmp	r3, #1
 800061a:	461c      	mov	r4, r3
 800061c:	bf38      	it	cc
 800061e:	2401      	movcc	r4, #1
 8000620:	18e4      	adds	r4, r4, r3
 8000622:	eba1 0b08 	sub.w	fp, r1, r8
 8000626:	d21c      	bcs.n	8000662 <_ZNSt6vectorINSt7__cxx1112basic_stringIcSt11char_traitsIcESaIcEEESaIS5_EE17_M_realloc_insertIJRKS5_EEEvN9__gnu_cxx17__normal_iteratorIPS5_S7_EEDpOT_+0x6e>
 8000628:	b1ec      	cbz	r4, 8000666 <_ZNSt6vectorINSt7__cxx1112basic_stringIcSt11char_traitsIcESaIcEEESaIS5_EE17_M_realloc_insertIJRKS5_EEEvN9__gnu_cxx17__normal_iteratorIPS5_S7_EEDpOT_+0x72>
 800062a:	4294      	cmp	r4, r2
 800062c:	bf28      	it	cs
 800062e:	4614      	movcs	r4, r2
 8000630:	2018      	movs	r0, #24
 8000632:	4360      	muls	r0, r4
 8000634:	f005 f958 	bl	80058e8 <_Znwj>
 8000638:	4606      	mov	r6, r0
 800063a:	4629      	mov	r1, r5
 800063c:	eb06 000b 	add.w	r0, r6, fp
 8000640:	f7ff ff40 	bl	80004c4 <_ZNSt7__cxx1112basic_stringIcSt11char_traitsIcESaIcEEC1ERKS4_>
 8000644:	4645      	mov	r5, r8
 8000646:	4630      	mov	r0, r6
 8000648:	45a9      	cmp	r9, r5
 800064a:	f100 0b18 	add.w	fp, r0, #24
 800064e:	d00c      	beq.n	800066a <_ZNSt6vectorINSt7__cxx1112basic_stringIcSt11char_traitsIcESaIcEEESaIS5_EE17_M_realloc_insertIJRKS5_EEEvN9__gnu_cxx17__normal_iteratorIPS5_S7_EEDpOT_+0x76>
 8000650:	4629      	mov	r1, r5
 8000652:	f7ff fdb6 	bl	80001c2 <_ZNSt7__cxx1112basic_stringIcSt11char_traitsIcESaIcEEC1EOS4_>
 8000656:	4628      	mov	r0, r5
 8000658:	f7ff fde2 	bl	8000220 <_ZNSt7__cxx1112basic_stringIcSt11char_traitsIcESaIcEE10_M_disposeEv>
 800065c:	3518      	adds	r5, #24
 800065e:	4658      	mov	r0, fp
 8000660:	e7f2      	b.n	8000648 <_ZNSt6vectorINSt7__cxx1112basic_stringIcSt11char_traitsIcESaIcEEESaIS5_EE17_M_realloc_insertIJRKS5_EEEvN9__gnu_cxx17__normal_iteratorIPS5_S7_EEDpOT_+0x54>
 8000662:	4614      	mov	r4, r2
 8000664:	e7e4      	b.n	8000630 <_ZNSt6vectorINSt7__cxx1112basic_stringIcSt11char_traitsIcESaIcEEESaIS5_EE17_M_realloc_insertIJRKS5_EEEvN9__gnu_cxx17__normal_iteratorIPS5_S7_EEDpOT_+0x3c>
 8000666:	4626      	mov	r6, r4
 8000668:	e7e7      	b.n	800063a <_ZNSt6vectorINSt7__cxx1112basic_stringIcSt11char_traitsIcESaIcEEESaIS5_EE17_M_realloc_insertIJRKS5_EEEvN9__gnu_cxx17__normal_iteratorIPS5_S7_EEDpOT_+0x46>
 800066a:	4555      	cmp	r5, sl
 800066c:	d00a      	beq.n	8000684 <_ZNSt6vectorINSt7__cxx1112basic_stringIcSt11char_traitsIcESaIcEEESaIS5_EE17_M_realloc_insertIJRKS5_EEEvN9__gnu_cxx17__normal_iteratorIPS5_S7_EEDpOT_+0x90>
 800066e:	4629      	mov	r1, r5
 8000670:	4658      	mov	r0, fp
 8000672:	f7ff fda6 	bl	80001c2 <_ZNSt7__cxx1112basic_stringIcSt11char_traitsIcESaIcEEC1EOS4_>
 8000676:	4628      	mov	r0, r5
 8000678:	f7ff fdd2 	bl	8000220 <_ZNSt7__cxx1112basic_stringIcSt11char_traitsIcESaIcEE10_M_disposeEv>
 800067c:	3518      	adds	r5, #24
 800067e:	f10b 0b18 	add.w	fp, fp, #24
 8000682:	e7f2      	b.n	800066a <_ZNSt6vectorINSt7__cxx1112basic_stringIcSt11char_traitsIcESaIcEEESaIS5_EE17_M_realloc_insertIJRKS5_EEEvN9__gnu_cxx17__normal_iteratorIPS5_S7_EEDpOT_+0x76>
 8000684:	f1b8 0f00 	cmp.w	r8, #0
 8000688:	d005      	beq.n	8000696 <_ZNSt6vectorINSt7__cxx1112basic_stringIcSt11char_traitsIcESaIcEEESaIS5_EE17_M_realloc_insertIJRKS5_EEEvN9__gnu_cxx17__normal_iteratorIPS5_S7_EEDpOT_+0xa2>
 800068a:	68b9      	ldr	r1, [r7, #8]
 800068c:	4640      	mov	r0, r8
 800068e:	eba1 0108 	sub.w	r1, r1, r8
 8000692:	f005 f927 	bl	80058e4 <_ZdlPvj>
 8000696:	2018      	movs	r0, #24
 8000698:	fb00 6404 	mla	r4, r0, r4, r6
 800069c:	e9c7 6b00 	strd	r6, fp, [r7]
 80006a0:	60bc      	str	r4, [r7, #8]
 80006a2:	e8bd 8ff8 	ldmia.w	sp!, {r3, r4, r5, r6, r7, r8, r9, sl, fp, pc}
 80006a6:	bf00      	nop
 80006a8:	aaaaaaab 	.word	0xaaaaaaab
 80006ac:	05555555 	.word	0x05555555
 80006b0:	08006e06 	.word	0x08006e06

080006b4 <_ZNSt6vectorINSt7__cxx1112basic_stringIcSt11char_traitsIcESaIcEEESaIS5_EE9push_backERKS5_>:
 80006b4:	b538      	push	{r3, r4, r5, lr}
 80006b6:	e9d0 3501 	ldrd	r3, r5, [r0, #4]
 80006ba:	42ab      	cmp	r3, r5
 80006bc:	4604      	mov	r4, r0
 80006be:	460a      	mov	r2, r1
 80006c0:	d006      	beq.n	80006d0 <_ZNSt6vectorINSt7__cxx1112basic_stringIcSt11char_traitsIcESaIcEEESaIS5_EE9push_backERKS5_+0x1c>
 80006c2:	4618      	mov	r0, r3
 80006c4:	f7ff fefe 	bl	80004c4 <_ZNSt7__cxx1112basic_stringIcSt11char_traitsIcESaIcEEC1ERKS4_>
 80006c8:	6863      	ldr	r3, [r4, #4]
 80006ca:	3318      	adds	r3, #24
 80006cc:	6063      	str	r3, [r4, #4]
 80006ce:	bd38      	pop	{r3, r4, r5, pc}
 80006d0:	4619      	mov	r1, r3
 80006d2:	f7ff ff8f 	bl	80005f4 <_ZNSt6vectorINSt7__cxx1112basic_stringIcSt11char_traitsIcESaIcEEESaIS5_EE17_M_realloc_insertIJRKS5_EEEvN9__gnu_cxx17__normal_iteratorIPS5_S7_EEDpOT_>
 80006d6:	e7fa      	b.n	80006ce <_ZNSt6vectorINSt7__cxx1112basic_stringIcSt11char_traitsIcESaIcEEESaIS5_EE9push_backERKS5_+0x1a>

080006d8 <_ZN22CommandLineInterpreter13parse_commandEv>:
 80006d8:	e92d 41f0 	stmdb	sp!, {r4, r5, r6, r7, r8, lr}
 80006dc:	e9d0 6801 	ldrd	r6, r8, [r0, #4]
 80006e0:	4546      	cmp	r6, r8
 80006e2:	4604      	mov	r4, r0
 80006e4:	b08e      	sub	sp, #56	; 0x38
 80006e6:	f100 0704 	add.w	r7, r0, #4
 80006ea:	d007      	beq.n	80006fc <_ZN22CommandLineInterpreter13parse_commandEv+0x24>
 80006ec:	4635      	mov	r5, r6
 80006ee:	4628      	mov	r0, r5
 80006f0:	3518      	adds	r5, #24
 80006f2:	f7ff fd95 	bl	8000220 <_ZNSt7__cxx1112basic_stringIcSt11char_traitsIcESaIcEE10_M_disposeEv>
 80006f6:	45a8      	cmp	r8, r5
 80006f8:	d1f9      	bne.n	80006ee <_ZN22CommandLineInterpreter13parse_commandEv+0x16>
 80006fa:	60a6      	str	r6, [r4, #8]
 80006fc:	f04f 0800 	mov.w	r8, #0
 8000700:	e9d4 3105 	ldrd	r3, r1, [r4, #20]
 8000704:	4645      	mov	r5, r8
 8000706:	428d      	cmp	r5, r1
 8000708:	f108 0801 	add.w	r8, r8, #1
 800070c:	d202      	bcs.n	8000714 <_ZN22CommandLineInterpreter13parse_commandEv+0x3c>
 800070e:	5d5a      	ldrb	r2, [r3, r5]
 8000710:	2a20      	cmp	r2, #32
 8000712:	d1f7      	bne.n	8000704 <_ZN22CommandLineInterpreter13parse_commandEv+0x2c>
 8000714:	428d      	cmp	r5, r1
 8000716:	bf28      	it	cs
 8000718:	460d      	movcs	r5, r1
 800071a:	2200      	movs	r2, #0
 800071c:	a804      	add	r0, sp, #16
 800071e:	2d0f      	cmp	r5, #15
 8000720:	9002      	str	r0, [sp, #8]
 8000722:	9203      	str	r2, [sp, #12]
 8000724:	f88d 2010 	strb.w	r2, [sp, #16]
 8000728:	d81f      	bhi.n	800076a <_ZN22CommandLineInterpreter13parse_commandEv+0x92>
 800072a:	b11d      	cbz	r5, 8000734 <_ZN22CommandLineInterpreter13parse_commandEv+0x5c>
 800072c:	462a      	mov	r2, r5
 800072e:	4619      	mov	r1, r3
 8000730:	f7ff fde6 	bl	8000300 <_ZNSt7__cxx1112basic_stringIcSt11char_traitsIcESaIcEE7_S_copyEPcPKcj>
 8000734:	2600      	movs	r6, #0
 8000736:	9b02      	ldr	r3, [sp, #8]
 8000738:	9503      	str	r5, [sp, #12]
 800073a:	555e      	strb	r6, [r3, r5]
 800073c:	ab0a      	add	r3, sp, #40	; 0x28
 800073e:	e9cd 3608 	strd	r3, r6, [sp, #32]
 8000742:	f88d 6028 	strb.w	r6, [sp, #40]	; 0x28
 8000746:	69a3      	ldr	r3, [r4, #24]
 8000748:	4598      	cmp	r8, r3
 800074a:	d218      	bcs.n	800077e <_ZN22CommandLineInterpreter13parse_commandEv+0xa6>
 800074c:	6963      	ldr	r3, [r4, #20]
 800074e:	f813 1008 	ldrb.w	r1, [r3, r8]
 8000752:	2920      	cmp	r1, #32
 8000754:	d10f      	bne.n	8000776 <_ZN22CommandLineInterpreter13parse_commandEv+0x9e>
 8000756:	4638      	mov	r0, r7
 8000758:	a908      	add	r1, sp, #32
 800075a:	f7ff ffab 	bl	80006b4 <_ZNSt6vectorINSt7__cxx1112basic_stringIcSt11char_traitsIcESaIcEEESaIS5_EE9push_backERKS5_>
 800075e:	9b08      	ldr	r3, [sp, #32]
 8000760:	9609      	str	r6, [sp, #36]	; 0x24
 8000762:	701e      	strb	r6, [r3, #0]
 8000764:	f108 0801 	add.w	r8, r8, #1
 8000768:	e7ed      	b.n	8000746 <_ZN22CommandLineInterpreter13parse_commandEv+0x6e>
 800076a:	4611      	mov	r1, r2
 800076c:	9500      	str	r5, [sp, #0]
 800076e:	a802      	add	r0, sp, #8
 8000770:	f7ff fe4e 	bl	8000410 <_ZNSt7__cxx1112basic_stringIcSt11char_traitsIcESaIcEE9_M_mutateEjjPKcj>
 8000774:	e7de      	b.n	8000734 <_ZN22CommandLineInterpreter13parse_commandEv+0x5c>
 8000776:	a808      	add	r0, sp, #32
 8000778:	f7ff fe86 	bl	8000488 <_ZNSt7__cxx1112basic_stringIcSt11char_traitsIcESaIcEE9push_backEc>
 800077c:	e7f2      	b.n	8000764 <_ZN22CommandLineInterpreter13parse_commandEv+0x8c>
 800077e:	4638      	mov	r0, r7
 8000780:	a908      	add	r1, sp, #32
 8000782:	f7ff ff97 	bl	80006b4 <_ZNSt6vectorINSt7__cxx1112basic_stringIcSt11char_traitsIcESaIcEEESaIS5_EE9push_backERKS5_>
 8000786:	2300      	movs	r3, #0
 8000788:	2702      	movs	r7, #2
 800078a:	9a08      	ldr	r2, [sp, #32]
 800078c:	9309      	str	r3, [sp, #36]	; 0x24
 800078e:	7013      	strb	r3, [r2, #0]
 8000790:	e9d4 530b 	ldrd	r5, r3, [r4, #44]	; 0x2c
 8000794:	1b5b      	subs	r3, r3, r5
 8000796:	115e      	asrs	r6, r3, #5
 8000798:	3540      	adds	r5, #64	; 0x40
 800079a:	42b7      	cmp	r7, r6
 800079c:	d21d      	bcs.n	80007da <_ZN22CommandLineInterpreter13parse_commandEv+0x102>
 800079e:	4629      	mov	r1, r5
 80007a0:	a802      	add	r0, sp, #8
 80007a2:	f7ff fd2b 	bl	80001fc <_ZSteqIcEN9__gnu_cxx11__enable_ifIXsrSt9__is_charIT_E7__valueEbE6__typeERKNSt7__cxx1112basic_stringIS3_St11char_traitsIS3_ESaIS3_EEESE_>
 80007a6:	46a8      	mov	r8, r5
 80007a8:	3520      	adds	r5, #32
 80007aa:	b1a0      	cbz	r0, 80007d6 <_ZN22CommandLineInterpreter13parse_commandEv+0xfe>
 80007ac:	f8d8 301c 	ldr.w	r3, [r8, #28]
 80007b0:	4798      	blx	r3
 80007b2:	2000      	movs	r0, #0
 80007b4:	9b02      	ldr	r3, [sp, #8]
 80007b6:	9003      	str	r0, [sp, #12]
 80007b8:	7018      	strb	r0, [r3, #0]
 80007ba:	6963      	ldr	r3, [r4, #20]
 80007bc:	61a0      	str	r0, [r4, #24]
 80007be:	4604      	mov	r4, r0
 80007c0:	7018      	strb	r0, [r3, #0]
 80007c2:	a808      	add	r0, sp, #32
 80007c4:	f7ff fd2c 	bl	8000220 <_ZNSt7__cxx1112basic_stringIcSt11char_traitsIcESaIcEE10_M_disposeEv>
 80007c8:	a802      	add	r0, sp, #8
 80007ca:	f7ff fd29 	bl	8000220 <_ZNSt7__cxx1112basic_stringIcSt11char_traitsIcESaIcEE10_M_disposeEv>
 80007ce:	4620      	mov	r0, r4
 80007d0:	b00e      	add	sp, #56	; 0x38
 80007d2:	e8bd 81f0 	ldmia.w	sp!, {r4, r5, r6, r7, r8, pc}
 80007d6:	3701      	adds	r7, #1
 80007d8:	e7df      	b.n	800079a <_ZN22CommandLineInterpreter13parse_commandEv+0xc2>
 80007da:	2300      	movs	r3, #0
 80007dc:	6962      	ldr	r2, [r4, #20]
 80007de:	61a3      	str	r3, [r4, #24]
 80007e0:	2403      	movs	r4, #3
 80007e2:	7013      	strb	r3, [r2, #0]
 80007e4:	e7ed      	b.n	80007c2 <_ZN22CommandLineInterpreter13parse_commandEv+0xea>

080007e6 <_ZN22CommandLineInterpreter7processERKc>:
 80007e6:	b508      	push	{r3, lr}
 80007e8:	7809      	ldrb	r1, [r1, #0]
 80007ea:	4603      	mov	r3, r0
 80007ec:	290a      	cmp	r1, #10
 80007ee:	d103      	bne.n	80007f8 <_ZN22CommandLineInterpreter7processERKc+0x12>
 80007f0:	e8bd 4008 	ldmia.w	sp!, {r3, lr}
 80007f4:	f7ff bf70 	b.w	80006d8 <_ZN22CommandLineInterpreter13parse_commandEv>
 80007f8:	8a00      	ldrh	r0, [r0, #16]
 80007fa:	699a      	ldr	r2, [r3, #24]
 80007fc:	4290      	cmp	r0, r2
 80007fe:	d205      	bcs.n	800080c <_ZN22CommandLineInterpreter7processERKc+0x26>
 8000800:	2200      	movs	r2, #0
 8000802:	2002      	movs	r0, #2
 8000804:	619a      	str	r2, [r3, #24]
 8000806:	695b      	ldr	r3, [r3, #20]
 8000808:	701a      	strb	r2, [r3, #0]
 800080a:	bd08      	pop	{r3, pc}
 800080c:	290d      	cmp	r1, #13
 800080e:	d003      	beq.n	8000818 <_ZN22CommandLineInterpreter7processERKc+0x32>
 8000810:	f103 0014 	add.w	r0, r3, #20
 8000814:	f7ff fe38 	bl	8000488 <_ZNSt7__cxx1112basic_stringIcSt11char_traitsIcESaIcEE9push_backEc>
 8000818:	2001      	movs	r0, #1
 800081a:	e7f6      	b.n	800080a <_ZN22CommandLineInterpreter7processERKc+0x24>

0800081c <ringbuf_new>:
 800081c:	b538      	push	{r3, r4, r5, lr}
 800081e:	4605      	mov	r5, r0
 8000820:	2010      	movs	r0, #16
 8000822:	f005 f8e7 	bl	80059f4 <malloc>
 8000826:	4604      	mov	r4, r0
 8000828:	b140      	cbz	r0, 800083c <ringbuf_new+0x20>
 800082a:	1c68      	adds	r0, r5, #1
 800082c:	60e0      	str	r0, [r4, #12]
 800082e:	f005 f8e1 	bl	80059f4 <malloc>
 8000832:	4605      	mov	r5, r0
 8000834:	6020      	str	r0, [r4, #0]
 8000836:	b118      	cbz	r0, 8000840 <ringbuf_new+0x24>
 8000838:	e9c4 0001 	strd	r0, r0, [r4, #4]
 800083c:	4620      	mov	r0, r4
 800083e:	bd38      	pop	{r3, r4, r5, pc}
 8000840:	4620      	mov	r0, r4
 8000842:	f005 f8df 	bl	8005a04 <free>
 8000846:	462c      	mov	r4, r5
 8000848:	e7f8      	b.n	800083c <ringbuf_new+0x20>

0800084a <ringbuf_bytes_free>:
 800084a:	e9d0 2301 	ldrd	r2, r3, [r0, #4]
 800084e:	429a      	cmp	r2, r3
 8000850:	bf23      	ittte	cs
 8000852:	68c0      	ldrcs	r0, [r0, #12]
 8000854:	1ad3      	subcs	r3, r2, r3
 8000856:	f100 30ff 	addcs.w	r0, r0, #4294967295
 800085a:	1a9b      	subcc	r3, r3, r2
 800085c:	bf2c      	ite	cs
 800085e:	1ac0      	subcs	r0, r0, r3
 8000860:	f103 30ff 	addcc.w	r0, r3, #4294967295
 8000864:	4770      	bx	lr

08000866 <ringbuf_bytes_used>:
 8000866:	4601      	mov	r1, r0
 8000868:	b508      	push	{r3, lr}
 800086a:	f7ff ffee 	bl	800084a <ringbuf_bytes_free>
 800086e:	68cb      	ldr	r3, [r1, #12]
 8000870:	3b01      	subs	r3, #1
 8000872:	1a18      	subs	r0, r3, r0
 8000874:	bd08      	pop	{r3, pc}

08000876 <ringbuf_is_full>:
 8000876:	b508      	push	{r3, lr}
 8000878:	f7ff ffe7 	bl	800084a <ringbuf_bytes_free>
 800087c:	fab0 f080 	clz	r0, r0
 8000880:	0940      	lsrs	r0, r0, #5
 8000882:	bd08      	pop	{r3, pc}

08000884 <ringbuf_is_empty>:
 8000884:	4601      	mov	r1, r0
 8000886:	b508      	push	{r3, lr}
 8000888:	f7ff ffdf 	bl	800084a <ringbuf_bytes_free>
 800088c:	68cb      	ldr	r3, [r1, #12]
 800088e:	3b01      	subs	r3, #1
 8000890:	1a1b      	subs	r3, r3, r0
 8000892:	4258      	negs	r0, r3
 8000894:	4158      	adcs	r0, r3
 8000896:	bd08      	pop	{r3, pc}

08000898 <ringbuf_memcpy_into>:
 8000898:	e92d 4ff8 	stmdb	sp!, {r3, r4, r5, r6, r7, r8, r9, sl, fp, lr}
 800089c:	6807      	ldr	r7, [r0, #0]
 800089e:	68c3      	ldr	r3, [r0, #12]
 80008a0:	4604      	mov	r4, r0
 80008a2:	4691      	mov	r9, r2
 80008a4:	441f      	add	r7, r3
 80008a6:	f7ff ffd0 	bl	800084a <ringbuf_bytes_free>
 80008aa:	468a      	mov	sl, r1
 80008ac:	4683      	mov	fp, r0
 80008ae:	2500      	movs	r5, #0
 80008b0:	454d      	cmp	r5, r9
 80008b2:	6866      	ldr	r6, [r4, #4]
 80008b4:	d113      	bne.n	80008de <ringbuf_memcpy_into+0x46>
 80008b6:	45ab      	cmp	fp, r5
 80008b8:	d22e      	bcs.n	8000918 <ringbuf_memcpy_into+0x80>
 80008ba:	6822      	ldr	r2, [r4, #0]
 80008bc:	68e1      	ldr	r1, [r4, #12]
 80008be:	1c73      	adds	r3, r6, #1
 80008c0:	1a9b      	subs	r3, r3, r2
 80008c2:	fbb3 f0f1 	udiv	r0, r3, r1
 80008c6:	fb01 3310 	mls	r3, r1, r0, r3
 80008ca:	4413      	add	r3, r2
 80008cc:	4620      	mov	r0, r4
 80008ce:	60a3      	str	r3, [r4, #8]
 80008d0:	f7ff ffd1 	bl	8000876 <ringbuf_is_full>
 80008d4:	bb00      	cbnz	r0, 8000918 <ringbuf_memcpy_into+0x80>
 80008d6:	21d1      	movs	r1, #209	; 0xd1
 80008d8:	4b11      	ldr	r3, [pc, #68]	; (8000920 <ringbuf_memcpy_into+0x88>)
 80008da:	4a12      	ldr	r2, [pc, #72]	; (8000924 <ringbuf_memcpy_into+0x8c>)
 80008dc:	e004      	b.n	80008e8 <ringbuf_memcpy_into+0x50>
 80008de:	42b7      	cmp	r7, r6
 80008e0:	d805      	bhi.n	80008ee <ringbuf_memcpy_into+0x56>
 80008e2:	21c4      	movs	r1, #196	; 0xc4
 80008e4:	4b10      	ldr	r3, [pc, #64]	; (8000928 <ringbuf_memcpy_into+0x90>)
 80008e6:	4a0f      	ldr	r2, [pc, #60]	; (8000924 <ringbuf_memcpy_into+0x8c>)
 80008e8:	4810      	ldr	r0, [pc, #64]	; (800092c <ringbuf_memcpy_into+0x94>)
 80008ea:	f005 f829 	bl	8005940 <__assert_func>
 80008ee:	eba9 0805 	sub.w	r8, r9, r5
 80008f2:	1bba      	subs	r2, r7, r6
 80008f4:	4590      	cmp	r8, r2
 80008f6:	bf28      	it	cs
 80008f8:	4690      	movcs	r8, r2
 80008fa:	eb0a 0105 	add.w	r1, sl, r5
 80008fe:	4642      	mov	r2, r8
 8000900:	4630      	mov	r0, r6
 8000902:	f005 f897 	bl	8005a34 <memcpy>
 8000906:	6863      	ldr	r3, [r4, #4]
 8000908:	4445      	add	r5, r8
 800090a:	4443      	add	r3, r8
 800090c:	42bb      	cmp	r3, r7
 800090e:	6063      	str	r3, [r4, #4]
 8000910:	bf04      	itt	eq
 8000912:	6823      	ldreq	r3, [r4, #0]
 8000914:	6063      	streq	r3, [r4, #4]
 8000916:	e7cb      	b.n	80008b0 <ringbuf_memcpy_into+0x18>
 8000918:	4630      	mov	r0, r6
 800091a:	e8bd 8ff8 	ldmia.w	sp!, {r3, r4, r5, r6, r7, r8, r9, sl, fp, pc}
 800091e:	bf00      	nop
 8000920:	08006e64 	.word	0x08006e64
 8000924:	08006ea0 	.word	0x08006ea0
 8000928:	08006e38 	.word	0x08006e38
 800092c:	08006e4b 	.word	0x08006e4b

08000930 <ringbuf_memcpy_from>:
 8000930:	e92d 43f8 	stmdb	sp!, {r3, r4, r5, r6, r7, r8, r9, lr}
 8000934:	4681      	mov	r9, r0
 8000936:	4608      	mov	r0, r1
 8000938:	4615      	mov	r5, r2
 800093a:	460c      	mov	r4, r1
 800093c:	f7ff ff93 	bl	8000866 <ringbuf_bytes_used>
 8000940:	42a8      	cmp	r0, r5
 8000942:	d326      	bcc.n	8000992 <ringbuf_memcpy_from+0x62>
 8000944:	2600      	movs	r6, #0
 8000946:	6827      	ldr	r7, [r4, #0]
 8000948:	68e3      	ldr	r3, [r4, #12]
 800094a:	441f      	add	r7, r3
 800094c:	42ae      	cmp	r6, r5
 800094e:	68a1      	ldr	r1, [r4, #8]
 8000950:	d102      	bne.n	8000958 <ringbuf_memcpy_from+0x28>
 8000952:	4608      	mov	r0, r1
 8000954:	e8bd 83f8 	ldmia.w	sp!, {r3, r4, r5, r6, r7, r8, r9, pc}
 8000958:	42b9      	cmp	r1, r7
 800095a:	d306      	bcc.n	800096a <ringbuf_memcpy_from+0x3a>
 800095c:	f44f 718c 	mov.w	r1, #280	; 0x118
 8000960:	4b0d      	ldr	r3, [pc, #52]	; (8000998 <ringbuf_memcpy_from+0x68>)
 8000962:	4a0e      	ldr	r2, [pc, #56]	; (800099c <ringbuf_memcpy_from+0x6c>)
 8000964:	480e      	ldr	r0, [pc, #56]	; (80009a0 <ringbuf_memcpy_from+0x70>)
 8000966:	f004 ffeb 	bl	8005940 <__assert_func>
 800096a:	eba5 0806 	sub.w	r8, r5, r6
 800096e:	1a7a      	subs	r2, r7, r1
 8000970:	4590      	cmp	r8, r2
 8000972:	bf28      	it	cs
 8000974:	4690      	movcs	r8, r2
 8000976:	eb09 0006 	add.w	r0, r9, r6
 800097a:	4642      	mov	r2, r8
 800097c:	f005 f85a 	bl	8005a34 <memcpy>
 8000980:	68a3      	ldr	r3, [r4, #8]
 8000982:	4446      	add	r6, r8
 8000984:	4443      	add	r3, r8
 8000986:	42bb      	cmp	r3, r7
 8000988:	60a3      	str	r3, [r4, #8]
 800098a:	bf04      	itt	eq
 800098c:	6823      	ldreq	r3, [r4, #0]
 800098e:	60a3      	streq	r3, [r4, #8]
 8000990:	e7dc      	b.n	800094c <ringbuf_memcpy_from+0x1c>
 8000992:	2100      	movs	r1, #0
 8000994:	e7dd      	b.n	8000952 <ringbuf_memcpy_from+0x22>
 8000996:	bf00      	nop
 8000998:	08006e79 	.word	0x08006e79
 800099c:	08006e8c 	.word	0x08006e8c
 80009a0:	08006e4b 	.word	0x08006e4b

080009a4 <MX_GPIO_Init>:
 80009a4:	2210      	movs	r2, #16
 80009a6:	b530      	push	{r4, r5, lr}
 80009a8:	b089      	sub	sp, #36	; 0x24
 80009aa:	eb0d 0002 	add.w	r0, sp, r2
 80009ae:	2100      	movs	r1, #0
 80009b0:	f005 f84e 	bl	8005a50 <memset>
 80009b4:	4b25      	ldr	r3, [pc, #148]	; (8000a4c <MX_GPIO_Init+0xa8>)
 80009b6:	4c26      	ldr	r4, [pc, #152]	; (8000a50 <MX_GPIO_Init+0xac>)
 80009b8:	699a      	ldr	r2, [r3, #24]
 80009ba:	4620      	mov	r0, r4
 80009bc:	f042 0210 	orr.w	r2, r2, #16
 80009c0:	619a      	str	r2, [r3, #24]
 80009c2:	699a      	ldr	r2, [r3, #24]
 80009c4:	f44f 6140 	mov.w	r1, #3072	; 0xc00
 80009c8:	f002 0210 	and.w	r2, r2, #16
 80009cc:	9200      	str	r2, [sp, #0]
 80009ce:	9a00      	ldr	r2, [sp, #0]
 80009d0:	699a      	ldr	r2, [r3, #24]
 80009d2:	2503      	movs	r5, #3
 80009d4:	f042 0220 	orr.w	r2, r2, #32
 80009d8:	619a      	str	r2, [r3, #24]
 80009da:	699a      	ldr	r2, [r3, #24]
 80009dc:	f002 0220 	and.w	r2, r2, #32
 80009e0:	9201      	str	r2, [sp, #4]
 80009e2:	9a01      	ldr	r2, [sp, #4]
 80009e4:	699a      	ldr	r2, [r3, #24]
 80009e6:	f042 0204 	orr.w	r2, r2, #4
 80009ea:	619a      	str	r2, [r3, #24]
 80009ec:	699a      	ldr	r2, [r3, #24]
 80009ee:	f002 0204 	and.w	r2, r2, #4
 80009f2:	9202      	str	r2, [sp, #8]
 80009f4:	9a02      	ldr	r2, [sp, #8]
 80009f6:	699a      	ldr	r2, [r3, #24]
 80009f8:	f042 0208 	orr.w	r2, r2, #8
 80009fc:	619a      	str	r2, [r3, #24]
 80009fe:	699b      	ldr	r3, [r3, #24]
 8000a00:	2201      	movs	r2, #1
 8000a02:	f003 0308 	and.w	r3, r3, #8
 8000a06:	9303      	str	r3, [sp, #12]
 8000a08:	9b03      	ldr	r3, [sp, #12]
 8000a0a:	f000 ff8b 	bl	8001924 <HAL_GPIO_WritePin>
 8000a0e:	f248 13ff 	movw	r3, #33279	; 0x81ff
 8000a12:	a904      	add	r1, sp, #16
 8000a14:	480f      	ldr	r0, [pc, #60]	; (8000a54 <MX_GPIO_Init+0xb0>)
 8000a16:	e9cd 3504 	strd	r3, r5, [sp, #16]
 8000a1a:	f000 fea9 	bl	8001770 <HAL_GPIO_Init>
 8000a1e:	f24f 333f 	movw	r3, #62271	; 0xf33f
 8000a22:	4620      	mov	r0, r4
 8000a24:	a904      	add	r1, sp, #16
 8000a26:	e9cd 3504 	strd	r3, r5, [sp, #16]
 8000a2a:	f000 fea1 	bl	8001770 <HAL_GPIO_Init>
 8000a2e:	f44f 6240 	mov.w	r2, #3072	; 0xc00
 8000a32:	2301      	movs	r3, #1
 8000a34:	2100      	movs	r1, #0
 8000a36:	e9cd 2304 	strd	r2, r3, [sp, #16]
 8000a3a:	2302      	movs	r3, #2
 8000a3c:	4620      	mov	r0, r4
 8000a3e:	e9cd 1306 	strd	r1, r3, [sp, #24]
 8000a42:	a904      	add	r1, sp, #16
 8000a44:	f000 fe94 	bl	8001770 <HAL_GPIO_Init>
 8000a48:	b009      	add	sp, #36	; 0x24
 8000a4a:	bd30      	pop	{r4, r5, pc}
 8000a4c:	40021000 	.word	0x40021000
 8000a50:	40010c00 	.word	0x40010c00
 8000a54:	40010800 	.word	0x40010800

08000a58 <MX_I2C1_Init>:
 8000a58:	b508      	push	{r3, lr}
 8000a5a:	480b      	ldr	r0, [pc, #44]	; (8000a88 <MX_I2C1_Init+0x30>)
 8000a5c:	4a0b      	ldr	r2, [pc, #44]	; (8000a8c <MX_I2C1_Init+0x34>)
 8000a5e:	4b0c      	ldr	r3, [pc, #48]	; (8000a90 <MX_I2C1_Init+0x38>)
 8000a60:	e9c0 2300 	strd	r2, r3, [r0]
 8000a64:	2300      	movs	r3, #0
 8000a66:	f44f 4280 	mov.w	r2, #16384	; 0x4000
 8000a6a:	e9c0 3302 	strd	r3, r3, [r0, #8]
 8000a6e:	e9c0 2304 	strd	r2, r3, [r0, #16]
 8000a72:	e9c0 3306 	strd	r3, r3, [r0, #24]
 8000a76:	6203      	str	r3, [r0, #32]
 8000a78:	f001 f8d4 	bl	8001c24 <HAL_I2C_Init>
 8000a7c:	b118      	cbz	r0, 8000a86 <MX_I2C1_Init+0x2e>
 8000a7e:	e8bd 4008 	ldmia.w	sp!, {r3, lr}
 8000a82:	f000 b907 	b.w	8000c94 <Error_Handler>
 8000a86:	bd08      	pop	{r3, pc}
 8000a88:	20000204 	.word	0x20000204
 8000a8c:	40005400 	.word	0x40005400
 8000a90:	000186a0 	.word	0x000186a0

08000a94 <HAL_I2C_MspInit>:
 8000a94:	b510      	push	{r4, lr}
 8000a96:	4604      	mov	r4, r0
 8000a98:	b086      	sub	sp, #24
 8000a9a:	2210      	movs	r2, #16
 8000a9c:	2100      	movs	r1, #0
 8000a9e:	a802      	add	r0, sp, #8
 8000aa0:	f004 ffd6 	bl	8005a50 <memset>
 8000aa4:	6822      	ldr	r2, [r4, #0]
 8000aa6:	4b11      	ldr	r3, [pc, #68]	; (8000aec <HAL_I2C_MspInit+0x58>)
 8000aa8:	429a      	cmp	r2, r3
 8000aaa:	d11c      	bne.n	8000ae6 <HAL_I2C_MspInit+0x52>
 8000aac:	4c10      	ldr	r4, [pc, #64]	; (8000af0 <HAL_I2C_MspInit+0x5c>)
 8000aae:	22c0      	movs	r2, #192	; 0xc0
 8000ab0:	69a3      	ldr	r3, [r4, #24]
 8000ab2:	4810      	ldr	r0, [pc, #64]	; (8000af4 <HAL_I2C_MspInit+0x60>)
 8000ab4:	f043 0308 	orr.w	r3, r3, #8
 8000ab8:	61a3      	str	r3, [r4, #24]
 8000aba:	69a3      	ldr	r3, [r4, #24]
 8000abc:	a902      	add	r1, sp, #8
 8000abe:	f003 0308 	and.w	r3, r3, #8
 8000ac2:	9300      	str	r3, [sp, #0]
 8000ac4:	9b00      	ldr	r3, [sp, #0]
 8000ac6:	2312      	movs	r3, #18
 8000ac8:	e9cd 2302 	strd	r2, r3, [sp, #8]
 8000acc:	2303      	movs	r3, #3
 8000ace:	9305      	str	r3, [sp, #20]
 8000ad0:	f000 fe4e 	bl	8001770 <HAL_GPIO_Init>
 8000ad4:	69e3      	ldr	r3, [r4, #28]
 8000ad6:	f443 1300 	orr.w	r3, r3, #2097152	; 0x200000
 8000ada:	61e3      	str	r3, [r4, #28]
 8000adc:	69e3      	ldr	r3, [r4, #28]
 8000ade:	f403 1300 	and.w	r3, r3, #2097152	; 0x200000
 8000ae2:	9301      	str	r3, [sp, #4]
 8000ae4:	9b01      	ldr	r3, [sp, #4]
 8000ae6:	b006      	add	sp, #24
 8000ae8:	bd10      	pop	{r4, pc}
 8000aea:	bf00      	nop
 8000aec:	40005400 	.word	0x40005400
 8000af0:	40021000 	.word	0x40021000
 8000af4:	40010c00 	.word	0x40010c00

08000af8 <_ZNSt12_Vector_baseIN3CLI7CommandESaIS1_EE11_M_allocateEj.isra.0>:
 8000af8:	b508      	push	{r3, lr}
 8000afa:	b148      	cbz	r0, 8000b10 <_ZNSt12_Vector_baseIN3CLI7CommandESaIS1_EE11_M_allocateEj.isra.0+0x18>
 8000afc:	f1b0 6f80 	cmp.w	r0, #67108864	; 0x4000000
 8000b00:	d301      	bcc.n	8000b06 <_ZNSt12_Vector_baseIN3CLI7CommandESaIS1_EE11_M_allocateEj.isra.0+0xe>
 8000b02:	f004 ff02 	bl	800590a <_ZSt17__throw_bad_allocv>
 8000b06:	0140      	lsls	r0, r0, #5
 8000b08:	e8bd 4008 	ldmia.w	sp!, {r3, lr}
 8000b0c:	f004 beec 	b.w	80058e8 <_Znwj>
 8000b10:	bd08      	pop	{r3, pc}

08000b12 <_ZNSt12_Vector_baseIN3CLI7CommandESaIS1_EE13_M_deallocateEPS1_j.isra.0>:
 8000b12:	b110      	cbz	r0, 8000b1a <_ZNSt12_Vector_baseIN3CLI7CommandESaIS1_EE13_M_deallocateEPS1_j.isra.0+0x8>
 8000b14:	0149      	lsls	r1, r1, #5
 8000b16:	f004 bee5 	b.w	80058e4 <_ZdlPvj>
 8000b1a:	4770      	bx	lr

08000b1c <_Z5printPKcz>:
 8000b1c:	b40f      	push	{r0, r1, r2, r3}
 8000b1e:	b513      	push	{r0, r1, r4, lr}
 8000b20:	4c0a      	ldr	r4, [pc, #40]	; (8000b4c <_Z5printPKcz+0x30>)
 8000b22:	ab04      	add	r3, sp, #16
 8000b24:	f853 2b04 	ldr.w	r2, [r3], #4
 8000b28:	2180      	movs	r1, #128	; 0x80
 8000b2a:	4620      	mov	r0, r4
 8000b2c:	9301      	str	r3, [sp, #4]
 8000b2e:	f005 fbe1 	bl	80062f4 <vsniprintf>
 8000b32:	4620      	mov	r0, r4
 8000b34:	f7ff fb0a 	bl	800014c <strlen>
 8000b38:	b281      	uxth	r1, r0
 8000b3a:	4620      	mov	r0, r4
 8000b3c:	f004 fd30 	bl	80055a0 <CDC_Transmit_FS>
 8000b40:	b002      	add	sp, #8
 8000b42:	e8bd 4010 	ldmia.w	sp!, {r4, lr}
 8000b46:	b004      	add	sp, #16
 8000b48:	4770      	bx	lr
 8000b4a:	bf00      	nop
 8000b4c:	2000031d 	.word	0x2000031d

08000b50 <_ZZ15cli_parser_initvENUlvE_4_FUNEv>:
 8000b50:	4801      	ldr	r0, [pc, #4]	; (8000b58 <_ZZ15cli_parser_initvENUlvE_4_FUNEv+0x8>)
 8000b52:	f7ff bfe3 	b.w	8000b1c <_Z5printPKcz>
 8000b56:	bf00      	nop
 8000b58:	08006eb4 	.word	0x08006eb4

08000b5c <_Z6ble_onv>:
 8000b5c:	4801      	ldr	r0, [pc, #4]	; (8000b64 <_Z6ble_onv+0x8>)
 8000b5e:	f7ff bfdd 	b.w	8000b1c <_Z5printPKcz>
 8000b62:	bf00      	nop
 8000b64:	08006ec6 	.word	0x08006ec6

08000b68 <_Z7ble_offv>:
 8000b68:	4801      	ldr	r0, [pc, #4]	; (8000b70 <_Z7ble_offv+0x8>)
 8000b6a:	f7ff bfd7 	b.w	8000b1c <_Z5printPKcz>
 8000b6e:	bf00      	nop
 8000b70:	08006ed5 	.word	0x08006ed5

08000b74 <_Z10ble_wakeupv>:
 8000b74:	b510      	push	{r4, lr}
 8000b76:	4c0b      	ldr	r4, [pc, #44]	; (8000ba4 <_Z10ble_wakeupv+0x30>)
 8000b78:	480b      	ldr	r0, [pc, #44]	; (8000ba8 <_Z10ble_wakeupv+0x34>)
 8000b7a:	f7ff ffcf 	bl	8000b1c <_Z5printPKcz>
 8000b7e:	2200      	movs	r2, #0
 8000b80:	f44f 6100 	mov.w	r1, #2048	; 0x800
 8000b84:	4620      	mov	r0, r4
 8000b86:	f000 fecd 	bl	8001924 <HAL_GPIO_WritePin>
 8000b8a:	f44f 60fa 	mov.w	r0, #2000	; 0x7d0
 8000b8e:	f000 fd0d 	bl	80015ac <HAL_Delay>
 8000b92:	4620      	mov	r0, r4
 8000b94:	e8bd 4010 	ldmia.w	sp!, {r4, lr}
 8000b98:	2201      	movs	r2, #1
 8000b9a:	f44f 6100 	mov.w	r1, #2048	; 0x800
 8000b9e:	f000 bec1 	b.w	8001924 <HAL_GPIO_WritePin>
 8000ba2:	bf00      	nop
 8000ba4:	40010c00 	.word	0x40010c00
 8000ba8:	08006ee5 	.word	0x08006ee5

08000bac <_Z8ble_sendv>:
 8000bac:	b510      	push	{r4, lr}
 8000bae:	4c07      	ldr	r4, [pc, #28]	; (8000bcc <_Z8ble_sendv+0x20>)
 8000bb0:	4807      	ldr	r0, [pc, #28]	; (8000bd0 <_Z8ble_sendv+0x24>)
 8000bb2:	6863      	ldr	r3, [r4, #4]
 8000bb4:	6819      	ldr	r1, [r3, #0]
 8000bb6:	f7ff ffb1 	bl	8000b1c <_Z5printPKcz>
 8000bba:	6861      	ldr	r1, [r4, #4]
 8000bbc:	2364      	movs	r3, #100	; 0x64
 8000bbe:	e8bd 4010 	ldmia.w	sp!, {r4, lr}
 8000bc2:	888a      	ldrh	r2, [r1, #4]
 8000bc4:	4803      	ldr	r0, [pc, #12]	; (8000bd4 <_Z8ble_sendv+0x28>)
 8000bc6:	6809      	ldr	r1, [r1, #0]
 8000bc8:	f002 bff3 	b.w	8003bb2 <HAL_UART_Transmit>
 8000bcc:	200002dc 	.word	0x200002dc
 8000bd0:	08006ef5 	.word	0x08006ef5
 8000bd4:	200003b8 	.word	0x200003b8

08000bd8 <_Z18SystemClock_Configv>:
 8000bd8:	b510      	push	{r4, lr}
 8000bda:	b094      	sub	sp, #80	; 0x50
 8000bdc:	2214      	movs	r2, #20
 8000bde:	2100      	movs	r1, #0
 8000be0:	a80c      	add	r0, sp, #48	; 0x30
 8000be2:	f004 ff35 	bl	8005a50 <memset>
 8000be6:	2214      	movs	r2, #20
 8000be8:	2100      	movs	r1, #0
 8000bea:	eb0d 0002 	add.w	r0, sp, r2
 8000bee:	f004 ff2f 	bl	8005a50 <memset>
 8000bf2:	2210      	movs	r2, #16
 8000bf4:	2100      	movs	r1, #0
 8000bf6:	a801      	add	r0, sp, #4
 8000bf8:	f004 ff2a 	bl	8005a50 <memset>
 8000bfc:	2402      	movs	r4, #2
 8000bfe:	f44f 3380 	mov.w	r3, #65536	; 0x10000
 8000c02:	2105      	movs	r1, #5
 8000c04:	2201      	movs	r2, #1
 8000c06:	e9cd 130a 	strd	r1, r3, [sp, #40]	; 0x28
 8000c0a:	e9cd 4311 	strd	r4, r3, [sp, #68]	; 0x44
 8000c0e:	f44f 13e0 	mov.w	r3, #1835008	; 0x1c0000
 8000c12:	a80a      	add	r0, sp, #40	; 0x28
 8000c14:	e9cd 220d 	strd	r2, r2, [sp, #52]	; 0x34
 8000c18:	9313      	str	r3, [sp, #76]	; 0x4c
 8000c1a:	f002 f881 	bl	8002d20 <HAL_RCC_OscConfig>
 8000c1e:	b108      	cbz	r0, 8000c24 <_Z18SystemClock_Configv+0x4c>
 8000c20:	b672      	cpsid	i
 8000c22:	e7fe      	b.n	8000c22 <_Z18SystemClock_Configv+0x4a>
 8000c24:	230f      	movs	r3, #15
 8000c26:	e9cd 3405 	strd	r3, r4, [sp, #20]
 8000c2a:	f44f 6380 	mov.w	r3, #1024	; 0x400
 8000c2e:	9007      	str	r0, [sp, #28]
 8000c30:	e9cd 3008 	strd	r3, r0, [sp, #32]
 8000c34:	4621      	mov	r1, r4
 8000c36:	a805      	add	r0, sp, #20
 8000c38:	f002 fa34 	bl	80030a4 <HAL_RCC_ClockConfig>
 8000c3c:	b108      	cbz	r0, 8000c42 <_Z18SystemClock_Configv+0x6a>
 8000c3e:	b672      	cpsid	i
 8000c40:	e7fe      	b.n	8000c40 <_Z18SystemClock_Configv+0x68>
 8000c42:	2211      	movs	r2, #17
 8000c44:	f44f 7380 	mov.w	r3, #256	; 0x100
 8000c48:	9004      	str	r0, [sp, #16]
 8000c4a:	a801      	add	r0, sp, #4
 8000c4c:	e9cd 2301 	strd	r2, r3, [sp, #4]
 8000c50:	f002 fae4 	bl	800321c <HAL_RCCEx_PeriphCLKConfig>
 8000c54:	b108      	cbz	r0, 8000c5a <_Z18SystemClock_Configv+0x82>
 8000c56:	b672      	cpsid	i
 8000c58:	e7fe      	b.n	8000c58 <_Z18SystemClock_Configv+0x80>
 8000c5a:	b014      	add	sp, #80	; 0x50
 8000c5c:	bd10      	pop	{r4, pc}
	...

08000c60 <HAL_UART_RxCpltCallback>:
 8000c60:	b410      	push	{r4}
 8000c62:	4a07      	ldr	r2, [pc, #28]	; (8000c80 <HAL_UART_RxCpltCallback+0x20>)
 8000c64:	4907      	ldr	r1, [pc, #28]	; (8000c84 <HAL_UART_RxCpltCallback+0x24>)
 8000c66:	8813      	ldrh	r3, [r2, #0]
 8000c68:	7808      	ldrb	r0, [r1, #0]
 8000c6a:	1c5c      	adds	r4, r3, #1
 8000c6c:	8014      	strh	r4, [r2, #0]
 8000c6e:	4a06      	ldr	r2, [pc, #24]	; (8000c88 <HAL_UART_RxCpltCallback+0x28>)
 8000c70:	54d0      	strb	r0, [r2, r3]
 8000c72:	2201      	movs	r2, #1
 8000c74:	4b05      	ldr	r3, [pc, #20]	; (8000c8c <HAL_UART_RxCpltCallback+0x2c>)
 8000c76:	4806      	ldr	r0, [pc, #24]	; (8000c90 <HAL_UART_RxCpltCallback+0x30>)
 8000c78:	bc10      	pop	{r4}
 8000c7a:	701a      	strb	r2, [r3, #0]
 8000c7c:	f003 b9b1 	b.w	8003fe2 <HAL_UART_Receive_IT>
 8000c80:	200002d8 	.word	0x200002d8
 8000c84:	2000039d 	.word	0x2000039d
 8000c88:	20000258 	.word	0x20000258
 8000c8c:	2000031c 	.word	0x2000031c
 8000c90:	200003b8 	.word	0x200003b8

08000c94 <Error_Handler>:
 8000c94:	b672      	cpsid	i
 8000c96:	e7fe      	b.n	8000c96 <Error_Handler+0x2>

08000c98 <_Z19cli_process_commandv>:
 8000c98:	b5f8      	push	{r3, r4, r5, r6, r7, lr}
 8000c9a:	4c13      	ldr	r4, [pc, #76]	; (8000ce8 <_Z19cli_process_commandv+0x50>)
 8000c9c:	6820      	ldr	r0, [r4, #0]
 8000c9e:	f7ff fdf1 	bl	8000884 <ringbuf_is_empty>
 8000ca2:	b9e0      	cbnz	r0, 8000cde <_Z19cli_process_commandv+0x46>
 8000ca4:	2201      	movs	r2, #1
 8000ca6:	6821      	ldr	r1, [r4, #0]
 8000ca8:	4810      	ldr	r0, [pc, #64]	; (8000cec <_Z19cli_process_commandv+0x54>)
 8000caa:	f7ff fe41 	bl	8000930 <ringbuf_memcpy_from>
 8000cae:	490f      	ldr	r1, [pc, #60]	; (8000cec <_Z19cli_process_commandv+0x54>)
 8000cb0:	480f      	ldr	r0, [pc, #60]	; (8000cf0 <_Z19cli_process_commandv+0x58>)
 8000cb2:	f7ff fd98 	bl	80007e6 <_ZN22CommandLineInterpreter7processERKc>
 8000cb6:	2801      	cmp	r0, #1
 8000cb8:	d011      	beq.n	8000cde <_Z19cli_process_commandv+0x46>
 8000cba:	2802      	cmp	r0, #2
 8000cbc:	d110      	bne.n	8000ce0 <_Z19cli_process_commandv+0x48>
 8000cbe:	480d      	ldr	r0, [pc, #52]	; (8000cf4 <_Z19cli_process_commandv+0x5c>)
 8000cc0:	f7ff ff2c 	bl	8000b1c <_Z5printPKcz>
 8000cc4:	4d0a      	ldr	r5, [pc, #40]	; (8000cf0 <_Z19cli_process_commandv+0x58>)
 8000cc6:	e9d5 6701 	ldrd	r6, r7, [r5, #4]
 8000cca:	42be      	cmp	r6, r7
 8000ccc:	d007      	beq.n	8000cde <_Z19cli_process_commandv+0x46>
 8000cce:	4634      	mov	r4, r6
 8000cd0:	4620      	mov	r0, r4
 8000cd2:	3418      	adds	r4, #24
 8000cd4:	f7ff faa4 	bl	8000220 <_ZNSt7__cxx1112basic_stringIcSt11char_traitsIcESaIcEE10_M_disposeEv>
 8000cd8:	42a7      	cmp	r7, r4
 8000cda:	d1f9      	bne.n	8000cd0 <_Z19cli_process_commandv+0x38>
 8000cdc:	60ae      	str	r6, [r5, #8]
 8000cde:	bdf8      	pop	{r3, r4, r5, r6, r7, pc}
 8000ce0:	2803      	cmp	r0, #3
 8000ce2:	d1ef      	bne.n	8000cc4 <_Z19cli_process_commandv+0x2c>
 8000ce4:	4804      	ldr	r0, [pc, #16]	; (8000cf8 <_Z19cli_process_commandv+0x60>)
 8000ce6:	e7eb      	b.n	8000cc0 <_Z19cli_process_commandv+0x28>
 8000ce8:	20000318 	.word	0x20000318
 8000cec:	20000314 	.word	0x20000314
 8000cf0:	200002dc 	.word	0x200002dc
 8000cf4:	08006f18 	.word	0x08006f18
 8000cf8:	08006eb4 	.word	0x08006eb4

08000cfc <_ZSt14__relocate_a_1IPN3CLI7CommandES2_SaIS1_EET0_T_S5_S4_RT1_.isra.0>:
 8000cfc:	b5f8      	push	{r3, r4, r5, r6, r7, lr}
 8000cfe:	4604      	mov	r4, r0
 8000d00:	460e      	mov	r6, r1
 8000d02:	2700      	movs	r7, #0
 8000d04:	f102 0508 	add.w	r5, r2, #8
 8000d08:	42b4      	cmp	r4, r6
 8000d0a:	f1a5 0008 	sub.w	r0, r5, #8
 8000d0e:	d026      	beq.n	8000d5e <_ZSt14__relocate_a_1IPN3CLI7CommandES2_SaIS1_EET0_T_S5_S4_RT1_.isra.0+0x62>
 8000d10:	4623      	mov	r3, r4
 8000d12:	f845 5c08 	str.w	r5, [r5, #-8]
 8000d16:	f853 2b08 	ldr.w	r2, [r3], #8
 8000d1a:	429a      	cmp	r2, r3
 8000d1c:	d11a      	bne.n	8000d54 <_ZSt14__relocate_a_1IPN3CLI7CommandES2_SaIS1_EET0_T_S5_S4_RT1_.isra.0+0x58>
 8000d1e:	461a      	mov	r2, r3
 8000d20:	4629      	mov	r1, r5
 8000d22:	f104 0018 	add.w	r0, r4, #24
 8000d26:	f852 cb04 	ldr.w	ip, [r2], #4
 8000d2a:	4282      	cmp	r2, r0
 8000d2c:	f841 cb04 	str.w	ip, [r1], #4
 8000d30:	d1f9      	bne.n	8000d26 <_ZSt14__relocate_a_1IPN3CLI7CommandES2_SaIS1_EET0_T_S5_S4_RT1_.isra.0+0x2a>
 8000d32:	6862      	ldr	r2, [r4, #4]
 8000d34:	4620      	mov	r0, r4
 8000d36:	f845 2c04 	str.w	r2, [r5, #-4]
 8000d3a:	e9c4 3700 	strd	r3, r7, [r4]
 8000d3e:	7e23      	ldrb	r3, [r4, #24]
 8000d40:	7227      	strb	r7, [r4, #8]
 8000d42:	742b      	strb	r3, [r5, #16]
 8000d44:	69e3      	ldr	r3, [r4, #28]
 8000d46:	3520      	adds	r5, #32
 8000d48:	f845 3c0c 	str.w	r3, [r5, #-12]
 8000d4c:	f7ff fa68 	bl	8000220 <_ZNSt7__cxx1112basic_stringIcSt11char_traitsIcESaIcEE10_M_disposeEv>
 8000d50:	3420      	adds	r4, #32
 8000d52:	e7d9      	b.n	8000d08 <_ZSt14__relocate_a_1IPN3CLI7CommandES2_SaIS1_EET0_T_S5_S4_RT1_.isra.0+0xc>
 8000d54:	f845 2c08 	str.w	r2, [r5, #-8]
 8000d58:	68a2      	ldr	r2, [r4, #8]
 8000d5a:	602a      	str	r2, [r5, #0]
 8000d5c:	e7e9      	b.n	8000d32 <_ZSt14__relocate_a_1IPN3CLI7CommandES2_SaIS1_EET0_T_S5_S4_RT1_.isra.0+0x36>
 8000d5e:	bdf8      	pop	{r3, r4, r5, r6, r7, pc}

08000d60 <_ZNSt17basic_string_viewIcSt11char_traitsIcEEC1EPKc>:
 8000d60:	b538      	push	{r3, r4, r5, lr}
 8000d62:	4604      	mov	r4, r0
 8000d64:	4608      	mov	r0, r1
 8000d66:	460d      	mov	r5, r1
 8000d68:	f7ff f9f0 	bl	800014c <strlen>
 8000d6c:	e9c4 0500 	strd	r0, r5, [r4]
 8000d70:	4620      	mov	r0, r4
 8000d72:	bd38      	pop	{r3, r4, r5, pc}

08000d74 <_Z15cli_parser_initv>:
 8000d74:	e92d 43f0 	stmdb	sp!, {r4, r5, r6, r7, r8, r9, lr}
 8000d78:	2600      	movs	r6, #0
 8000d7a:	b087      	sub	sp, #28
 8000d7c:	4aaf      	ldr	r2, [pc, #700]	; (800103c <_Z15cli_parser_initv+0x2c8>)
 8000d7e:	2101      	movs	r1, #1
 8000d80:	a803      	add	r0, sp, #12
 8000d82:	e9cd 6603 	strd	r6, r6, [sp, #12]
 8000d86:	9605      	str	r6, [sp, #20]
 8000d88:	f7ff faa1 	bl	80002ce <_ZNKSt6vectorIN3CLI7CommandESaIS1_EE12_M_check_lenEjPKc>
 8000d8c:	4607      	mov	r7, r0
 8000d8e:	f7ff feb3 	bl	8000af8 <_ZNSt12_Vector_baseIN3CLI7CommandESaIS1_EE11_M_allocateEj.isra.0>
 8000d92:	4604      	mov	r4, r0
 8000d94:	49aa      	ldr	r1, [pc, #680]	; (8001040 <_Z15cli_parser_initv+0x2cc>)
 8000d96:	a801      	add	r0, sp, #4
 8000d98:	f7ff ffe2 	bl	8000d60 <_ZNSt17basic_string_viewIcSt11char_traitsIcEEC1EPKc>
 8000d9c:	466a      	mov	r2, sp
 8000d9e:	a901      	add	r1, sp, #4
 8000da0:	4620      	mov	r0, r4
 8000da2:	f7ff fadb 	bl	800035c <_ZNSt7__cxx1112basic_stringIcSt11char_traitsIcESaIcEEC1ISt17basic_string_viewIcS2_EvEERKT_RKS3_>
 8000da6:	4ba7      	ldr	r3, [pc, #668]	; (8001044 <_Z15cli_parser_initv+0x2d0>)
 8000da8:	4622      	mov	r2, r4
 8000daa:	61e3      	str	r3, [r4, #28]
 8000dac:	4631      	mov	r1, r6
 8000dae:	4630      	mov	r0, r6
 8000db0:	7626      	strb	r6, [r4, #24]
 8000db2:	f7ff ffa3 	bl	8000cfc <_ZSt14__relocate_a_1IPN3CLI7CommandES2_SaIS1_EET0_T_S5_S4_RT1_.isra.0>
 8000db6:	4631      	mov	r1, r6
 8000db8:	f100 0220 	add.w	r2, r0, #32
 8000dbc:	4630      	mov	r0, r6
 8000dbe:	f7ff ff9d 	bl	8000cfc <_ZSt14__relocate_a_1IPN3CLI7CommandES2_SaIS1_EET0_T_S5_S4_RT1_.isra.0>
 8000dc2:	4605      	mov	r5, r0
 8000dc4:	9905      	ldr	r1, [sp, #20]
 8000dc6:	4630      	mov	r0, r6
 8000dc8:	1149      	asrs	r1, r1, #5
 8000dca:	ea4f 1847 	mov.w	r8, r7, lsl #5
 8000dce:	eb04 1747 	add.w	r7, r4, r7, lsl #5
 8000dd2:	f7ff fe9e 	bl	8000b12 <_ZNSt12_Vector_baseIN3CLI7CommandESaIS1_EE13_M_deallocateEPS1_j.isra.0>
 8000dd6:	42bd      	cmp	r5, r7
 8000dd8:	9705      	str	r7, [sp, #20]
 8000dda:	e9cd 4503 	strd	r4, r5, [sp, #12]
 8000dde:	4f9a      	ldr	r7, [pc, #616]	; (8001048 <_Z15cli_parser_initv+0x2d4>)
 8000de0:	d060      	beq.n	8000ea4 <_Z15cli_parser_initv+0x130>
 8000de2:	499a      	ldr	r1, [pc, #616]	; (800104c <_Z15cli_parser_initv+0x2d8>)
 8000de4:	a801      	add	r0, sp, #4
 8000de6:	f7ff ffbb 	bl	8000d60 <_ZNSt17basic_string_viewIcSt11char_traitsIcEEC1EPKc>
 8000dea:	466a      	mov	r2, sp
 8000dec:	4628      	mov	r0, r5
 8000dee:	a901      	add	r1, sp, #4
 8000df0:	f7ff fab4 	bl	800035c <_ZNSt7__cxx1112basic_stringIcSt11char_traitsIcESaIcEEC1ISt17basic_string_viewIcS2_EvEERKT_RKS3_>
 8000df4:	2301      	movs	r3, #1
 8000df6:	762b      	strb	r3, [r5, #24]
 8000df8:	9b04      	ldr	r3, [sp, #16]
 8000dfa:	61ef      	str	r7, [r5, #28]
 8000dfc:	3320      	adds	r3, #32
 8000dfe:	9304      	str	r3, [sp, #16]
 8000e00:	e9dd 4704 	ldrd	r4, r7, [sp, #16]
 8000e04:	42a7      	cmp	r7, r4
 8000e06:	f8df 9248 	ldr.w	r9, [pc, #584]	; 8001050 <_Z15cli_parser_initv+0x2dc>
 8000e0a:	d07b      	beq.n	8000f04 <_Z15cli_parser_initv+0x190>
 8000e0c:	4991      	ldr	r1, [pc, #580]	; (8001054 <_Z15cli_parser_initv+0x2e0>)
 8000e0e:	a801      	add	r0, sp, #4
 8000e10:	f7ff ffa6 	bl	8000d60 <_ZNSt17basic_string_viewIcSt11char_traitsIcEEC1EPKc>
 8000e14:	466a      	mov	r2, sp
 8000e16:	4620      	mov	r0, r4
 8000e18:	a901      	add	r1, sp, #4
 8000e1a:	f7ff fa9f 	bl	800035c <_ZNSt7__cxx1112basic_stringIcSt11char_traitsIcESaIcEEC1ISt17basic_string_viewIcS2_EvEERKT_RKS3_>
 8000e1e:	2301      	movs	r3, #1
 8000e20:	7623      	strb	r3, [r4, #24]
 8000e22:	9b04      	ldr	r3, [sp, #16]
 8000e24:	f8c4 901c 	str.w	r9, [r4, #28]
 8000e28:	3320      	adds	r3, #32
 8000e2a:	9304      	str	r3, [sp, #16]
 8000e2c:	e9dd 4704 	ldrd	r4, r7, [sp, #16]
 8000e30:	42a7      	cmp	r7, r4
 8000e32:	f8df 9224 	ldr.w	r9, [pc, #548]	; 8001058 <_Z15cli_parser_initv+0x2e4>
 8000e36:	f000 8096 	beq.w	8000f66 <_Z15cli_parser_initv+0x1f2>
 8000e3a:	4988      	ldr	r1, [pc, #544]	; (800105c <_Z15cli_parser_initv+0x2e8>)
 8000e3c:	a801      	add	r0, sp, #4
 8000e3e:	f7ff ff8f 	bl	8000d60 <_ZNSt17basic_string_viewIcSt11char_traitsIcEEC1EPKc>
 8000e42:	466a      	mov	r2, sp
 8000e44:	4620      	mov	r0, r4
 8000e46:	a901      	add	r1, sp, #4
 8000e48:	f7ff fa88 	bl	800035c <_ZNSt7__cxx1112basic_stringIcSt11char_traitsIcESaIcEEC1ISt17basic_string_viewIcS2_EvEERKT_RKS3_>
 8000e4c:	2301      	movs	r3, #1
 8000e4e:	7623      	strb	r3, [r4, #24]
 8000e50:	9b04      	ldr	r3, [sp, #16]
 8000e52:	f8c4 901c 	str.w	r9, [r4, #28]
 8000e56:	3320      	adds	r3, #32
 8000e58:	9304      	str	r3, [sp, #16]
 8000e5a:	e9dd 4704 	ldrd	r4, r7, [sp, #16]
 8000e5e:	42a7      	cmp	r7, r4
 8000e60:	f8df 91fc 	ldr.w	r9, [pc, #508]	; 8001060 <_Z15cli_parser_initv+0x2ec>
 8000e64:	f000 80b0 	beq.w	8000fc8 <_Z15cli_parser_initv+0x254>
 8000e68:	497e      	ldr	r1, [pc, #504]	; (8001064 <_Z15cli_parser_initv+0x2f0>)
 8000e6a:	a801      	add	r0, sp, #4
 8000e6c:	f7ff ff78 	bl	8000d60 <_ZNSt17basic_string_viewIcSt11char_traitsIcEEC1EPKc>
 8000e70:	466a      	mov	r2, sp
 8000e72:	4620      	mov	r0, r4
 8000e74:	a901      	add	r1, sp, #4
 8000e76:	f7ff fa71 	bl	800035c <_ZNSt7__cxx1112basic_stringIcSt11char_traitsIcESaIcEEC1ISt17basic_string_viewIcS2_EvEERKT_RKS3_>
 8000e7a:	2301      	movs	r3, #1
 8000e7c:	7623      	strb	r3, [r4, #24]
 8000e7e:	9b04      	ldr	r3, [sp, #16]
 8000e80:	f8c4 901c 	str.w	r9, [r4, #28]
 8000e84:	3320      	adds	r3, #32
 8000e86:	9304      	str	r3, [sp, #16]
 8000e88:	4877      	ldr	r0, [pc, #476]	; (8001068 <_Z15cli_parser_initv+0x2f4>)
 8000e8a:	a903      	add	r1, sp, #12
 8000e8c:	f7ff fb4c 	bl	8000528 <_ZN22CommandLineInterpreter12add_commandsERSt6vectorIN3CLI7CommandESaIS2_EE>
 8000e90:	e9dd 4503 	ldrd	r4, r5, [sp, #12]
 8000e94:	42a5      	cmp	r5, r4
 8000e96:	f000 80c8 	beq.w	800102a <_Z15cli_parser_initv+0x2b6>
 8000e9a:	4620      	mov	r0, r4
 8000e9c:	f7ff f9c0 	bl	8000220 <_ZNSt7__cxx1112basic_stringIcSt11char_traitsIcESaIcEE10_M_disposeEv>
 8000ea0:	3420      	adds	r4, #32
 8000ea2:	e7f7      	b.n	8000e94 <_Z15cli_parser_initv+0x120>
 8000ea4:	4a65      	ldr	r2, [pc, #404]	; (800103c <_Z15cli_parser_initv+0x2c8>)
 8000ea6:	2101      	movs	r1, #1
 8000ea8:	a803      	add	r0, sp, #12
 8000eaa:	f7ff fa10 	bl	80002ce <_ZNKSt6vectorIN3CLI7CommandESaIS1_EE12_M_check_lenEjPKc>
 8000eae:	4681      	mov	r9, r0
 8000eb0:	f7ff fe22 	bl	8000af8 <_ZNSt12_Vector_baseIN3CLI7CommandESaIS1_EE11_M_allocateEj.isra.0>
 8000eb4:	4965      	ldr	r1, [pc, #404]	; (800104c <_Z15cli_parser_initv+0x2d8>)
 8000eb6:	4606      	mov	r6, r0
 8000eb8:	4480      	add	r8, r0
 8000eba:	a801      	add	r0, sp, #4
 8000ebc:	f7ff ff50 	bl	8000d60 <_ZNSt17basic_string_viewIcSt11char_traitsIcEEC1EPKc>
 8000ec0:	466a      	mov	r2, sp
 8000ec2:	a901      	add	r1, sp, #4
 8000ec4:	4640      	mov	r0, r8
 8000ec6:	f7ff fa49 	bl	800035c <_ZNSt7__cxx1112basic_stringIcSt11char_traitsIcESaIcEEC1ISt17basic_string_viewIcS2_EvEERKT_RKS3_>
 8000eca:	2301      	movs	r3, #1
 8000ecc:	4632      	mov	r2, r6
 8000ece:	4629      	mov	r1, r5
 8000ed0:	f888 3018 	strb.w	r3, [r8, #24]
 8000ed4:	4620      	mov	r0, r4
 8000ed6:	f8c8 701c 	str.w	r7, [r8, #28]
 8000eda:	f7ff ff0f 	bl	8000cfc <_ZSt14__relocate_a_1IPN3CLI7CommandES2_SaIS1_EET0_T_S5_S4_RT1_.isra.0>
 8000ede:	4629      	mov	r1, r5
 8000ee0:	f100 0220 	add.w	r2, r0, #32
 8000ee4:	4628      	mov	r0, r5
 8000ee6:	f7ff ff09 	bl	8000cfc <_ZSt14__relocate_a_1IPN3CLI7CommandES2_SaIS1_EET0_T_S5_S4_RT1_.isra.0>
 8000eea:	4605      	mov	r5, r0
 8000eec:	9905      	ldr	r1, [sp, #20]
 8000eee:	4620      	mov	r0, r4
 8000ef0:	1b09      	subs	r1, r1, r4
 8000ef2:	1149      	asrs	r1, r1, #5
 8000ef4:	f7ff fe0d 	bl	8000b12 <_ZNSt12_Vector_baseIN3CLI7CommandESaIS1_EE13_M_deallocateEPS1_j.isra.0>
 8000ef8:	e9cd 6503 	strd	r6, r5, [sp, #12]
 8000efc:	eb06 1649 	add.w	r6, r6, r9, lsl #5
 8000f00:	9605      	str	r6, [sp, #20]
 8000f02:	e77d      	b.n	8000e00 <_Z15cli_parser_initv+0x8c>
 8000f04:	4a4d      	ldr	r2, [pc, #308]	; (800103c <_Z15cli_parser_initv+0x2c8>)
 8000f06:	2101      	movs	r1, #1
 8000f08:	a803      	add	r0, sp, #12
 8000f0a:	f7ff f9e0 	bl	80002ce <_ZNKSt6vectorIN3CLI7CommandESaIS1_EE12_M_check_lenEjPKc>
 8000f0e:	9e03      	ldr	r6, [sp, #12]
 8000f10:	4680      	mov	r8, r0
 8000f12:	f7ff fdf1 	bl	8000af8 <_ZNSt12_Vector_baseIN3CLI7CommandESaIS1_EE11_M_allocateEj.isra.0>
 8000f16:	1bbd      	subs	r5, r7, r6
 8000f18:	4405      	add	r5, r0
 8000f1a:	4604      	mov	r4, r0
 8000f1c:	494d      	ldr	r1, [pc, #308]	; (8001054 <_Z15cli_parser_initv+0x2e0>)
 8000f1e:	a801      	add	r0, sp, #4
 8000f20:	f7ff ff1e 	bl	8000d60 <_ZNSt17basic_string_viewIcSt11char_traitsIcEEC1EPKc>
 8000f24:	466a      	mov	r2, sp
 8000f26:	4628      	mov	r0, r5
 8000f28:	a901      	add	r1, sp, #4
 8000f2a:	f7ff fa17 	bl	800035c <_ZNSt7__cxx1112basic_stringIcSt11char_traitsIcESaIcEEC1ISt17basic_string_viewIcS2_EvEERKT_RKS3_>
 8000f2e:	2301      	movs	r3, #1
 8000f30:	4622      	mov	r2, r4
 8000f32:	762b      	strb	r3, [r5, #24]
 8000f34:	4639      	mov	r1, r7
 8000f36:	f8c5 901c 	str.w	r9, [r5, #28]
 8000f3a:	4630      	mov	r0, r6
 8000f3c:	f7ff fede 	bl	8000cfc <_ZSt14__relocate_a_1IPN3CLI7CommandES2_SaIS1_EET0_T_S5_S4_RT1_.isra.0>
 8000f40:	4639      	mov	r1, r7
 8000f42:	f100 0220 	add.w	r2, r0, #32
 8000f46:	4638      	mov	r0, r7
 8000f48:	f7ff fed8 	bl	8000cfc <_ZSt14__relocate_a_1IPN3CLI7CommandES2_SaIS1_EET0_T_S5_S4_RT1_.isra.0>
 8000f4c:	4605      	mov	r5, r0
 8000f4e:	9905      	ldr	r1, [sp, #20]
 8000f50:	4630      	mov	r0, r6
 8000f52:	1b89      	subs	r1, r1, r6
 8000f54:	1149      	asrs	r1, r1, #5
 8000f56:	f7ff fddc 	bl	8000b12 <_ZNSt12_Vector_baseIN3CLI7CommandESaIS1_EE13_M_deallocateEPS1_j.isra.0>
 8000f5a:	e9cd 4503 	strd	r4, r5, [sp, #12]
 8000f5e:	eb04 1448 	add.w	r4, r4, r8, lsl #5
 8000f62:	9405      	str	r4, [sp, #20]
 8000f64:	e762      	b.n	8000e2c <_Z15cli_parser_initv+0xb8>
 8000f66:	4a35      	ldr	r2, [pc, #212]	; (800103c <_Z15cli_parser_initv+0x2c8>)
 8000f68:	2101      	movs	r1, #1
 8000f6a:	a803      	add	r0, sp, #12
 8000f6c:	f7ff f9af 	bl	80002ce <_ZNKSt6vectorIN3CLI7CommandESaIS1_EE12_M_check_lenEjPKc>
 8000f70:	9e03      	ldr	r6, [sp, #12]
 8000f72:	4680      	mov	r8, r0
 8000f74:	f7ff fdc0 	bl	8000af8 <_ZNSt12_Vector_baseIN3CLI7CommandESaIS1_EE11_M_allocateEj.isra.0>
 8000f78:	1bbd      	subs	r5, r7, r6
 8000f7a:	4405      	add	r5, r0
 8000f7c:	4604      	mov	r4, r0
 8000f7e:	4937      	ldr	r1, [pc, #220]	; (800105c <_Z15cli_parser_initv+0x2e8>)
 8000f80:	a801      	add	r0, sp, #4
 8000f82:	f7ff feed 	bl	8000d60 <_ZNSt17basic_string_viewIcSt11char_traitsIcEEC1EPKc>
 8000f86:	466a      	mov	r2, sp
 8000f88:	4628      	mov	r0, r5
 8000f8a:	a901      	add	r1, sp, #4
 8000f8c:	f7ff f9e6 	bl	800035c <_ZNSt7__cxx1112basic_stringIcSt11char_traitsIcESaIcEEC1ISt17basic_string_viewIcS2_EvEERKT_RKS3_>
 8000f90:	2301      	movs	r3, #1
 8000f92:	4622      	mov	r2, r4
 8000f94:	762b      	strb	r3, [r5, #24]
 8000f96:	4639      	mov	r1, r7
 8000f98:	f8c5 901c 	str.w	r9, [r5, #28]
 8000f9c:	4630      	mov	r0, r6
 8000f9e:	f7ff fead 	bl	8000cfc <_ZSt14__relocate_a_1IPN3CLI7CommandES2_SaIS1_EET0_T_S5_S4_RT1_.isra.0>
 8000fa2:	4639      	mov	r1, r7
 8000fa4:	f100 0220 	add.w	r2, r0, #32
 8000fa8:	4638      	mov	r0, r7
 8000faa:	f7ff fea7 	bl	8000cfc <_ZSt14__relocate_a_1IPN3CLI7CommandES2_SaIS1_EET0_T_S5_S4_RT1_.isra.0>
 8000fae:	4605      	mov	r5, r0
 8000fb0:	9905      	ldr	r1, [sp, #20]
 8000fb2:	4630      	mov	r0, r6
 8000fb4:	1b89      	subs	r1, r1, r6
 8000fb6:	1149      	asrs	r1, r1, #5
 8000fb8:	f7ff fdab 	bl	8000b12 <_ZNSt12_Vector_baseIN3CLI7CommandESaIS1_EE13_M_deallocateEPS1_j.isra.0>
 8000fbc:	e9cd 4503 	strd	r4, r5, [sp, #12]
 8000fc0:	eb04 1448 	add.w	r4, r4, r8, lsl #5
 8000fc4:	9405      	str	r4, [sp, #20]
 8000fc6:	e748      	b.n	8000e5a <_Z15cli_parser_initv+0xe6>
 8000fc8:	4a1c      	ldr	r2, [pc, #112]	; (800103c <_Z15cli_parser_initv+0x2c8>)
 8000fca:	2101      	movs	r1, #1
 8000fcc:	a803      	add	r0, sp, #12
 8000fce:	f7ff f97e 	bl	80002ce <_ZNKSt6vectorIN3CLI7CommandESaIS1_EE12_M_check_lenEjPKc>
 8000fd2:	9e03      	ldr	r6, [sp, #12]
 8000fd4:	4680      	mov	r8, r0
 8000fd6:	f7ff fd8f 	bl	8000af8 <_ZNSt12_Vector_baseIN3CLI7CommandESaIS1_EE11_M_allocateEj.isra.0>
 8000fda:	1bbd      	subs	r5, r7, r6
 8000fdc:	4405      	add	r5, r0
 8000fde:	4604      	mov	r4, r0
 8000fe0:	4920      	ldr	r1, [pc, #128]	; (8001064 <_Z15cli_parser_initv+0x2f0>)
 8000fe2:	a801      	add	r0, sp, #4
 8000fe4:	f7ff febc 	bl	8000d60 <_ZNSt17basic_string_viewIcSt11char_traitsIcEEC1EPKc>
 8000fe8:	466a      	mov	r2, sp
 8000fea:	4628      	mov	r0, r5
 8000fec:	a901      	add	r1, sp, #4
 8000fee:	f7ff f9b5 	bl	800035c <_ZNSt7__cxx1112basic_stringIcSt11char_traitsIcESaIcEEC1ISt17basic_string_viewIcS2_EvEERKT_RKS3_>
 8000ff2:	2301      	movs	r3, #1
 8000ff4:	4622      	mov	r2, r4
 8000ff6:	762b      	strb	r3, [r5, #24]
 8000ff8:	4639      	mov	r1, r7
 8000ffa:	f8c5 901c 	str.w	r9, [r5, #28]
 8000ffe:	4630      	mov	r0, r6
 8001000:	f7ff fe7c 	bl	8000cfc <_ZSt14__relocate_a_1IPN3CLI7CommandES2_SaIS1_EET0_T_S5_S4_RT1_.isra.0>
 8001004:	4639      	mov	r1, r7
 8001006:	f100 0220 	add.w	r2, r0, #32
 800100a:	4638      	mov	r0, r7
 800100c:	f7ff fe76 	bl	8000cfc <_ZSt14__relocate_a_1IPN3CLI7CommandES2_SaIS1_EET0_T_S5_S4_RT1_.isra.0>
 8001010:	4605      	mov	r5, r0
 8001012:	9905      	ldr	r1, [sp, #20]
 8001014:	4630      	mov	r0, r6
 8001016:	1b89      	subs	r1, r1, r6
 8001018:	1149      	asrs	r1, r1, #5
 800101a:	f7ff fd7a 	bl	8000b12 <_ZNSt12_Vector_baseIN3CLI7CommandESaIS1_EE13_M_deallocateEPS1_j.isra.0>
 800101e:	e9cd 4503 	strd	r4, r5, [sp, #12]
 8001022:	eb04 1448 	add.w	r4, r4, r8, lsl #5
 8001026:	9405      	str	r4, [sp, #20]
 8001028:	e72e      	b.n	8000e88 <_Z15cli_parser_initv+0x114>
 800102a:	9803      	ldr	r0, [sp, #12]
 800102c:	9905      	ldr	r1, [sp, #20]
 800102e:	1a09      	subs	r1, r1, r0
 8001030:	1149      	asrs	r1, r1, #5
 8001032:	f7ff fd6e 	bl	8000b12 <_ZNSt12_Vector_baseIN3CLI7CommandESaIS1_EE13_M_deallocateEPS1_j.isra.0>
 8001036:	b007      	add	sp, #28
 8001038:	e8bd 83f0 	ldmia.w	sp!, {r4, r5, r6, r7, r8, r9, pc}
 800103c:	08006e06 	.word	0x08006e06
 8001040:	08006f2b 	.word	0x08006f2b
 8001044:	08000b51 	.word	0x08000b51
 8001048:	08000b5d 	.word	0x08000b5d
 800104c:	08006f39 	.word	0x08006f39
 8001050:	08000b69 	.word	0x08000b69
 8001054:	08006f40 	.word	0x08006f40
 8001058:	08000bad 	.word	0x08000bad
 800105c:	08006f48 	.word	0x08006f48
 8001060:	08000b75 	.word	0x08000b75
 8001064:	08006f51 	.word	0x08006f51
 8001068:	200002dc 	.word	0x200002dc

0800106c <main>:
 800106c:	b57f      	push	{r0, r1, r2, r3, r4, r5, r6, lr}
 800106e:	f000 fa79 	bl	8001564 <HAL_Init>
 8001072:	f7ff fdb1 	bl	8000bd8 <_Z18SystemClock_Configv>
 8001076:	f7ff fc95 	bl	80009a4 <MX_GPIO_Init>
 800107a:	f000 f9c9 	bl	8001410 <MX_USART1_UART_Init>
 800107e:	f7ff fceb 	bl	8000a58 <MX_I2C1_Init>
 8001082:	f000 f85f 	bl	8001144 <MX_RTC_Init>
 8001086:	f004 fa11 	bl	80054ac <MX_USB_DEVICE_Init>
 800108a:	481e      	ldr	r0, [pc, #120]	; (8001104 <main+0x98>)
 800108c:	f000 f8f4 	bl	8001278 <sht3x_init>
 8001090:	b910      	cbnz	r0, 8001098 <main+0x2c>
 8001092:	481d      	ldr	r0, [pc, #116]	; (8001108 <main+0x9c>)
 8001094:	f7ff fd42 	bl	8000b1c <_Z5printPKcz>
 8001098:	2040      	movs	r0, #64	; 0x40
 800109a:	f7ff fbbf 	bl	800081c <ringbuf_new>
 800109e:	4b1b      	ldr	r3, [pc, #108]	; (800110c <main+0xa0>)
 80010a0:	6018      	str	r0, [r3, #0]
 80010a2:	f7ff fe67 	bl	8000d74 <_Z15cli_parser_initv>
 80010a6:	2201      	movs	r2, #1
 80010a8:	4919      	ldr	r1, [pc, #100]	; (8001110 <main+0xa4>)
 80010aa:	481a      	ldr	r0, [pc, #104]	; (8001114 <main+0xa8>)
 80010ac:	f002 ff99 	bl	8003fe2 <HAL_UART_Receive_IT>
 80010b0:	aa01      	add	r2, sp, #4
 80010b2:	4615      	mov	r5, r2
 80010b4:	4b18      	ldr	r3, [pc, #96]	; (8001118 <main+0xac>)
 80010b6:	f103 0610 	add.w	r6, r3, #16
 80010ba:	4614      	mov	r4, r2
 80010bc:	6818      	ldr	r0, [r3, #0]
 80010be:	6859      	ldr	r1, [r3, #4]
 80010c0:	3308      	adds	r3, #8
 80010c2:	c403      	stmia	r4!, {r0, r1}
 80010c4:	42b3      	cmp	r3, r6
 80010c6:	4622      	mov	r2, r4
 80010c8:	d1f7      	bne.n	80010ba <main+0x4e>
 80010ca:	8819      	ldrh	r1, [r3, #0]
 80010cc:	789b      	ldrb	r3, [r3, #2]
 80010ce:	8021      	strh	r1, [r4, #0]
 80010d0:	70a3      	strb	r3, [r4, #2]
 80010d2:	4628      	mov	r0, r5
 80010d4:	f7ff f83a 	bl	800014c <strlen>
 80010d8:	4629      	mov	r1, r5
 80010da:	b282      	uxth	r2, r0
 80010dc:	2364      	movs	r3, #100	; 0x64
 80010de:	480d      	ldr	r0, [pc, #52]	; (8001114 <main+0xa8>)
 80010e0:	f002 fd67 	bl	8003bb2 <HAL_UART_Transmit>
 80010e4:	4c0d      	ldr	r4, [pc, #52]	; (800111c <main+0xb0>)
 80010e6:	4d0e      	ldr	r5, [pc, #56]	; (8001120 <main+0xb4>)
 80010e8:	4e0e      	ldr	r6, [pc, #56]	; (8001124 <main+0xb8>)
 80010ea:	7823      	ldrb	r3, [r4, #0]
 80010ec:	b133      	cbz	r3, 80010fc <main+0x90>
 80010ee:	2300      	movs	r3, #0
 80010f0:	4631      	mov	r1, r6
 80010f2:	480d      	ldr	r0, [pc, #52]	; (8001128 <main+0xbc>)
 80010f4:	7023      	strb	r3, [r4, #0]
 80010f6:	802b      	strh	r3, [r5, #0]
 80010f8:	f7ff fd10 	bl	8000b1c <_Z5printPKcz>
 80010fc:	f7ff fdcc 	bl	8000c98 <_Z19cli_process_commandv>
 8001100:	e7f3      	b.n	80010ea <main+0x7e>
 8001102:	bf00      	nop
 8001104:	20000000 	.word	0x20000000
 8001108:	08006f5c 	.word	0x08006f5c
 800110c:	20000318 	.word	0x20000318
 8001110:	2000039d 	.word	0x2000039d
 8001114:	200003b8 	.word	0x200003b8
 8001118:	08006f74 	.word	0x08006f74
 800111c:	2000031c 	.word	0x2000031c
 8001120:	200002d8 	.word	0x200002d8
 8001124:	20000258 	.word	0x20000258
 8001128:	08006f71 	.word	0x08006f71

0800112c <_GLOBAL__sub_I_on_BLE_data_ready>:
 800112c:	2180      	movs	r1, #128	; 0x80
 800112e:	4801      	ldr	r0, [pc, #4]	; (8001134 <_GLOBAL__sub_I_on_BLE_data_ready+0x8>)
 8001130:	f7ff b920 	b.w	8000374 <_ZN22CommandLineInterpreterC1Et>
 8001134:	200002dc 	.word	0x200002dc

08001138 <_GLOBAL__sub_D_on_BLE_data_ready>:
 8001138:	4801      	ldr	r0, [pc, #4]	; (8001140 <_GLOBAL__sub_D_on_BLE_data_ready+0x8>)
 800113a:	f7ff b87d 	b.w	8000238 <_ZN22CommandLineInterpreterD1Ev>
 800113e:	bf00      	nop
 8001140:	200002dc 	.word	0x200002dc

08001144 <MX_RTC_Init>:
 8001144:	b51f      	push	{r0, r1, r2, r3, r4, lr}
 8001146:	f04f 33ff 	mov.w	r3, #4294967295
 800114a:	4821      	ldr	r0, [pc, #132]	; (80011d0 <MX_RTC_Init+0x8c>)
 800114c:	4a21      	ldr	r2, [pc, #132]	; (80011d4 <MX_RTC_Init+0x90>)
 800114e:	2400      	movs	r4, #0
 8001150:	e9c0 2300 	strd	r2, r3, [r0]
 8001154:	f44f 7380 	mov.w	r3, #256	; 0x100
 8001158:	e9cd 4401 	strd	r4, r4, [sp, #4]
 800115c:	f8ad 4000 	strh.w	r4, [sp]
 8001160:	f88d 4002 	strb.w	r4, [sp, #2]
 8001164:	9403      	str	r4, [sp, #12]
 8001166:	6083      	str	r3, [r0, #8]
 8001168:	f002 fbee 	bl	8003948 <HAL_RTC_Init>
 800116c:	b108      	cbz	r0, 8001172 <MX_RTC_Init+0x2e>
 800116e:	f7ff fd91 	bl	8000c94 <Error_Handler>
 8001172:	2201      	movs	r2, #1
 8001174:	4669      	mov	r1, sp
 8001176:	4816      	ldr	r0, [pc, #88]	; (80011d0 <MX_RTC_Init+0x8c>)
 8001178:	f88d 4000 	strb.w	r4, [sp]
 800117c:	f88d 4001 	strb.w	r4, [sp, #1]
 8001180:	f88d 4002 	strb.w	r4, [sp, #2]
 8001184:	f002 f9d7 	bl	8003536 <HAL_RTC_SetTime>
 8001188:	b108      	cbz	r0, 800118e <MX_RTC_Init+0x4a>
 800118a:	f7ff fd83 	bl	8000c94 <Error_Handler>
 800118e:	2201      	movs	r2, #1
 8001190:	2400      	movs	r4, #0
 8001192:	480f      	ldr	r0, [pc, #60]	; (80011d0 <MX_RTC_Init+0x8c>)
 8001194:	a901      	add	r1, sp, #4
 8001196:	f88d 2004 	strb.w	r2, [sp, #4]
 800119a:	f88d 2005 	strb.w	r2, [sp, #5]
 800119e:	f88d 2006 	strb.w	r2, [sp, #6]
 80011a2:	f88d 4007 	strb.w	r4, [sp, #7]
 80011a6:	f002 fad3 	bl	8003750 <HAL_RTC_SetDate>
 80011aa:	b108      	cbz	r0, 80011b0 <MX_RTC_Init+0x6c>
 80011ac:	f7ff fd72 	bl	8000c94 <Error_Handler>
 80011b0:	2201      	movs	r2, #1
 80011b2:	4807      	ldr	r0, [pc, #28]	; (80011d0 <MX_RTC_Init+0x8c>)
 80011b4:	a902      	add	r1, sp, #8
 80011b6:	f8ad 4008 	strh.w	r4, [sp, #8]
 80011ba:	f88d 400a 	strb.w	r4, [sp, #10]
 80011be:	9403      	str	r4, [sp, #12]
 80011c0:	f002 fb1e 	bl	8003800 <HAL_RTC_SetAlarm_IT>
 80011c4:	b108      	cbz	r0, 80011ca <MX_RTC_Init+0x86>
 80011c6:	f7ff fd65 	bl	8000c94 <Error_Handler>
 80011ca:	b004      	add	sp, #16
 80011cc:	bd10      	pop	{r4, pc}
 80011ce:	bf00      	nop
 80011d0:	200003a0 	.word	0x200003a0
 80011d4:	40002800 	.word	0x40002800

080011d8 <HAL_RTC_MspInit>:
 80011d8:	b507      	push	{r0, r1, r2, lr}
 80011da:	4b15      	ldr	r3, [pc, #84]	; (8001230 <HAL_RTC_MspInit+0x58>)
 80011dc:	6802      	ldr	r2, [r0, #0]
 80011de:	429a      	cmp	r2, r3
 80011e0:	d122      	bne.n	8001228 <HAL_RTC_MspInit+0x50>
 80011e2:	f001 fd97 	bl	8002d14 <HAL_PWR_EnableBkUpAccess>
 80011e6:	4b13      	ldr	r3, [pc, #76]	; (8001234 <HAL_RTC_MspInit+0x5c>)
 80011e8:	2003      	movs	r0, #3
 80011ea:	69da      	ldr	r2, [r3, #28]
 80011ec:	f042 6200 	orr.w	r2, r2, #134217728	; 0x8000000
 80011f0:	61da      	str	r2, [r3, #28]
 80011f2:	2201      	movs	r2, #1
 80011f4:	69db      	ldr	r3, [r3, #28]
 80011f6:	f003 6300 	and.w	r3, r3, #134217728	; 0x8000000
 80011fa:	9301      	str	r3, [sp, #4]
 80011fc:	9b01      	ldr	r3, [sp, #4]
 80011fe:	4b0e      	ldr	r3, [pc, #56]	; (8001238 <HAL_RTC_MspInit+0x60>)
 8001200:	f8c3 243c 	str.w	r2, [r3, #1084]	; 0x43c
 8001204:	2200      	movs	r2, #0
 8001206:	4611      	mov	r1, r2
 8001208:	f000 f9f4 	bl	80015f4 <HAL_NVIC_SetPriority>
 800120c:	2003      	movs	r0, #3
 800120e:	f000 fa23 	bl	8001658 <HAL_NVIC_EnableIRQ>
 8001212:	2200      	movs	r2, #0
 8001214:	2029      	movs	r0, #41	; 0x29
 8001216:	4611      	mov	r1, r2
 8001218:	f000 f9ec 	bl	80015f4 <HAL_NVIC_SetPriority>
 800121c:	2029      	movs	r0, #41	; 0x29
 800121e:	b003      	add	sp, #12
 8001220:	f85d eb04 	ldr.w	lr, [sp], #4
 8001224:	f000 ba18 	b.w	8001658 <HAL_NVIC_EnableIRQ>
 8001228:	b003      	add	sp, #12
 800122a:	f85d fb04 	ldr.w	pc, [sp], #4
 800122e:	bf00      	nop
 8001230:	40002800 	.word	0x40002800
 8001234:	40021000 	.word	0x40021000
 8001238:	42420000 	.word	0x42420000

0800123c <calculate_crc.constprop.0>:
 800123c:	7803      	ldrb	r3, [r0, #0]
 800123e:	2208      	movs	r2, #8
 8001240:	43db      	mvns	r3, r3
 8001242:	b2db      	uxtb	r3, r3
 8001244:	b259      	sxtb	r1, r3
 8001246:	2900      	cmp	r1, #0
 8001248:	ea4f 0343 	mov.w	r3, r3, lsl #1
 800124c:	b2db      	uxtb	r3, r3
 800124e:	db0d      	blt.n	800126c <calculate_crc.constprop.0+0x30>
 8001250:	3a01      	subs	r2, #1
 8001252:	d1f7      	bne.n	8001244 <calculate_crc.constprop.0+0x8>
 8001254:	7840      	ldrb	r0, [r0, #1]
 8001256:	4058      	eors	r0, r3
 8001258:	2308      	movs	r3, #8
 800125a:	b242      	sxtb	r2, r0
 800125c:	2a00      	cmp	r2, #0
 800125e:	ea4f 0040 	mov.w	r0, r0, lsl #1
 8001262:	b2c0      	uxtb	r0, r0
 8001264:	db05      	blt.n	8001272 <calculate_crc.constprop.0+0x36>
 8001266:	3b01      	subs	r3, #1
 8001268:	d1f7      	bne.n	800125a <calculate_crc.constprop.0+0x1e>
 800126a:	4770      	bx	lr
 800126c:	f083 0331 	eor.w	r3, r3, #49	; 0x31
 8001270:	e7ee      	b.n	8001250 <calculate_crc.constprop.0+0x14>
 8001272:	f080 0031 	eor.w	r0, r0, #49	; 0x31
 8001276:	e7f6      	b.n	8001266 <calculate_crc.constprop.0+0x2a>

08001278 <sht3x_init>:
 8001278:	b530      	push	{r4, r5, lr}
 800127a:	4603      	mov	r3, r0
 800127c:	6800      	ldr	r0, [r0, #0]
 800127e:	b087      	sub	sp, #28
 8001280:	6a04      	ldr	r4, [r0, #32]
 8001282:	b12c      	cbz	r4, 8001290 <sht3x_init+0x18>
 8001284:	2138      	movs	r1, #56	; 0x38
 8001286:	4b10      	ldr	r3, [pc, #64]	; (80012c8 <sht3x_init+0x50>)
 8001288:	4a10      	ldr	r2, [pc, #64]	; (80012cc <sht3x_init+0x54>)
 800128a:	4811      	ldr	r0, [pc, #68]	; (80012d0 <sht3x_init+0x58>)
 800128c:	f004 fb58 	bl	8005940 <__assert_func>
 8001290:	8899      	ldrh	r1, [r3, #4]
 8001292:	221e      	movs	r2, #30
 8001294:	2303      	movs	r3, #3
 8001296:	0049      	lsls	r1, r1, #1
 8001298:	ad05      	add	r5, sp, #20
 800129a:	e9cd 3201 	strd	r3, r2, [sp, #4]
 800129e:	b289      	uxth	r1, r1
 80012a0:	2302      	movs	r3, #2
 80012a2:	f24f 322d 	movw	r2, #62253	; 0xf32d
 80012a6:	9500      	str	r5, [sp, #0]
 80012a8:	f000 fd64 	bl	8001d74 <HAL_I2C_Mem_Read>
 80012ac:	b948      	cbnz	r0, 80012c2 <sht3x_init+0x4a>
 80012ae:	4628      	mov	r0, r5
 80012b0:	f7ff ffc4 	bl	800123c <calculate_crc.constprop.0>
 80012b4:	f89d 4016 	ldrb.w	r4, [sp, #22]
 80012b8:	1a23      	subs	r3, r4, r0
 80012ba:	4258      	negs	r0, r3
 80012bc:	4158      	adcs	r0, r3
 80012be:	b007      	add	sp, #28
 80012c0:	bd30      	pop	{r4, r5, pc}
 80012c2:	4620      	mov	r0, r4
 80012c4:	e7fb      	b.n	80012be <sht3x_init+0x46>
 80012c6:	bf00      	nop
 80012c8:	08006f87 	.word	0x08006f87
 80012cc:	08006fdb 	.word	0x08006fdb
 80012d0:	08006fc7 	.word	0x08006fc7

080012d4 <HAL_MspInit>:
 80012d4:	4b0e      	ldr	r3, [pc, #56]	; (8001310 <HAL_MspInit+0x3c>)
 80012d6:	b082      	sub	sp, #8
 80012d8:	699a      	ldr	r2, [r3, #24]
 80012da:	f042 0201 	orr.w	r2, r2, #1
 80012de:	619a      	str	r2, [r3, #24]
 80012e0:	699a      	ldr	r2, [r3, #24]
 80012e2:	f002 0201 	and.w	r2, r2, #1
 80012e6:	9200      	str	r2, [sp, #0]
 80012e8:	9a00      	ldr	r2, [sp, #0]
 80012ea:	69da      	ldr	r2, [r3, #28]
 80012ec:	f042 5280 	orr.w	r2, r2, #268435456	; 0x10000000
 80012f0:	61da      	str	r2, [r3, #28]
 80012f2:	69db      	ldr	r3, [r3, #28]
 80012f4:	4a07      	ldr	r2, [pc, #28]	; (8001314 <HAL_MspInit+0x40>)
 80012f6:	f003 5380 	and.w	r3, r3, #268435456	; 0x10000000
 80012fa:	9301      	str	r3, [sp, #4]
 80012fc:	9b01      	ldr	r3, [sp, #4]
 80012fe:	6853      	ldr	r3, [r2, #4]
 8001300:	f023 63e0 	bic.w	r3, r3, #117440512	; 0x7000000
 8001304:	f043 7300 	orr.w	r3, r3, #33554432	; 0x2000000
 8001308:	6053      	str	r3, [r2, #4]
 800130a:	b002      	add	sp, #8
 800130c:	4770      	bx	lr
 800130e:	bf00      	nop
 8001310:	40021000 	.word	0x40021000
 8001314:	40010000 	.word	0x40010000

08001318 <NMI_Handler>:
 8001318:	e7fe      	b.n	8001318 <NMI_Handler>

0800131a <HardFault_Handler>:
 800131a:	e7fe      	b.n	800131a <HardFault_Handler>

0800131c <MemManage_Handler>:
 800131c:	e7fe      	b.n	800131c <MemManage_Handler>

0800131e <BusFault_Handler>:
 800131e:	e7fe      	b.n	800131e <BusFault_Handler>

08001320 <UsageFault_Handler>:
 8001320:	e7fe      	b.n	8001320 <UsageFault_Handler>

08001322 <SVC_Handler>:
 8001322:	4770      	bx	lr

08001324 <DebugMon_Handler>:
 8001324:	4770      	bx	lr

08001326 <PendSV_Handler>:
 8001326:	4770      	bx	lr

08001328 <SysTick_Handler>:
 8001328:	f000 b92e 	b.w	8001588 <HAL_IncTick>

0800132c <RTC_IRQHandler>:
 800132c:	4801      	ldr	r0, [pc, #4]	; (8001334 <RTC_IRQHandler+0x8>)
 800132e:	f002 bb55 	b.w	80039dc <HAL_RTCEx_RTCIRQHandler>
 8001332:	bf00      	nop
 8001334:	200003a0 	.word	0x200003a0

08001338 <USB_LP_CAN1_RX0_IRQHandler>:
 8001338:	4801      	ldr	r0, [pc, #4]	; (8001340 <USB_LP_CAN1_RX0_IRQHandler+0x8>)
 800133a:	f000 beff 	b.w	800213c <HAL_PCD_IRQHandler>
 800133e:	bf00      	nop
 8001340:	200010a4 	.word	0x200010a4

08001344 <USART1_IRQHandler>:
 8001344:	4801      	ldr	r0, [pc, #4]	; (800134c <USART1_IRQHandler+0x8>)
 8001346:	f002 bce1 	b.w	8003d0c <HAL_UART_IRQHandler>
 800134a:	bf00      	nop
 800134c:	200003b8 	.word	0x200003b8

08001350 <RTC_Alarm_IRQHandler>:
 8001350:	4801      	ldr	r0, [pc, #4]	; (8001358 <RTC_Alarm_IRQHandler+0x8>)
 8001352:	f002 bac3 	b.w	80038dc <HAL_RTC_AlarmIRQHandler>
 8001356:	bf00      	nop
 8001358:	200003a0 	.word	0x200003a0

0800135c <_getpid>:
 800135c:	2001      	movs	r0, #1
 800135e:	4770      	bx	lr

08001360 <_kill>:
 8001360:	b508      	push	{r3, lr}
 8001362:	f004 fb0b 	bl	800597c <__errno>
 8001366:	2316      	movs	r3, #22
 8001368:	6003      	str	r3, [r0, #0]
 800136a:	f04f 30ff 	mov.w	r0, #4294967295
 800136e:	bd08      	pop	{r3, pc}

08001370 <_exit>:
 8001370:	b508      	push	{r3, lr}
 8001372:	f004 fb03 	bl	800597c <__errno>
 8001376:	2316      	movs	r3, #22
 8001378:	6003      	str	r3, [r0, #0]
 800137a:	e7fe      	b.n	800137a <_exit+0xa>

0800137c <_read>:
 800137c:	b570      	push	{r4, r5, r6, lr}
 800137e:	460d      	mov	r5, r1
 8001380:	4614      	mov	r4, r2
 8001382:	460e      	mov	r6, r1
 8001384:	1b73      	subs	r3, r6, r5
 8001386:	429c      	cmp	r4, r3
 8001388:	dc01      	bgt.n	800138e <_read+0x12>
 800138a:	4620      	mov	r0, r4
 800138c:	bd70      	pop	{r4, r5, r6, pc}
 800138e:	f3af 8000 	nop.w
 8001392:	f806 0b01 	strb.w	r0, [r6], #1
 8001396:	e7f5      	b.n	8001384 <_read+0x8>

08001398 <_write>:
 8001398:	b570      	push	{r4, r5, r6, lr}
 800139a:	460d      	mov	r5, r1
 800139c:	4614      	mov	r4, r2
 800139e:	460e      	mov	r6, r1
 80013a0:	1b73      	subs	r3, r6, r5
 80013a2:	429c      	cmp	r4, r3
 80013a4:	dc01      	bgt.n	80013aa <_write+0x12>
 80013a6:	4620      	mov	r0, r4
 80013a8:	bd70      	pop	{r4, r5, r6, pc}
 80013aa:	f816 0b01 	ldrb.w	r0, [r6], #1
 80013ae:	f3af 8000 	nop.w
 80013b2:	e7f5      	b.n	80013a0 <_write+0x8>

080013b4 <_close>:
 80013b4:	f04f 30ff 	mov.w	r0, #4294967295
 80013b8:	4770      	bx	lr

080013ba <_fstat>:
 80013ba:	f44f 5300 	mov.w	r3, #8192	; 0x2000
 80013be:	2000      	movs	r0, #0
 80013c0:	604b      	str	r3, [r1, #4]
 80013c2:	4770      	bx	lr

080013c4 <_isatty>:
 80013c4:	2001      	movs	r0, #1
 80013c6:	4770      	bx	lr

080013c8 <_lseek>:
 80013c8:	2000      	movs	r0, #0
 80013ca:	4770      	bx	lr

080013cc <_sbrk>:
 80013cc:	4a0b      	ldr	r2, [pc, #44]	; (80013fc <_sbrk+0x30>)
 80013ce:	4603      	mov	r3, r0
 80013d0:	6811      	ldr	r1, [r2, #0]
 80013d2:	b510      	push	{r4, lr}
 80013d4:	b909      	cbnz	r1, 80013da <_sbrk+0xe>
 80013d6:	490a      	ldr	r1, [pc, #40]	; (8001400 <_sbrk+0x34>)
 80013d8:	6011      	str	r1, [r2, #0]
 80013da:	6810      	ldr	r0, [r2, #0]
 80013dc:	4909      	ldr	r1, [pc, #36]	; (8001404 <_sbrk+0x38>)
 80013de:	4c0a      	ldr	r4, [pc, #40]	; (8001408 <_sbrk+0x3c>)
 80013e0:	4403      	add	r3, r0
 80013e2:	1b09      	subs	r1, r1, r4
 80013e4:	428b      	cmp	r3, r1
 80013e6:	d906      	bls.n	80013f6 <_sbrk+0x2a>
 80013e8:	f004 fac8 	bl	800597c <__errno>
 80013ec:	230c      	movs	r3, #12
 80013ee:	6003      	str	r3, [r0, #0]
 80013f0:	f04f 30ff 	mov.w	r0, #4294967295
 80013f4:	bd10      	pop	{r4, pc}
 80013f6:	6013      	str	r3, [r2, #0]
 80013f8:	e7fc      	b.n	80013f4 <_sbrk+0x28>
 80013fa:	bf00      	nop
 80013fc:	200003b4 	.word	0x200003b4
 8001400:	200015c8 	.word	0x200015c8
 8001404:	20005000 	.word	0x20005000
 8001408:	00000400 	.word	0x00000400

0800140c <SystemInit>:
 800140c:	4770      	bx	lr
	...

08001410 <MX_USART1_UART_Init>:
 8001410:	b508      	push	{r3, lr}
 8001412:	f44f 5316 	mov.w	r3, #9600	; 0x2580
 8001416:	480a      	ldr	r0, [pc, #40]	; (8001440 <MX_USART1_UART_Init+0x30>)
 8001418:	4a0a      	ldr	r2, [pc, #40]	; (8001444 <MX_USART1_UART_Init+0x34>)
 800141a:	e9c0 2300 	strd	r2, r3, [r0]
 800141e:	2300      	movs	r3, #0
 8001420:	220c      	movs	r2, #12
 8001422:	e9c0 3302 	strd	r3, r3, [r0, #8]
 8001426:	e9c0 2305 	strd	r2, r3, [r0, #20]
 800142a:	6103      	str	r3, [r0, #16]
 800142c:	61c3      	str	r3, [r0, #28]
 800142e:	f002 fb91 	bl	8003b54 <HAL_UART_Init>
 8001432:	b118      	cbz	r0, 800143c <MX_USART1_UART_Init+0x2c>
 8001434:	e8bd 4008 	ldmia.w	sp!, {r3, lr}
 8001438:	f7ff bc2c 	b.w	8000c94 <Error_Handler>
 800143c:	bd08      	pop	{r3, pc}
 800143e:	bf00      	nop
 8001440:	200003b8 	.word	0x200003b8
 8001444:	40013800 	.word	0x40013800

08001448 <HAL_UART_MspInit>:
 8001448:	b510      	push	{r4, lr}
 800144a:	4604      	mov	r4, r0
 800144c:	b086      	sub	sp, #24
 800144e:	2210      	movs	r2, #16
 8001450:	2100      	movs	r1, #0
 8001452:	a802      	add	r0, sp, #8
 8001454:	f004 fafc 	bl	8005a50 <memset>
 8001458:	6822      	ldr	r2, [r4, #0]
 800145a:	4b1b      	ldr	r3, [pc, #108]	; (80014c8 <HAL_UART_MspInit+0x80>)
 800145c:	429a      	cmp	r2, r3
 800145e:	d130      	bne.n	80014c2 <HAL_UART_MspInit+0x7a>
 8001460:	f503 4358 	add.w	r3, r3, #55296	; 0xd800
 8001464:	699a      	ldr	r2, [r3, #24]
 8001466:	4819      	ldr	r0, [pc, #100]	; (80014cc <HAL_UART_MspInit+0x84>)
 8001468:	f442 4280 	orr.w	r2, r2, #16384	; 0x4000
 800146c:	619a      	str	r2, [r3, #24]
 800146e:	699a      	ldr	r2, [r3, #24]
 8001470:	a902      	add	r1, sp, #8
 8001472:	f402 4280 	and.w	r2, r2, #16384	; 0x4000
 8001476:	9200      	str	r2, [sp, #0]
 8001478:	9a00      	ldr	r2, [sp, #0]
 800147a:	699a      	ldr	r2, [r3, #24]
 800147c:	2400      	movs	r4, #0
 800147e:	f042 0204 	orr.w	r2, r2, #4
 8001482:	619a      	str	r2, [r3, #24]
 8001484:	699b      	ldr	r3, [r3, #24]
 8001486:	f44f 7200 	mov.w	r2, #512	; 0x200
 800148a:	f003 0304 	and.w	r3, r3, #4
 800148e:	9301      	str	r3, [sp, #4]
 8001490:	9b01      	ldr	r3, [sp, #4]
 8001492:	2302      	movs	r3, #2
 8001494:	e9cd 2302 	strd	r2, r3, [sp, #8]
 8001498:	2303      	movs	r3, #3
 800149a:	9305      	str	r3, [sp, #20]
 800149c:	f000 f968 	bl	8001770 <HAL_GPIO_Init>
 80014a0:	f44f 6380 	mov.w	r3, #1024	; 0x400
 80014a4:	4809      	ldr	r0, [pc, #36]	; (80014cc <HAL_UART_MspInit+0x84>)
 80014a6:	a902      	add	r1, sp, #8
 80014a8:	e9cd 3402 	strd	r3, r4, [sp, #8]
 80014ac:	9404      	str	r4, [sp, #16]
 80014ae:	f000 f95f 	bl	8001770 <HAL_GPIO_Init>
 80014b2:	2025      	movs	r0, #37	; 0x25
 80014b4:	4622      	mov	r2, r4
 80014b6:	4621      	mov	r1, r4
 80014b8:	f000 f89c 	bl	80015f4 <HAL_NVIC_SetPriority>
 80014bc:	2025      	movs	r0, #37	; 0x25
 80014be:	f000 f8cb 	bl	8001658 <HAL_NVIC_EnableIRQ>
 80014c2:	b006      	add	sp, #24
 80014c4:	bd10      	pop	{r4, pc}
 80014c6:	bf00      	nop
 80014c8:	40013800 	.word	0x40013800
 80014cc:	40010800 	.word	0x40010800

080014d0 <Reset_Handler>:
 80014d0:	f7ff ff9c 	bl	800140c <SystemInit>
 80014d4:	480b      	ldr	r0, [pc, #44]	; (8001504 <LoopFillZerobss+0xe>)
 80014d6:	490c      	ldr	r1, [pc, #48]	; (8001508 <LoopFillZerobss+0x12>)
 80014d8:	4a0c      	ldr	r2, [pc, #48]	; (800150c <LoopFillZerobss+0x16>)
 80014da:	2300      	movs	r3, #0
 80014dc:	e002      	b.n	80014e4 <LoopCopyDataInit>

080014de <CopyDataInit>:
 80014de:	58d4      	ldr	r4, [r2, r3]
 80014e0:	50c4      	str	r4, [r0, r3]
 80014e2:	3304      	adds	r3, #4

080014e4 <LoopCopyDataInit>:
 80014e4:	18c4      	adds	r4, r0, r3
 80014e6:	428c      	cmp	r4, r1
 80014e8:	d3f9      	bcc.n	80014de <CopyDataInit>
 80014ea:	4a09      	ldr	r2, [pc, #36]	; (8001510 <LoopFillZerobss+0x1a>)
 80014ec:	4c09      	ldr	r4, [pc, #36]	; (8001514 <LoopFillZerobss+0x1e>)
 80014ee:	2300      	movs	r3, #0
 80014f0:	e001      	b.n	80014f6 <LoopFillZerobss>

080014f2 <FillZerobss>:
 80014f2:	6013      	str	r3, [r2, #0]
 80014f4:	3204      	adds	r2, #4

080014f6 <LoopFillZerobss>:
 80014f6:	42a2      	cmp	r2, r4
 80014f8:	d3fb      	bcc.n	80014f2 <FillZerobss>
 80014fa:	f004 fa57 	bl	80059ac <__libc_init_array>
 80014fe:	f7ff fdb5 	bl	800106c <main>
 8001502:	4770      	bx	lr
 8001504:	20000000 	.word	0x20000000
 8001508:	200001e8 	.word	0x200001e8
 800150c:	0800714c 	.word	0x0800714c
 8001510:	200001e8 	.word	0x200001e8
 8001514:	200015c8 	.word	0x200015c8

08001518 <ADC1_2_IRQHandler>:
 8001518:	e7fe      	b.n	8001518 <ADC1_2_IRQHandler>
	...

0800151c <HAL_InitTick>:
 800151c:	b538      	push	{r3, r4, r5, lr}
 800151e:	4b0e      	ldr	r3, [pc, #56]	; (8001558 <HAL_InitTick+0x3c>)
 8001520:	4605      	mov	r5, r0
 8001522:	7818      	ldrb	r0, [r3, #0]
 8001524:	f44f 737a 	mov.w	r3, #1000	; 0x3e8
 8001528:	fbb3 f3f0 	udiv	r3, r3, r0
 800152c:	4a0b      	ldr	r2, [pc, #44]	; (800155c <HAL_InitTick+0x40>)
 800152e:	6810      	ldr	r0, [r2, #0]
 8001530:	fbb0 f0f3 	udiv	r0, r0, r3
 8001534:	f000 f89e 	bl	8001674 <HAL_SYSTICK_Config>
 8001538:	4604      	mov	r4, r0
 800153a:	b958      	cbnz	r0, 8001554 <HAL_InitTick+0x38>
 800153c:	2d0f      	cmp	r5, #15
 800153e:	d809      	bhi.n	8001554 <HAL_InitTick+0x38>
 8001540:	4602      	mov	r2, r0
 8001542:	4629      	mov	r1, r5
 8001544:	f04f 30ff 	mov.w	r0, #4294967295
 8001548:	f000 f854 	bl	80015f4 <HAL_NVIC_SetPriority>
 800154c:	4620      	mov	r0, r4
 800154e:	4b04      	ldr	r3, [pc, #16]	; (8001560 <HAL_InitTick+0x44>)
 8001550:	601d      	str	r5, [r3, #0]
 8001552:	bd38      	pop	{r3, r4, r5, pc}
 8001554:	2001      	movs	r0, #1
 8001556:	e7fc      	b.n	8001552 <HAL_InitTick+0x36>
 8001558:	2000000c 	.word	0x2000000c
 800155c:	20000008 	.word	0x20000008
 8001560:	20000010 	.word	0x20000010

08001564 <HAL_Init>:
 8001564:	4a07      	ldr	r2, [pc, #28]	; (8001584 <HAL_Init+0x20>)
 8001566:	b508      	push	{r3, lr}
 8001568:	6813      	ldr	r3, [r2, #0]
 800156a:	2003      	movs	r0, #3
 800156c:	f043 0310 	orr.w	r3, r3, #16
 8001570:	6013      	str	r3, [r2, #0]
 8001572:	f000 f82d 	bl	80015d0 <HAL_NVIC_SetPriorityGrouping>
 8001576:	200f      	movs	r0, #15
 8001578:	f7ff ffd0 	bl	800151c <HAL_InitTick>
 800157c:	f7ff feaa 	bl	80012d4 <HAL_MspInit>
 8001580:	2000      	movs	r0, #0
 8001582:	bd08      	pop	{r3, pc}
 8001584:	40022000 	.word	0x40022000

08001588 <HAL_IncTick>:
 8001588:	4a03      	ldr	r2, [pc, #12]	; (8001598 <HAL_IncTick+0x10>)
 800158a:	4b04      	ldr	r3, [pc, #16]	; (800159c <HAL_IncTick+0x14>)
 800158c:	6811      	ldr	r1, [r2, #0]
 800158e:	781b      	ldrb	r3, [r3, #0]
 8001590:	440b      	add	r3, r1
 8001592:	6013      	str	r3, [r2, #0]
 8001594:	4770      	bx	lr
 8001596:	bf00      	nop
 8001598:	20000400 	.word	0x20000400
 800159c:	2000000c 	.word	0x2000000c

080015a0 <HAL_GetTick>:
 80015a0:	4b01      	ldr	r3, [pc, #4]	; (80015a8 <HAL_GetTick+0x8>)
 80015a2:	6818      	ldr	r0, [r3, #0]
 80015a4:	4770      	bx	lr
 80015a6:	bf00      	nop
 80015a8:	20000400 	.word	0x20000400

080015ac <HAL_Delay>:
 80015ac:	b538      	push	{r3, r4, r5, lr}
 80015ae:	4604      	mov	r4, r0
 80015b0:	f7ff fff6 	bl	80015a0 <HAL_GetTick>
 80015b4:	4605      	mov	r5, r0
 80015b6:	1c63      	adds	r3, r4, #1
 80015b8:	bf1e      	ittt	ne
 80015ba:	4b04      	ldrne	r3, [pc, #16]	; (80015cc <HAL_Delay+0x20>)
 80015bc:	781b      	ldrbne	r3, [r3, #0]
 80015be:	18e4      	addne	r4, r4, r3
 80015c0:	f7ff ffee 	bl	80015a0 <HAL_GetTick>
 80015c4:	1b43      	subs	r3, r0, r5
 80015c6:	42a3      	cmp	r3, r4
 80015c8:	d3fa      	bcc.n	80015c0 <HAL_Delay+0x14>
 80015ca:	bd38      	pop	{r3, r4, r5, pc}
 80015cc:	2000000c 	.word	0x2000000c

080015d0 <HAL_NVIC_SetPriorityGrouping>:
 80015d0:	4907      	ldr	r1, [pc, #28]	; (80015f0 <HAL_NVIC_SetPriorityGrouping+0x20>)
 80015d2:	0203      	lsls	r3, r0, #8
 80015d4:	68ca      	ldr	r2, [r1, #12]
 80015d6:	f403 63e0 	and.w	r3, r3, #1792	; 0x700
 80015da:	f422 62e0 	bic.w	r2, r2, #1792	; 0x700
 80015de:	0412      	lsls	r2, r2, #16
 80015e0:	0c12      	lsrs	r2, r2, #16
 80015e2:	4313      	orrs	r3, r2
 80015e4:	f043 63bf 	orr.w	r3, r3, #100139008	; 0x5f80000
 80015e8:	f443 3300 	orr.w	r3, r3, #131072	; 0x20000
 80015ec:	60cb      	str	r3, [r1, #12]
 80015ee:	4770      	bx	lr
 80015f0:	e000ed00 	.word	0xe000ed00

080015f4 <HAL_NVIC_SetPriority>:
 80015f4:	4b16      	ldr	r3, [pc, #88]	; (8001650 <HAL_NVIC_SetPriority+0x5c>)
 80015f6:	b530      	push	{r4, r5, lr}
 80015f8:	68dc      	ldr	r4, [r3, #12]
 80015fa:	f3c4 2402 	ubfx	r4, r4, #8, #3
 80015fe:	f1c4 0307 	rsb	r3, r4, #7
 8001602:	1d25      	adds	r5, r4, #4
 8001604:	2b04      	cmp	r3, #4
 8001606:	bf28      	it	cs
 8001608:	2304      	movcs	r3, #4
 800160a:	2d06      	cmp	r5, #6
 800160c:	f04f 35ff 	mov.w	r5, #4294967295
 8001610:	bf98      	it	ls
 8001612:	2400      	movls	r4, #0
 8001614:	fa05 f303 	lsl.w	r3, r5, r3
 8001618:	bf88      	it	hi
 800161a:	3c03      	subhi	r4, #3
 800161c:	ea21 0303 	bic.w	r3, r1, r3
 8001620:	40a3      	lsls	r3, r4
 8001622:	fa05 f404 	lsl.w	r4, r5, r4
 8001626:	ea22 0204 	bic.w	r2, r2, r4
 800162a:	2800      	cmp	r0, #0
 800162c:	ea43 0302 	orr.w	r3, r3, r2
 8001630:	bfac      	ite	ge
 8001632:	f100 4060 	addge.w	r0, r0, #3758096384	; 0xe0000000
 8001636:	4a07      	ldrlt	r2, [pc, #28]	; (8001654 <HAL_NVIC_SetPriority+0x60>)
 8001638:	ea4f 1303 	mov.w	r3, r3, lsl #4
 800163c:	b2db      	uxtb	r3, r3
 800163e:	bfab      	itete	ge
 8001640:	f500 4061 	addge.w	r0, r0, #57600	; 0xe100
 8001644:	f000 000f 	andlt.w	r0, r0, #15
 8001648:	f880 3300 	strbge.w	r3, [r0, #768]	; 0x300
 800164c:	5413      	strblt	r3, [r2, r0]
 800164e:	bd30      	pop	{r4, r5, pc}
 8001650:	e000ed00 	.word	0xe000ed00
 8001654:	e000ed14 	.word	0xe000ed14

08001658 <HAL_NVIC_EnableIRQ>:
 8001658:	2800      	cmp	r0, #0
 800165a:	db08      	blt.n	800166e <HAL_NVIC_EnableIRQ+0x16>
 800165c:	2301      	movs	r3, #1
 800165e:	0942      	lsrs	r2, r0, #5
 8001660:	f000 001f 	and.w	r0, r0, #31
 8001664:	fa03 f000 	lsl.w	r0, r3, r0
 8001668:	4b01      	ldr	r3, [pc, #4]	; (8001670 <HAL_NVIC_EnableIRQ+0x18>)
 800166a:	f843 0022 	str.w	r0, [r3, r2, lsl #2]
 800166e:	4770      	bx	lr
 8001670:	e000e100 	.word	0xe000e100

08001674 <HAL_SYSTICK_Config>:
 8001674:	3801      	subs	r0, #1
 8001676:	f1b0 7f80 	cmp.w	r0, #16777216	; 0x1000000
 800167a:	d20b      	bcs.n	8001694 <HAL_SYSTICK_Config+0x20>
 800167c:	f04f 23e0 	mov.w	r3, #3758153728	; 0xe000e000
 8001680:	21f0      	movs	r1, #240	; 0xf0
 8001682:	4a05      	ldr	r2, [pc, #20]	; (8001698 <HAL_SYSTICK_Config+0x24>)
 8001684:	6158      	str	r0, [r3, #20]
 8001686:	f882 1023 	strb.w	r1, [r2, #35]	; 0x23
 800168a:	2000      	movs	r0, #0
 800168c:	2207      	movs	r2, #7
 800168e:	6198      	str	r0, [r3, #24]
 8001690:	611a      	str	r2, [r3, #16]
 8001692:	4770      	bx	lr
 8001694:	2001      	movs	r0, #1
 8001696:	4770      	bx	lr
 8001698:	e000ed00 	.word	0xe000ed00

0800169c <HAL_DMA_Abort>:
 800169c:	f890 3021 	ldrb.w	r3, [r0, #33]	; 0x21
 80016a0:	2b02      	cmp	r3, #2
 80016a2:	d006      	beq.n	80016b2 <HAL_DMA_Abort+0x16>
 80016a4:	2304      	movs	r3, #4
 80016a6:	6383      	str	r3, [r0, #56]	; 0x38
 80016a8:	2300      	movs	r3, #0
 80016aa:	f880 3020 	strb.w	r3, [r0, #32]
 80016ae:	2001      	movs	r0, #1
 80016b0:	4770      	bx	lr
 80016b2:	6803      	ldr	r3, [r0, #0]
 80016b4:	6bc1      	ldr	r1, [r0, #60]	; 0x3c
 80016b6:	681a      	ldr	r2, [r3, #0]
 80016b8:	f022 020e 	bic.w	r2, r2, #14
 80016bc:	601a      	str	r2, [r3, #0]
 80016be:	681a      	ldr	r2, [r3, #0]
 80016c0:	f022 0201 	bic.w	r2, r2, #1
 80016c4:	601a      	str	r2, [r3, #0]
 80016c6:	2201      	movs	r2, #1
 80016c8:	6c03      	ldr	r3, [r0, #64]	; 0x40
 80016ca:	fa02 f303 	lsl.w	r3, r2, r3
 80016ce:	604b      	str	r3, [r1, #4]
 80016d0:	2300      	movs	r3, #0
 80016d2:	f880 2021 	strb.w	r2, [r0, #33]	; 0x21
 80016d6:	f880 3020 	strb.w	r3, [r0, #32]
 80016da:	4618      	mov	r0, r3
 80016dc:	4770      	bx	lr
	...

080016e0 <HAL_DMA_Abort_IT>:
 80016e0:	b510      	push	{r4, lr}
 80016e2:	f890 3021 	ldrb.w	r3, [r0, #33]	; 0x21
 80016e6:	2b02      	cmp	r3, #2
 80016e8:	d003      	beq.n	80016f2 <HAL_DMA_Abort_IT+0x12>
 80016ea:	2304      	movs	r3, #4
 80016ec:	6383      	str	r3, [r0, #56]	; 0x38
 80016ee:	2001      	movs	r0, #1
 80016f0:	bd10      	pop	{r4, pc}
 80016f2:	6803      	ldr	r3, [r0, #0]
 80016f4:	681a      	ldr	r2, [r3, #0]
 80016f6:	f022 020e 	bic.w	r2, r2, #14
 80016fa:	601a      	str	r2, [r3, #0]
 80016fc:	681a      	ldr	r2, [r3, #0]
 80016fe:	f022 0201 	bic.w	r2, r2, #1
 8001702:	601a      	str	r2, [r3, #0]
 8001704:	4a18      	ldr	r2, [pc, #96]	; (8001768 <HAL_DMA_Abort_IT+0x88>)
 8001706:	4293      	cmp	r3, r2
 8001708:	d01f      	beq.n	800174a <HAL_DMA_Abort_IT+0x6a>
 800170a:	3214      	adds	r2, #20
 800170c:	4293      	cmp	r3, r2
 800170e:	d01e      	beq.n	800174e <HAL_DMA_Abort_IT+0x6e>
 8001710:	3214      	adds	r2, #20
 8001712:	4293      	cmp	r3, r2
 8001714:	d01d      	beq.n	8001752 <HAL_DMA_Abort_IT+0x72>
 8001716:	3214      	adds	r2, #20
 8001718:	4293      	cmp	r3, r2
 800171a:	d01d      	beq.n	8001758 <HAL_DMA_Abort_IT+0x78>
 800171c:	3214      	adds	r2, #20
 800171e:	4293      	cmp	r3, r2
 8001720:	d01d      	beq.n	800175e <HAL_DMA_Abort_IT+0x7e>
 8001722:	3214      	adds	r2, #20
 8001724:	4293      	cmp	r3, r2
 8001726:	bf0c      	ite	eq
 8001728:	f44f 1380 	moveq.w	r3, #1048576	; 0x100000
 800172c:	f04f 7380 	movne.w	r3, #16777216	; 0x1000000
 8001730:	4a0e      	ldr	r2, [pc, #56]	; (800176c <HAL_DMA_Abort_IT+0x8c>)
 8001732:	2400      	movs	r4, #0
 8001734:	6053      	str	r3, [r2, #4]
 8001736:	2301      	movs	r3, #1
 8001738:	f880 3021 	strb.w	r3, [r0, #33]	; 0x21
 800173c:	6b43      	ldr	r3, [r0, #52]	; 0x34
 800173e:	f880 4020 	strb.w	r4, [r0, #32]
 8001742:	b17b      	cbz	r3, 8001764 <HAL_DMA_Abort_IT+0x84>
 8001744:	4798      	blx	r3
 8001746:	4620      	mov	r0, r4
 8001748:	e7d2      	b.n	80016f0 <HAL_DMA_Abort_IT+0x10>
 800174a:	2301      	movs	r3, #1
 800174c:	e7f0      	b.n	8001730 <HAL_DMA_Abort_IT+0x50>
 800174e:	2310      	movs	r3, #16
 8001750:	e7ee      	b.n	8001730 <HAL_DMA_Abort_IT+0x50>
 8001752:	f44f 7380 	mov.w	r3, #256	; 0x100
 8001756:	e7eb      	b.n	8001730 <HAL_DMA_Abort_IT+0x50>
 8001758:	f44f 5380 	mov.w	r3, #4096	; 0x1000
 800175c:	e7e8      	b.n	8001730 <HAL_DMA_Abort_IT+0x50>
 800175e:	f44f 3380 	mov.w	r3, #65536	; 0x10000
 8001762:	e7e5      	b.n	8001730 <HAL_DMA_Abort_IT+0x50>
 8001764:	4618      	mov	r0, r3
 8001766:	e7c3      	b.n	80016f0 <HAL_DMA_Abort_IT+0x10>
 8001768:	40020008 	.word	0x40020008
 800176c:	40020000 	.word	0x40020000

08001770 <HAL_GPIO_Init>:
 8001770:	e92d 4ff7 	stmdb	sp!, {r0, r1, r2, r4, r5, r6, r7, r8, r9, sl, fp, lr}
 8001774:	2200      	movs	r2, #0
 8001776:	4616      	mov	r6, r2
 8001778:	4f64      	ldr	r7, [pc, #400]	; (800190c <HAL_GPIO_Init+0x19c>)
 800177a:	4b65      	ldr	r3, [pc, #404]	; (8001910 <HAL_GPIO_Init+0x1a0>)
 800177c:	f8df c194 	ldr.w	ip, [pc, #404]	; 8001914 <HAL_GPIO_Init+0x1a4>
 8001780:	f8df e194 	ldr.w	lr, [pc, #404]	; 8001918 <HAL_GPIO_Init+0x1a8>
 8001784:	680d      	ldr	r5, [r1, #0]
 8001786:	fa35 f406 	lsrs.w	r4, r5, r6
 800178a:	d102      	bne.n	8001792 <HAL_GPIO_Init+0x22>
 800178c:	b003      	add	sp, #12
 800178e:	e8bd 8ff0 	ldmia.w	sp!, {r4, r5, r6, r7, r8, r9, sl, fp, pc}
 8001792:	f04f 0801 	mov.w	r8, #1
 8001796:	fa08 f806 	lsl.w	r8, r8, r6
 800179a:	ea05 0408 	and.w	r4, r5, r8
 800179e:	ea38 0505 	bics.w	r5, r8, r5
 80017a2:	d17b      	bne.n	800189c <HAL_GPIO_Init+0x12c>
 80017a4:	684d      	ldr	r5, [r1, #4]
 80017a6:	2d03      	cmp	r5, #3
 80017a8:	d807      	bhi.n	80017ba <HAL_GPIO_Init+0x4a>
 80017aa:	3d01      	subs	r5, #1
 80017ac:	2d02      	cmp	r5, #2
 80017ae:	f200 8088 	bhi.w	80018c2 <HAL_GPIO_Init+0x152>
 80017b2:	e8df f005 	tbb	[pc, r5]
 80017b6:	9b96      	.short	0x9b96
 80017b8:	a1          	.byte	0xa1
 80017b9:	00          	.byte	0x00
 80017ba:	2d12      	cmp	r5, #18
 80017bc:	f000 8099 	beq.w	80018f2 <HAL_GPIO_Init+0x182>
 80017c0:	d86e      	bhi.n	80018a0 <HAL_GPIO_Init+0x130>
 80017c2:	2d11      	cmp	r5, #17
 80017c4:	f000 808f 	beq.w	80018e6 <HAL_GPIO_Init+0x176>
 80017c8:	2cff      	cmp	r4, #255	; 0xff
 80017ca:	bf98      	it	ls
 80017cc:	4682      	movls	sl, r0
 80017ce:	f04f 090f 	mov.w	r9, #15
 80017d2:	bf88      	it	hi
 80017d4:	f100 0a04 	addhi.w	sl, r0, #4
 80017d8:	ea4f 0586 	mov.w	r5, r6, lsl #2
 80017dc:	f8da 8000 	ldr.w	r8, [sl]
 80017e0:	bf88      	it	hi
 80017e2:	3d20      	subhi	r5, #32
 80017e4:	fa09 fb05 	lsl.w	fp, r9, r5
 80017e8:	ea28 080b 	bic.w	r8, r8, fp
 80017ec:	fa02 f505 	lsl.w	r5, r2, r5
 80017f0:	ea48 0505 	orr.w	r5, r8, r5
 80017f4:	f8ca 5000 	str.w	r5, [sl]
 80017f8:	f8d1 a004 	ldr.w	sl, [r1, #4]
 80017fc:	f01a 5f80 	tst.w	sl, #268435456	; 0x10000000
 8001800:	d04c      	beq.n	800189c <HAL_GPIO_Init+0x12c>
 8001802:	69bd      	ldr	r5, [r7, #24]
 8001804:	f026 0803 	bic.w	r8, r6, #3
 8001808:	f045 0501 	orr.w	r5, r5, #1
 800180c:	61bd      	str	r5, [r7, #24]
 800180e:	69bd      	ldr	r5, [r7, #24]
 8001810:	f108 4880 	add.w	r8, r8, #1073741824	; 0x40000000
 8001814:	f005 0501 	and.w	r5, r5, #1
 8001818:	9501      	str	r5, [sp, #4]
 800181a:	f508 3880 	add.w	r8, r8, #65536	; 0x10000
 800181e:	f006 0b03 	and.w	fp, r6, #3
 8001822:	9d01      	ldr	r5, [sp, #4]
 8001824:	ea4f 0b8b 	mov.w	fp, fp, lsl #2
 8001828:	f8d8 5008 	ldr.w	r5, [r8, #8]
 800182c:	fa09 f90b 	lsl.w	r9, r9, fp
 8001830:	ea25 0909 	bic.w	r9, r5, r9
 8001834:	4d39      	ldr	r5, [pc, #228]	; (800191c <HAL_GPIO_Init+0x1ac>)
 8001836:	42a8      	cmp	r0, r5
 8001838:	d062      	beq.n	8001900 <HAL_GPIO_Init+0x190>
 800183a:	f505 6580 	add.w	r5, r5, #1024	; 0x400
 800183e:	42a8      	cmp	r0, r5
 8001840:	d060      	beq.n	8001904 <HAL_GPIO_Init+0x194>
 8001842:	f505 6580 	add.w	r5, r5, #1024	; 0x400
 8001846:	42a8      	cmp	r0, r5
 8001848:	d05e      	beq.n	8001908 <HAL_GPIO_Init+0x198>
 800184a:	f505 6580 	add.w	r5, r5, #1024	; 0x400
 800184e:	42a8      	cmp	r0, r5
 8001850:	bf0c      	ite	eq
 8001852:	2503      	moveq	r5, #3
 8001854:	2504      	movne	r5, #4
 8001856:	fa05 f50b 	lsl.w	r5, r5, fp
 800185a:	ea45 0509 	orr.w	r5, r5, r9
 800185e:	f8c8 5008 	str.w	r5, [r8, #8]
 8001862:	689d      	ldr	r5, [r3, #8]
 8001864:	f41a 1f80 	tst.w	sl, #1048576	; 0x100000
 8001868:	bf14      	ite	ne
 800186a:	4325      	orrne	r5, r4
 800186c:	43a5      	biceq	r5, r4
 800186e:	609d      	str	r5, [r3, #8]
 8001870:	68dd      	ldr	r5, [r3, #12]
 8001872:	f41a 1f00 	tst.w	sl, #2097152	; 0x200000
 8001876:	bf14      	ite	ne
 8001878:	4325      	orrne	r5, r4
 800187a:	43a5      	biceq	r5, r4
 800187c:	60dd      	str	r5, [r3, #12]
 800187e:	685d      	ldr	r5, [r3, #4]
 8001880:	f41a 3f00 	tst.w	sl, #131072	; 0x20000
 8001884:	bf14      	ite	ne
 8001886:	4325      	orrne	r5, r4
 8001888:	43a5      	biceq	r5, r4
 800188a:	605d      	str	r5, [r3, #4]
 800188c:	681d      	ldr	r5, [r3, #0]
 800188e:	f41a 3f80 	tst.w	sl, #65536	; 0x10000
 8001892:	bf14      	ite	ne
 8001894:	432c      	orrne	r4, r5
 8001896:	ea25 0404 	biceq.w	r4, r5, r4
 800189a:	601c      	str	r4, [r3, #0]
 800189c:	3601      	adds	r6, #1
 800189e:	e771      	b.n	8001784 <HAL_GPIO_Init+0x14>
 80018a0:	f8df 907c 	ldr.w	r9, [pc, #124]	; 8001920 <HAL_GPIO_Init+0x1b0>
 80018a4:	454d      	cmp	r5, r9
 80018a6:	d00c      	beq.n	80018c2 <HAL_GPIO_Init+0x152>
 80018a8:	d817      	bhi.n	80018da <HAL_GPIO_Init+0x16a>
 80018aa:	f5a9 1980 	sub.w	r9, r9, #1048576	; 0x100000
 80018ae:	454d      	cmp	r5, r9
 80018b0:	d007      	beq.n	80018c2 <HAL_GPIO_Init+0x152>
 80018b2:	f509 2970 	add.w	r9, r9, #983040	; 0xf0000
 80018b6:	454d      	cmp	r5, r9
 80018b8:	d003      	beq.n	80018c2 <HAL_GPIO_Init+0x152>
 80018ba:	f5a9 1980 	sub.w	r9, r9, #1048576	; 0x100000
 80018be:	454d      	cmp	r5, r9
 80018c0:	d182      	bne.n	80017c8 <HAL_GPIO_Init+0x58>
 80018c2:	688a      	ldr	r2, [r1, #8]
 80018c4:	b1d2      	cbz	r2, 80018fc <HAL_GPIO_Init+0x18c>
 80018c6:	2a01      	cmp	r2, #1
 80018c8:	bf08      	it	eq
 80018ca:	f8c0 8010 	streq.w	r8, [r0, #16]
 80018ce:	f04f 0208 	mov.w	r2, #8
 80018d2:	bf18      	it	ne
 80018d4:	f8c0 8014 	strne.w	r8, [r0, #20]
 80018d8:	e776      	b.n	80017c8 <HAL_GPIO_Init+0x58>
 80018da:	4565      	cmp	r5, ip
 80018dc:	d0f1      	beq.n	80018c2 <HAL_GPIO_Init+0x152>
 80018de:	4575      	cmp	r5, lr
 80018e0:	e7ee      	b.n	80018c0 <HAL_GPIO_Init+0x150>
 80018e2:	68ca      	ldr	r2, [r1, #12]
 80018e4:	e770      	b.n	80017c8 <HAL_GPIO_Init+0x58>
 80018e6:	68ca      	ldr	r2, [r1, #12]
 80018e8:	3204      	adds	r2, #4
 80018ea:	e76d      	b.n	80017c8 <HAL_GPIO_Init+0x58>
 80018ec:	68ca      	ldr	r2, [r1, #12]
 80018ee:	3208      	adds	r2, #8
 80018f0:	e76a      	b.n	80017c8 <HAL_GPIO_Init+0x58>
 80018f2:	68ca      	ldr	r2, [r1, #12]
 80018f4:	320c      	adds	r2, #12
 80018f6:	e767      	b.n	80017c8 <HAL_GPIO_Init+0x58>
 80018f8:	2200      	movs	r2, #0
 80018fa:	e765      	b.n	80017c8 <HAL_GPIO_Init+0x58>
 80018fc:	2204      	movs	r2, #4
 80018fe:	e763      	b.n	80017c8 <HAL_GPIO_Init+0x58>
 8001900:	2500      	movs	r5, #0
 8001902:	e7a8      	b.n	8001856 <HAL_GPIO_Init+0xe6>
 8001904:	2501      	movs	r5, #1
 8001906:	e7a6      	b.n	8001856 <HAL_GPIO_Init+0xe6>
 8001908:	2502      	movs	r5, #2
 800190a:	e7a4      	b.n	8001856 <HAL_GPIO_Init+0xe6>
 800190c:	40021000 	.word	0x40021000
 8001910:	40010400 	.word	0x40010400
 8001914:	10310000 	.word	0x10310000
 8001918:	10320000 	.word	0x10320000
 800191c:	40010800 	.word	0x40010800
 8001920:	10220000 	.word	0x10220000

08001924 <HAL_GPIO_WritePin>:
 8001924:	b10a      	cbz	r2, 800192a <HAL_GPIO_WritePin+0x6>
 8001926:	6101      	str	r1, [r0, #16]
 8001928:	4770      	bx	lr
 800192a:	0409      	lsls	r1, r1, #16
 800192c:	e7fb      	b.n	8001926 <HAL_GPIO_WritePin+0x2>

0800192e <I2C_IsAcknowledgeFailed>:
 800192e:	6801      	ldr	r1, [r0, #0]
 8001930:	2200      	movs	r2, #0
 8001932:	694b      	ldr	r3, [r1, #20]
 8001934:	f413 6380 	ands.w	r3, r3, #1024	; 0x400
 8001938:	d010      	beq.n	800195c <I2C_IsAcknowledgeFailed+0x2e>
 800193a:	f46f 6380 	mvn.w	r3, #1024	; 0x400
 800193e:	614b      	str	r3, [r1, #20]
 8001940:	2320      	movs	r3, #32
 8001942:	6302      	str	r2, [r0, #48]	; 0x30
 8001944:	f880 303d 	strb.w	r3, [r0, #61]	; 0x3d
 8001948:	f880 203e 	strb.w	r2, [r0, #62]	; 0x3e
 800194c:	6c03      	ldr	r3, [r0, #64]	; 0x40
 800194e:	f880 203c 	strb.w	r2, [r0, #60]	; 0x3c
 8001952:	f043 0304 	orr.w	r3, r3, #4
 8001956:	6403      	str	r3, [r0, #64]	; 0x40
 8001958:	2001      	movs	r0, #1
 800195a:	4770      	bx	lr
 800195c:	4618      	mov	r0, r3
 800195e:	4770      	bx	lr

08001960 <I2C_WaitOnFlagUntilTimeout>:
 8001960:	e92d 46f8 	stmdb	sp!, {r3, r4, r5, r6, r7, r9, sl, lr}
 8001964:	4606      	mov	r6, r0
 8001966:	460f      	mov	r7, r1
 8001968:	4691      	mov	r9, r2
 800196a:	461d      	mov	r5, r3
 800196c:	ea4f 4a11 	mov.w	sl, r1, lsr #16
 8001970:	6833      	ldr	r3, [r6, #0]
 8001972:	f1ba 0f01 	cmp.w	sl, #1
 8001976:	bf0c      	ite	eq
 8001978:	695c      	ldreq	r4, [r3, #20]
 800197a:	699c      	ldrne	r4, [r3, #24]
 800197c:	ea27 0404 	bic.w	r4, r7, r4
 8001980:	b2a4      	uxth	r4, r4
 8001982:	fab4 f484 	clz	r4, r4
 8001986:	0964      	lsrs	r4, r4, #5
 8001988:	45a1      	cmp	r9, r4
 800198a:	d001      	beq.n	8001990 <I2C_WaitOnFlagUntilTimeout+0x30>
 800198c:	2000      	movs	r0, #0
 800198e:	e025      	b.n	80019dc <I2C_WaitOnFlagUntilTimeout+0x7c>
 8001990:	1c6a      	adds	r2, r5, #1
 8001992:	d0ee      	beq.n	8001972 <I2C_WaitOnFlagUntilTimeout+0x12>
 8001994:	f7ff fe04 	bl	80015a0 <HAL_GetTick>
 8001998:	9b08      	ldr	r3, [sp, #32]
 800199a:	1ac0      	subs	r0, r0, r3
 800199c:	42a8      	cmp	r0, r5
 800199e:	d801      	bhi.n	80019a4 <I2C_WaitOnFlagUntilTimeout+0x44>
 80019a0:	2d00      	cmp	r5, #0
 80019a2:	d1e5      	bne.n	8001970 <I2C_WaitOnFlagUntilTimeout+0x10>
 80019a4:	6833      	ldr	r3, [r6, #0]
 80019a6:	f1ba 0f01 	cmp.w	sl, #1
 80019aa:	bf0c      	ite	eq
 80019ac:	695b      	ldreq	r3, [r3, #20]
 80019ae:	699b      	ldrne	r3, [r3, #24]
 80019b0:	ea27 0303 	bic.w	r3, r7, r3
 80019b4:	b29b      	uxth	r3, r3
 80019b6:	fab3 f383 	clz	r3, r3
 80019ba:	095b      	lsrs	r3, r3, #5
 80019bc:	4599      	cmp	r9, r3
 80019be:	d1d7      	bne.n	8001970 <I2C_WaitOnFlagUntilTimeout+0x10>
 80019c0:	2300      	movs	r3, #0
 80019c2:	2220      	movs	r2, #32
 80019c4:	2001      	movs	r0, #1
 80019c6:	6333      	str	r3, [r6, #48]	; 0x30
 80019c8:	f886 203d 	strb.w	r2, [r6, #61]	; 0x3d
 80019cc:	f886 303e 	strb.w	r3, [r6, #62]	; 0x3e
 80019d0:	6c32      	ldr	r2, [r6, #64]	; 0x40
 80019d2:	f886 303c 	strb.w	r3, [r6, #60]	; 0x3c
 80019d6:	f042 0220 	orr.w	r2, r2, #32
 80019da:	6432      	str	r2, [r6, #64]	; 0x40
 80019dc:	e8bd 86f8 	ldmia.w	sp!, {r3, r4, r5, r6, r7, r9, sl, pc}

080019e0 <I2C_WaitOnMasterAddressFlagUntilTimeout>:
 80019e0:	e92d 41f0 	stmdb	sp!, {r4, r5, r6, r7, r8, lr}
 80019e4:	4604      	mov	r4, r0
 80019e6:	460f      	mov	r7, r1
 80019e8:	4616      	mov	r6, r2
 80019ea:	4698      	mov	r8, r3
 80019ec:	6825      	ldr	r5, [r4, #0]
 80019ee:	6968      	ldr	r0, [r5, #20]
 80019f0:	ea27 0000 	bic.w	r0, r7, r0
 80019f4:	b280      	uxth	r0, r0
 80019f6:	b1b8      	cbz	r0, 8001a28 <I2C_WaitOnMasterAddressFlagUntilTimeout+0x48>
 80019f8:	696b      	ldr	r3, [r5, #20]
 80019fa:	055a      	lsls	r2, r3, #21
 80019fc:	d516      	bpl.n	8001a2c <I2C_WaitOnMasterAddressFlagUntilTimeout+0x4c>
 80019fe:	682b      	ldr	r3, [r5, #0]
 8001a00:	2220      	movs	r2, #32
 8001a02:	f443 7300 	orr.w	r3, r3, #512	; 0x200
 8001a06:	602b      	str	r3, [r5, #0]
 8001a08:	f46f 6380 	mvn.w	r3, #1024	; 0x400
 8001a0c:	616b      	str	r3, [r5, #20]
 8001a0e:	2300      	movs	r3, #0
 8001a10:	6323      	str	r3, [r4, #48]	; 0x30
 8001a12:	f884 203d 	strb.w	r2, [r4, #61]	; 0x3d
 8001a16:	f884 303e 	strb.w	r3, [r4, #62]	; 0x3e
 8001a1a:	6c22      	ldr	r2, [r4, #64]	; 0x40
 8001a1c:	f042 0204 	orr.w	r2, r2, #4
 8001a20:	2001      	movs	r0, #1
 8001a22:	6422      	str	r2, [r4, #64]	; 0x40
 8001a24:	f884 303c 	strb.w	r3, [r4, #60]	; 0x3c
 8001a28:	e8bd 81f0 	ldmia.w	sp!, {r4, r5, r6, r7, r8, pc}
 8001a2c:	1c73      	adds	r3, r6, #1
 8001a2e:	d0de      	beq.n	80019ee <I2C_WaitOnMasterAddressFlagUntilTimeout+0xe>
 8001a30:	f7ff fdb6 	bl	80015a0 <HAL_GetTick>
 8001a34:	eba0 0008 	sub.w	r0, r0, r8
 8001a38:	42b0      	cmp	r0, r6
 8001a3a:	d801      	bhi.n	8001a40 <I2C_WaitOnMasterAddressFlagUntilTimeout+0x60>
 8001a3c:	2e00      	cmp	r6, #0
 8001a3e:	d1d5      	bne.n	80019ec <I2C_WaitOnMasterAddressFlagUntilTimeout+0xc>
 8001a40:	6823      	ldr	r3, [r4, #0]
 8001a42:	695a      	ldr	r2, [r3, #20]
 8001a44:	ea27 0202 	bic.w	r2, r7, r2
 8001a48:	b292      	uxth	r2, r2
 8001a4a:	2a00      	cmp	r2, #0
 8001a4c:	d0ce      	beq.n	80019ec <I2C_WaitOnMasterAddressFlagUntilTimeout+0xc>
 8001a4e:	2300      	movs	r3, #0
 8001a50:	2220      	movs	r2, #32
 8001a52:	6323      	str	r3, [r4, #48]	; 0x30
 8001a54:	f884 203d 	strb.w	r2, [r4, #61]	; 0x3d
 8001a58:	f884 303e 	strb.w	r3, [r4, #62]	; 0x3e
 8001a5c:	6c22      	ldr	r2, [r4, #64]	; 0x40
 8001a5e:	f042 0220 	orr.w	r2, r2, #32
 8001a62:	e7dd      	b.n	8001a20 <I2C_WaitOnMasterAddressFlagUntilTimeout+0x40>

08001a64 <I2C_WaitOnTXEFlagUntilTimeout>:
 8001a64:	b570      	push	{r4, r5, r6, lr}
 8001a66:	4604      	mov	r4, r0
 8001a68:	460d      	mov	r5, r1
 8001a6a:	4616      	mov	r6, r2
 8001a6c:	6823      	ldr	r3, [r4, #0]
 8001a6e:	695b      	ldr	r3, [r3, #20]
 8001a70:	061b      	lsls	r3, r3, #24
 8001a72:	d501      	bpl.n	8001a78 <I2C_WaitOnTXEFlagUntilTimeout+0x14>
 8001a74:	2000      	movs	r0, #0
 8001a76:	bd70      	pop	{r4, r5, r6, pc}
 8001a78:	4620      	mov	r0, r4
 8001a7a:	f7ff ff58 	bl	800192e <I2C_IsAcknowledgeFailed>
 8001a7e:	b9c8      	cbnz	r0, 8001ab4 <I2C_WaitOnTXEFlagUntilTimeout+0x50>
 8001a80:	1c6a      	adds	r2, r5, #1
 8001a82:	d0f3      	beq.n	8001a6c <I2C_WaitOnTXEFlagUntilTimeout+0x8>
 8001a84:	f7ff fd8c 	bl	80015a0 <HAL_GetTick>
 8001a88:	1b80      	subs	r0, r0, r6
 8001a8a:	42a8      	cmp	r0, r5
 8001a8c:	d801      	bhi.n	8001a92 <I2C_WaitOnTXEFlagUntilTimeout+0x2e>
 8001a8e:	2d00      	cmp	r5, #0
 8001a90:	d1ec      	bne.n	8001a6c <I2C_WaitOnTXEFlagUntilTimeout+0x8>
 8001a92:	6823      	ldr	r3, [r4, #0]
 8001a94:	695b      	ldr	r3, [r3, #20]
 8001a96:	f013 0380 	ands.w	r3, r3, #128	; 0x80
 8001a9a:	d1e7      	bne.n	8001a6c <I2C_WaitOnTXEFlagUntilTimeout+0x8>
 8001a9c:	2220      	movs	r2, #32
 8001a9e:	6323      	str	r3, [r4, #48]	; 0x30
 8001aa0:	f884 203d 	strb.w	r2, [r4, #61]	; 0x3d
 8001aa4:	f884 303e 	strb.w	r3, [r4, #62]	; 0x3e
 8001aa8:	6c22      	ldr	r2, [r4, #64]	; 0x40
 8001aaa:	f884 303c 	strb.w	r3, [r4, #60]	; 0x3c
 8001aae:	f042 0220 	orr.w	r2, r2, #32
 8001ab2:	6422      	str	r2, [r4, #64]	; 0x40
 8001ab4:	2001      	movs	r0, #1
 8001ab6:	e7de      	b.n	8001a76 <I2C_WaitOnTXEFlagUntilTimeout+0x12>

08001ab8 <I2C_RequestMemoryRead>:
 8001ab8:	e92d 47ff 	stmdb	sp!, {r0, r1, r2, r3, r4, r5, r6, r7, r8, r9, sl, lr}
 8001abc:	469a      	mov	sl, r3
 8001abe:	e9dd 780c 	ldrd	r7, r8, [sp, #48]	; 0x30
 8001ac2:	6803      	ldr	r3, [r0, #0]
 8001ac4:	4615      	mov	r5, r2
 8001ac6:	681a      	ldr	r2, [r3, #0]
 8001ac8:	460e      	mov	r6, r1
 8001aca:	f442 6280 	orr.w	r2, r2, #1024	; 0x400
 8001ace:	601a      	str	r2, [r3, #0]
 8001ad0:	681a      	ldr	r2, [r3, #0]
 8001ad2:	f04f 1101 	mov.w	r1, #65537	; 0x10001
 8001ad6:	f442 7280 	orr.w	r2, r2, #256	; 0x100
 8001ada:	601a      	str	r2, [r3, #0]
 8001adc:	463b      	mov	r3, r7
 8001ade:	2200      	movs	r2, #0
 8001ae0:	f8cd 8000 	str.w	r8, [sp]
 8001ae4:	4604      	mov	r4, r0
 8001ae6:	f7ff ff3b 	bl	8001960 <I2C_WaitOnFlagUntilTimeout>
 8001aea:	6823      	ldr	r3, [r4, #0]
 8001aec:	b148      	cbz	r0, 8001b02 <I2C_RequestMemoryRead+0x4a>
 8001aee:	681b      	ldr	r3, [r3, #0]
 8001af0:	05db      	lsls	r3, r3, #23
 8001af2:	d502      	bpl.n	8001afa <I2C_RequestMemoryRead+0x42>
 8001af4:	f44f 7300 	mov.w	r3, #512	; 0x200
 8001af8:	6423      	str	r3, [r4, #64]	; 0x40
 8001afa:	2003      	movs	r0, #3
 8001afc:	b004      	add	sp, #16
 8001afe:	e8bd 87f0 	ldmia.w	sp!, {r4, r5, r6, r7, r8, r9, sl, pc}
 8001b02:	fa5f f986 	uxtb.w	r9, r6
 8001b06:	f006 06fe 	and.w	r6, r6, #254	; 0xfe
 8001b0a:	611e      	str	r6, [r3, #16]
 8001b0c:	463a      	mov	r2, r7
 8001b0e:	4643      	mov	r3, r8
 8001b10:	4620      	mov	r0, r4
 8001b12:	4929      	ldr	r1, [pc, #164]	; (8001bb8 <I2C_RequestMemoryRead+0x100>)
 8001b14:	f7ff ff64 	bl	80019e0 <I2C_WaitOnMasterAddressFlagUntilTimeout>
 8001b18:	b108      	cbz	r0, 8001b1e <I2C_RequestMemoryRead+0x66>
 8001b1a:	2001      	movs	r0, #1
 8001b1c:	e7ee      	b.n	8001afc <I2C_RequestMemoryRead+0x44>
 8001b1e:	6823      	ldr	r3, [r4, #0]
 8001b20:	9003      	str	r0, [sp, #12]
 8001b22:	695a      	ldr	r2, [r3, #20]
 8001b24:	4639      	mov	r1, r7
 8001b26:	9203      	str	r2, [sp, #12]
 8001b28:	699b      	ldr	r3, [r3, #24]
 8001b2a:	4642      	mov	r2, r8
 8001b2c:	9303      	str	r3, [sp, #12]
 8001b2e:	4620      	mov	r0, r4
 8001b30:	9b03      	ldr	r3, [sp, #12]
 8001b32:	f7ff ff97 	bl	8001a64 <I2C_WaitOnTXEFlagUntilTimeout>
 8001b36:	b140      	cbz	r0, 8001b4a <I2C_RequestMemoryRead+0x92>
 8001b38:	6c23      	ldr	r3, [r4, #64]	; 0x40
 8001b3a:	2b04      	cmp	r3, #4
 8001b3c:	bf01      	itttt	eq
 8001b3e:	6822      	ldreq	r2, [r4, #0]
 8001b40:	6813      	ldreq	r3, [r2, #0]
 8001b42:	f443 7300 	orreq.w	r3, r3, #512	; 0x200
 8001b46:	6013      	streq	r3, [r2, #0]
 8001b48:	e7e7      	b.n	8001b1a <I2C_RequestMemoryRead+0x62>
 8001b4a:	f1ba 0f01 	cmp.w	sl, #1
 8001b4e:	6823      	ldr	r3, [r4, #0]
 8001b50:	d11a      	bne.n	8001b88 <I2C_RequestMemoryRead+0xd0>
 8001b52:	b2ed      	uxtb	r5, r5
 8001b54:	4642      	mov	r2, r8
 8001b56:	4639      	mov	r1, r7
 8001b58:	4620      	mov	r0, r4
 8001b5a:	611d      	str	r5, [r3, #16]
 8001b5c:	f7ff ff82 	bl	8001a64 <I2C_WaitOnTXEFlagUntilTimeout>
 8001b60:	4602      	mov	r2, r0
 8001b62:	2800      	cmp	r0, #0
 8001b64:	d1e8      	bne.n	8001b38 <I2C_RequestMemoryRead+0x80>
 8001b66:	6821      	ldr	r1, [r4, #0]
 8001b68:	4620      	mov	r0, r4
 8001b6a:	680b      	ldr	r3, [r1, #0]
 8001b6c:	f443 7380 	orr.w	r3, r3, #256	; 0x100
 8001b70:	600b      	str	r3, [r1, #0]
 8001b72:	463b      	mov	r3, r7
 8001b74:	f04f 1101 	mov.w	r1, #65537	; 0x10001
 8001b78:	f8cd 8000 	str.w	r8, [sp]
 8001b7c:	f7ff fef0 	bl	8001960 <I2C_WaitOnFlagUntilTimeout>
 8001b80:	6822      	ldr	r2, [r4, #0]
 8001b82:	b160      	cbz	r0, 8001b9e <I2C_RequestMemoryRead+0xe6>
 8001b84:	6813      	ldr	r3, [r2, #0]
 8001b86:	e7b3      	b.n	8001af0 <I2C_RequestMemoryRead+0x38>
 8001b88:	0a2a      	lsrs	r2, r5, #8
 8001b8a:	611a      	str	r2, [r3, #16]
 8001b8c:	4639      	mov	r1, r7
 8001b8e:	4642      	mov	r2, r8
 8001b90:	4620      	mov	r0, r4
 8001b92:	f7ff ff67 	bl	8001a64 <I2C_WaitOnTXEFlagUntilTimeout>
 8001b96:	2800      	cmp	r0, #0
 8001b98:	d1ce      	bne.n	8001b38 <I2C_RequestMemoryRead+0x80>
 8001b9a:	6823      	ldr	r3, [r4, #0]
 8001b9c:	e7d9      	b.n	8001b52 <I2C_RequestMemoryRead+0x9a>
 8001b9e:	f049 0301 	orr.w	r3, r9, #1
 8001ba2:	6113      	str	r3, [r2, #16]
 8001ba4:	4620      	mov	r0, r4
 8001ba6:	4643      	mov	r3, r8
 8001ba8:	463a      	mov	r2, r7
 8001baa:	4903      	ldr	r1, [pc, #12]	; (8001bb8 <I2C_RequestMemoryRead+0x100>)
 8001bac:	f7ff ff18 	bl	80019e0 <I2C_WaitOnMasterAddressFlagUntilTimeout>
 8001bb0:	3800      	subs	r0, #0
 8001bb2:	bf18      	it	ne
 8001bb4:	2001      	movne	r0, #1
 8001bb6:	e7a1      	b.n	8001afc <I2C_RequestMemoryRead+0x44>
 8001bb8:	00010002 	.word	0x00010002

08001bbc <I2C_WaitOnRXNEFlagUntilTimeout>:
 8001bbc:	b570      	push	{r4, r5, r6, lr}
 8001bbe:	4604      	mov	r4, r0
 8001bc0:	460d      	mov	r5, r1
 8001bc2:	4616      	mov	r6, r2
 8001bc4:	6821      	ldr	r1, [r4, #0]
 8001bc6:	694b      	ldr	r3, [r1, #20]
 8001bc8:	f013 0340 	ands.w	r3, r3, #64	; 0x40
 8001bcc:	d001      	beq.n	8001bd2 <I2C_WaitOnRXNEFlagUntilTimeout+0x16>
 8001bce:	2000      	movs	r0, #0
 8001bd0:	e010      	b.n	8001bf4 <I2C_WaitOnRXNEFlagUntilTimeout+0x38>
 8001bd2:	694a      	ldr	r2, [r1, #20]
 8001bd4:	06d2      	lsls	r2, r2, #27
 8001bd6:	d50e      	bpl.n	8001bf6 <I2C_WaitOnRXNEFlagUntilTimeout+0x3a>
 8001bd8:	f06f 0210 	mvn.w	r2, #16
 8001bdc:	614a      	str	r2, [r1, #20]
 8001bde:	2220      	movs	r2, #32
 8001be0:	6323      	str	r3, [r4, #48]	; 0x30
 8001be2:	f884 203d 	strb.w	r2, [r4, #61]	; 0x3d
 8001be6:	f884 303e 	strb.w	r3, [r4, #62]	; 0x3e
 8001bea:	6c22      	ldr	r2, [r4, #64]	; 0x40
 8001bec:	2001      	movs	r0, #1
 8001bee:	6422      	str	r2, [r4, #64]	; 0x40
 8001bf0:	f884 303c 	strb.w	r3, [r4, #60]	; 0x3c
 8001bf4:	bd70      	pop	{r4, r5, r6, pc}
 8001bf6:	f7ff fcd3 	bl	80015a0 <HAL_GetTick>
 8001bfa:	1b80      	subs	r0, r0, r6
 8001bfc:	42a8      	cmp	r0, r5
 8001bfe:	d801      	bhi.n	8001c04 <I2C_WaitOnRXNEFlagUntilTimeout+0x48>
 8001c00:	2d00      	cmp	r5, #0
 8001c02:	d1df      	bne.n	8001bc4 <I2C_WaitOnRXNEFlagUntilTimeout+0x8>
 8001c04:	6823      	ldr	r3, [r4, #0]
 8001c06:	695b      	ldr	r3, [r3, #20]
 8001c08:	f013 0340 	ands.w	r3, r3, #64	; 0x40
 8001c0c:	d1da      	bne.n	8001bc4 <I2C_WaitOnRXNEFlagUntilTimeout+0x8>
 8001c0e:	2220      	movs	r2, #32
 8001c10:	6323      	str	r3, [r4, #48]	; 0x30
 8001c12:	f884 203d 	strb.w	r2, [r4, #61]	; 0x3d
 8001c16:	f884 303e 	strb.w	r3, [r4, #62]	; 0x3e
 8001c1a:	6c22      	ldr	r2, [r4, #64]	; 0x40
 8001c1c:	f042 0220 	orr.w	r2, r2, #32
 8001c20:	e7e4      	b.n	8001bec <I2C_WaitOnRXNEFlagUntilTimeout+0x30>
	...

08001c24 <HAL_I2C_Init>:
 8001c24:	b570      	push	{r4, r5, r6, lr}
 8001c26:	4604      	mov	r4, r0
 8001c28:	b908      	cbnz	r0, 8001c2e <HAL_I2C_Init+0xa>
 8001c2a:	2001      	movs	r0, #1
 8001c2c:	bd70      	pop	{r4, r5, r6, pc}
 8001c2e:	f890 303d 	ldrb.w	r3, [r0, #61]	; 0x3d
 8001c32:	f003 02ff 	and.w	r2, r3, #255	; 0xff
 8001c36:	b91b      	cbnz	r3, 8001c40 <HAL_I2C_Init+0x1c>
 8001c38:	f880 203c 	strb.w	r2, [r0, #60]	; 0x3c
 8001c3c:	f7fe ff2a 	bl	8000a94 <HAL_I2C_MspInit>
 8001c40:	2324      	movs	r3, #36	; 0x24
 8001c42:	f884 303d 	strb.w	r3, [r4, #61]	; 0x3d
 8001c46:	6823      	ldr	r3, [r4, #0]
 8001c48:	681a      	ldr	r2, [r3, #0]
 8001c4a:	f022 0201 	bic.w	r2, r2, #1
 8001c4e:	601a      	str	r2, [r3, #0]
 8001c50:	681a      	ldr	r2, [r3, #0]
 8001c52:	f442 4200 	orr.w	r2, r2, #32768	; 0x8000
 8001c56:	601a      	str	r2, [r3, #0]
 8001c58:	681a      	ldr	r2, [r3, #0]
 8001c5a:	f422 4200 	bic.w	r2, r2, #32768	; 0x8000
 8001c5e:	601a      	str	r2, [r3, #0]
 8001c60:	f001 fabc 	bl	80031dc <HAL_RCC_GetPCLK1Freq>
 8001c64:	4a3f      	ldr	r2, [pc, #252]	; (8001d64 <HAL_I2C_Init+0x140>)
 8001c66:	6863      	ldr	r3, [r4, #4]
 8001c68:	4293      	cmp	r3, r2
 8001c6a:	bf94      	ite	ls
 8001c6c:	4a3e      	ldrls	r2, [pc, #248]	; (8001d68 <HAL_I2C_Init+0x144>)
 8001c6e:	4a3f      	ldrhi	r2, [pc, #252]	; (8001d6c <HAL_I2C_Init+0x148>)
 8001c70:	4290      	cmp	r0, r2
 8001c72:	bf8c      	ite	hi
 8001c74:	2200      	movhi	r2, #0
 8001c76:	2201      	movls	r2, #1
 8001c78:	2a00      	cmp	r2, #0
 8001c7a:	d1d6      	bne.n	8001c2a <HAL_I2C_Init+0x6>
 8001c7c:	4e39      	ldr	r6, [pc, #228]	; (8001d64 <HAL_I2C_Init+0x140>)
 8001c7e:	493c      	ldr	r1, [pc, #240]	; (8001d70 <HAL_I2C_Init+0x14c>)
 8001c80:	42b3      	cmp	r3, r6
 8001c82:	fbb0 f1f1 	udiv	r1, r0, r1
 8001c86:	bf88      	it	hi
 8001c88:	f44f 7696 	movhi.w	r6, #300	; 0x12c
 8001c8c:	6822      	ldr	r2, [r4, #0]
 8001c8e:	f100 30ff 	add.w	r0, r0, #4294967295
 8001c92:	6855      	ldr	r5, [r2, #4]
 8001c94:	f025 053f 	bic.w	r5, r5, #63	; 0x3f
 8001c98:	ea45 0501 	orr.w	r5, r5, r1
 8001c9c:	bf82      	ittt	hi
 8001c9e:	4371      	mulhi	r1, r6
 8001ca0:	f44f 767a 	movhi.w	r6, #1000	; 0x3e8
 8001ca4:	fbb1 f1f6 	udivhi	r1, r1, r6
 8001ca8:	6055      	str	r5, [r2, #4]
 8001caa:	6a15      	ldr	r5, [r2, #32]
 8001cac:	3101      	adds	r1, #1
 8001cae:	f025 053f 	bic.w	r5, r5, #63	; 0x3f
 8001cb2:	4329      	orrs	r1, r5
 8001cb4:	6211      	str	r1, [r2, #32]
 8001cb6:	69d1      	ldr	r1, [r2, #28]
 8001cb8:	4d2a      	ldr	r5, [pc, #168]	; (8001d64 <HAL_I2C_Init+0x140>)
 8001cba:	f421 414f 	bic.w	r1, r1, #52992	; 0xcf00
 8001cbe:	42ab      	cmp	r3, r5
 8001cc0:	f021 01ff 	bic.w	r1, r1, #255	; 0xff
 8001cc4:	d832      	bhi.n	8001d2c <HAL_I2C_Init+0x108>
 8001cc6:	005b      	lsls	r3, r3, #1
 8001cc8:	fbb0 f0f3 	udiv	r0, r0, r3
 8001ccc:	1c43      	adds	r3, r0, #1
 8001cce:	f640 70fc 	movw	r0, #4092	; 0xffc
 8001cd2:	4203      	tst	r3, r0
 8001cd4:	d042      	beq.n	8001d5c <HAL_I2C_Init+0x138>
 8001cd6:	f3c3 030b 	ubfx	r3, r3, #0, #12
 8001cda:	430b      	orrs	r3, r1
 8001cdc:	61d3      	str	r3, [r2, #28]
 8001cde:	6811      	ldr	r1, [r2, #0]
 8001ce0:	e9d4 3007 	ldrd	r3, r0, [r4, #28]
 8001ce4:	f021 01c0 	bic.w	r1, r1, #192	; 0xc0
 8001ce8:	4303      	orrs	r3, r0
 8001cea:	430b      	orrs	r3, r1
 8001cec:	6013      	str	r3, [r2, #0]
 8001cee:	6891      	ldr	r1, [r2, #8]
 8001cf0:	e9d4 0303 	ldrd	r0, r3, [r4, #12]
 8001cf4:	f421 4103 	bic.w	r1, r1, #33536	; 0x8300
 8001cf8:	4303      	orrs	r3, r0
 8001cfa:	f021 01ff 	bic.w	r1, r1, #255	; 0xff
 8001cfe:	430b      	orrs	r3, r1
 8001d00:	6093      	str	r3, [r2, #8]
 8001d02:	68d1      	ldr	r1, [r2, #12]
 8001d04:	e9d4 3005 	ldrd	r3, r0, [r4, #20]
 8001d08:	f021 01ff 	bic.w	r1, r1, #255	; 0xff
 8001d0c:	4303      	orrs	r3, r0
 8001d0e:	430b      	orrs	r3, r1
 8001d10:	60d3      	str	r3, [r2, #12]
 8001d12:	6813      	ldr	r3, [r2, #0]
 8001d14:	2000      	movs	r0, #0
 8001d16:	f043 0301 	orr.w	r3, r3, #1
 8001d1a:	6013      	str	r3, [r2, #0]
 8001d1c:	2320      	movs	r3, #32
 8001d1e:	6420      	str	r0, [r4, #64]	; 0x40
 8001d20:	f884 303d 	strb.w	r3, [r4, #61]	; 0x3d
 8001d24:	6320      	str	r0, [r4, #48]	; 0x30
 8001d26:	f884 003e 	strb.w	r0, [r4, #62]	; 0x3e
 8001d2a:	e77f      	b.n	8001c2c <HAL_I2C_Init+0x8>
 8001d2c:	68a5      	ldr	r5, [r4, #8]
 8001d2e:	b955      	cbnz	r5, 8001d46 <HAL_I2C_Init+0x122>
 8001d30:	eb03 0343 	add.w	r3, r3, r3, lsl #1
 8001d34:	fbb0 f3f3 	udiv	r3, r0, r3
 8001d38:	3301      	adds	r3, #1
 8001d3a:	f3c3 030b 	ubfx	r3, r3, #0, #12
 8001d3e:	b17b      	cbz	r3, 8001d60 <HAL_I2C_Init+0x13c>
 8001d40:	f443 4300 	orr.w	r3, r3, #32768	; 0x8000
 8001d44:	e7c9      	b.n	8001cda <HAL_I2C_Init+0xb6>
 8001d46:	2519      	movs	r5, #25
 8001d48:	436b      	muls	r3, r5
 8001d4a:	fbb0 f3f3 	udiv	r3, r0, r3
 8001d4e:	3301      	adds	r3, #1
 8001d50:	f3c3 030b 	ubfx	r3, r3, #0, #12
 8001d54:	b123      	cbz	r3, 8001d60 <HAL_I2C_Init+0x13c>
 8001d56:	f443 4340 	orr.w	r3, r3, #49152	; 0xc000
 8001d5a:	e7be      	b.n	8001cda <HAL_I2C_Init+0xb6>
 8001d5c:	2304      	movs	r3, #4
 8001d5e:	e7bc      	b.n	8001cda <HAL_I2C_Init+0xb6>
 8001d60:	2301      	movs	r3, #1
 8001d62:	e7ba      	b.n	8001cda <HAL_I2C_Init+0xb6>
 8001d64:	000186a0 	.word	0x000186a0
 8001d68:	001e847f 	.word	0x001e847f
 8001d6c:	003d08ff 	.word	0x003d08ff
 8001d70:	000f4240 	.word	0x000f4240

08001d74 <HAL_I2C_Mem_Read>:
 8001d74:	e92d 43f0 	stmdb	sp!, {r4, r5, r6, r7, r8, r9, lr}
 8001d78:	4699      	mov	r9, r3
 8001d7a:	2300      	movs	r3, #0
 8001d7c:	4604      	mov	r4, r0
 8001d7e:	b089      	sub	sp, #36	; 0x24
 8001d80:	9303      	str	r3, [sp, #12]
 8001d82:	460d      	mov	r5, r1
 8001d84:	4690      	mov	r8, r2
 8001d86:	9f12      	ldr	r7, [sp, #72]	; 0x48
 8001d88:	f7ff fc0a 	bl	80015a0 <HAL_GetTick>
 8001d8c:	f894 303d 	ldrb.w	r3, [r4, #61]	; 0x3d
 8001d90:	4606      	mov	r6, r0
 8001d92:	2b20      	cmp	r3, #32
 8001d94:	d004      	beq.n	8001da0 <HAL_I2C_Mem_Read+0x2c>
 8001d96:	2502      	movs	r5, #2
 8001d98:	4628      	mov	r0, r5
 8001d9a:	b009      	add	sp, #36	; 0x24
 8001d9c:	e8bd 83f0 	ldmia.w	sp!, {r4, r5, r6, r7, r8, r9, pc}
 8001da0:	9000      	str	r0, [sp, #0]
 8001da2:	2319      	movs	r3, #25
 8001da4:	2201      	movs	r2, #1
 8001da6:	4620      	mov	r0, r4
 8001da8:	498d      	ldr	r1, [pc, #564]	; (8001fe0 <HAL_I2C_Mem_Read+0x26c>)
 8001daa:	f7ff fdd9 	bl	8001960 <I2C_WaitOnFlagUntilTimeout>
 8001dae:	2800      	cmp	r0, #0
 8001db0:	d1f1      	bne.n	8001d96 <HAL_I2C_Mem_Read+0x22>
 8001db2:	f894 303c 	ldrb.w	r3, [r4, #60]	; 0x3c
 8001db6:	2b01      	cmp	r3, #1
 8001db8:	d0ed      	beq.n	8001d96 <HAL_I2C_Mem_Read+0x22>
 8001dba:	2301      	movs	r3, #1
 8001dbc:	6820      	ldr	r0, [r4, #0]
 8001dbe:	f884 303c 	strb.w	r3, [r4, #60]	; 0x3c
 8001dc2:	6803      	ldr	r3, [r0, #0]
 8001dc4:	4629      	mov	r1, r5
 8001dc6:	07db      	lsls	r3, r3, #31
 8001dc8:	bf58      	it	pl
 8001dca:	6803      	ldrpl	r3, [r0, #0]
 8001dcc:	4642      	mov	r2, r8
 8001dce:	bf5c      	itt	pl
 8001dd0:	f043 0301 	orrpl.w	r3, r3, #1
 8001dd4:	6003      	strpl	r3, [r0, #0]
 8001dd6:	6803      	ldr	r3, [r0, #0]
 8001dd8:	f423 6300 	bic.w	r3, r3, #2048	; 0x800
 8001ddc:	6003      	str	r3, [r0, #0]
 8001dde:	2322      	movs	r3, #34	; 0x22
 8001de0:	f884 303d 	strb.w	r3, [r4, #61]	; 0x3d
 8001de4:	2340      	movs	r3, #64	; 0x40
 8001de6:	f884 303e 	strb.w	r3, [r4, #62]	; 0x3e
 8001dea:	2300      	movs	r3, #0
 8001dec:	6423      	str	r3, [r4, #64]	; 0x40
 8001dee:	9b10      	ldr	r3, [sp, #64]	; 0x40
 8001df0:	4620      	mov	r0, r4
 8001df2:	6263      	str	r3, [r4, #36]	; 0x24
 8001df4:	f8bd 3044 	ldrh.w	r3, [sp, #68]	; 0x44
 8001df8:	e9cd 7600 	strd	r7, r6, [sp]
 8001dfc:	8563      	strh	r3, [r4, #42]	; 0x2a
 8001dfe:	8d63      	ldrh	r3, [r4, #42]	; 0x2a
 8001e00:	8523      	strh	r3, [r4, #40]	; 0x28
 8001e02:	4b78      	ldr	r3, [pc, #480]	; (8001fe4 <HAL_I2C_Mem_Read+0x270>)
 8001e04:	62e3      	str	r3, [r4, #44]	; 0x2c
 8001e06:	464b      	mov	r3, r9
 8001e08:	f7ff fe56 	bl	8001ab8 <I2C_RequestMemoryRead>
 8001e0c:	4605      	mov	r5, r0
 8001e0e:	b108      	cbz	r0, 8001e14 <HAL_I2C_Mem_Read+0xa0>
 8001e10:	2501      	movs	r5, #1
 8001e12:	e7c1      	b.n	8001d98 <HAL_I2C_Mem_Read+0x24>
 8001e14:	8d22      	ldrh	r2, [r4, #40]	; 0x28
 8001e16:	6823      	ldr	r3, [r4, #0]
 8001e18:	b9c2      	cbnz	r2, 8001e4c <HAL_I2C_Mem_Read+0xd8>
 8001e1a:	9004      	str	r0, [sp, #16]
 8001e1c:	695a      	ldr	r2, [r3, #20]
 8001e1e:	9204      	str	r2, [sp, #16]
 8001e20:	699a      	ldr	r2, [r3, #24]
 8001e22:	9204      	str	r2, [sp, #16]
 8001e24:	9a04      	ldr	r2, [sp, #16]
 8001e26:	681a      	ldr	r2, [r3, #0]
 8001e28:	f442 7200 	orr.w	r2, r2, #512	; 0x200
 8001e2c:	601a      	str	r2, [r3, #0]
 8001e2e:	f8df 81b8 	ldr.w	r8, [pc, #440]	; 8001fe8 <HAL_I2C_Mem_Read+0x274>
 8001e32:	f8df 91b8 	ldr.w	r9, [pc, #440]	; 8001fec <HAL_I2C_Mem_Read+0x278>
 8001e36:	8d23      	ldrh	r3, [r4, #40]	; 0x28
 8001e38:	2b00      	cmp	r3, #0
 8001e3a:	d137      	bne.n	8001eac <HAL_I2C_Mem_Read+0x138>
 8001e3c:	2220      	movs	r2, #32
 8001e3e:	f884 303c 	strb.w	r3, [r4, #60]	; 0x3c
 8001e42:	f884 203d 	strb.w	r2, [r4, #61]	; 0x3d
 8001e46:	f884 303e 	strb.w	r3, [r4, #62]	; 0x3e
 8001e4a:	e7a5      	b.n	8001d98 <HAL_I2C_Mem_Read+0x24>
 8001e4c:	2a01      	cmp	r2, #1
 8001e4e:	d111      	bne.n	8001e74 <HAL_I2C_Mem_Read+0x100>
 8001e50:	681a      	ldr	r2, [r3, #0]
 8001e52:	f422 6280 	bic.w	r2, r2, #1024	; 0x400
 8001e56:	601a      	str	r2, [r3, #0]
 8001e58:	b672      	cpsid	i
 8001e5a:	6823      	ldr	r3, [r4, #0]
 8001e5c:	9005      	str	r0, [sp, #20]
 8001e5e:	695a      	ldr	r2, [r3, #20]
 8001e60:	9205      	str	r2, [sp, #20]
 8001e62:	699a      	ldr	r2, [r3, #24]
 8001e64:	9205      	str	r2, [sp, #20]
 8001e66:	9a05      	ldr	r2, [sp, #20]
 8001e68:	681a      	ldr	r2, [r3, #0]
 8001e6a:	f442 7200 	orr.w	r2, r2, #512	; 0x200
 8001e6e:	601a      	str	r2, [r3, #0]
 8001e70:	b662      	cpsie	i
 8001e72:	e7dc      	b.n	8001e2e <HAL_I2C_Mem_Read+0xba>
 8001e74:	2a02      	cmp	r2, #2
 8001e76:	681a      	ldr	r2, [r3, #0]
 8001e78:	d10e      	bne.n	8001e98 <HAL_I2C_Mem_Read+0x124>
 8001e7a:	f442 6200 	orr.w	r2, r2, #2048	; 0x800
 8001e7e:	601a      	str	r2, [r3, #0]
 8001e80:	b672      	cpsid	i
 8001e82:	6823      	ldr	r3, [r4, #0]
 8001e84:	9006      	str	r0, [sp, #24]
 8001e86:	695a      	ldr	r2, [r3, #20]
 8001e88:	9206      	str	r2, [sp, #24]
 8001e8a:	699a      	ldr	r2, [r3, #24]
 8001e8c:	9206      	str	r2, [sp, #24]
 8001e8e:	9a06      	ldr	r2, [sp, #24]
 8001e90:	681a      	ldr	r2, [r3, #0]
 8001e92:	f422 6280 	bic.w	r2, r2, #1024	; 0x400
 8001e96:	e7ea      	b.n	8001e6e <HAL_I2C_Mem_Read+0xfa>
 8001e98:	f442 6280 	orr.w	r2, r2, #1024	; 0x400
 8001e9c:	601a      	str	r2, [r3, #0]
 8001e9e:	9007      	str	r0, [sp, #28]
 8001ea0:	695a      	ldr	r2, [r3, #20]
 8001ea2:	9207      	str	r2, [sp, #28]
 8001ea4:	699b      	ldr	r3, [r3, #24]
 8001ea6:	9307      	str	r3, [sp, #28]
 8001ea8:	9b07      	ldr	r3, [sp, #28]
 8001eaa:	e7c0      	b.n	8001e2e <HAL_I2C_Mem_Read+0xba>
 8001eac:	2b03      	cmp	r3, #3
 8001eae:	d878      	bhi.n	8001fa2 <HAL_I2C_Mem_Read+0x22e>
 8001eb0:	2b01      	cmp	r3, #1
 8001eb2:	d115      	bne.n	8001ee0 <HAL_I2C_Mem_Read+0x16c>
 8001eb4:	4632      	mov	r2, r6
 8001eb6:	4639      	mov	r1, r7
 8001eb8:	4620      	mov	r0, r4
 8001eba:	f7ff fe7f 	bl	8001bbc <I2C_WaitOnRXNEFlagUntilTimeout>
 8001ebe:	2800      	cmp	r0, #0
 8001ec0:	d1a6      	bne.n	8001e10 <HAL_I2C_Mem_Read+0x9c>
 8001ec2:	6823      	ldr	r3, [r4, #0]
 8001ec4:	691a      	ldr	r2, [r3, #16]
 8001ec6:	6a63      	ldr	r3, [r4, #36]	; 0x24
 8001ec8:	701a      	strb	r2, [r3, #0]
 8001eca:	6a63      	ldr	r3, [r4, #36]	; 0x24
 8001ecc:	3301      	adds	r3, #1
 8001ece:	6263      	str	r3, [r4, #36]	; 0x24
 8001ed0:	8d23      	ldrh	r3, [r4, #40]	; 0x28
 8001ed2:	3b01      	subs	r3, #1
 8001ed4:	8523      	strh	r3, [r4, #40]	; 0x28
 8001ed6:	8d63      	ldrh	r3, [r4, #42]	; 0x2a
 8001ed8:	3b01      	subs	r3, #1
 8001eda:	b29b      	uxth	r3, r3
 8001edc:	8563      	strh	r3, [r4, #42]	; 0x2a
 8001ede:	e7aa      	b.n	8001e36 <HAL_I2C_Mem_Read+0xc2>
 8001ee0:	2b02      	cmp	r3, #2
 8001ee2:	f04f 0200 	mov.w	r2, #0
 8001ee6:	463b      	mov	r3, r7
 8001ee8:	4641      	mov	r1, r8
 8001eea:	4620      	mov	r0, r4
 8001eec:	9600      	str	r6, [sp, #0]
 8001eee:	d118      	bne.n	8001f22 <HAL_I2C_Mem_Read+0x1ae>
 8001ef0:	f7ff fd36 	bl	8001960 <I2C_WaitOnFlagUntilTimeout>
 8001ef4:	2800      	cmp	r0, #0
 8001ef6:	d18b      	bne.n	8001e10 <HAL_I2C_Mem_Read+0x9c>
 8001ef8:	b672      	cpsid	i
 8001efa:	6823      	ldr	r3, [r4, #0]
 8001efc:	681a      	ldr	r2, [r3, #0]
 8001efe:	f442 7200 	orr.w	r2, r2, #512	; 0x200
 8001f02:	601a      	str	r2, [r3, #0]
 8001f04:	691a      	ldr	r2, [r3, #16]
 8001f06:	6a63      	ldr	r3, [r4, #36]	; 0x24
 8001f08:	701a      	strb	r2, [r3, #0]
 8001f0a:	6a63      	ldr	r3, [r4, #36]	; 0x24
 8001f0c:	3301      	adds	r3, #1
 8001f0e:	6263      	str	r3, [r4, #36]	; 0x24
 8001f10:	8d23      	ldrh	r3, [r4, #40]	; 0x28
 8001f12:	3b01      	subs	r3, #1
 8001f14:	8523      	strh	r3, [r4, #40]	; 0x28
 8001f16:	8d63      	ldrh	r3, [r4, #42]	; 0x2a
 8001f18:	3b01      	subs	r3, #1
 8001f1a:	b29b      	uxth	r3, r3
 8001f1c:	8563      	strh	r3, [r4, #42]	; 0x2a
 8001f1e:	b662      	cpsie	i
 8001f20:	e7cf      	b.n	8001ec2 <HAL_I2C_Mem_Read+0x14e>
 8001f22:	f7ff fd1d 	bl	8001960 <I2C_WaitOnFlagUntilTimeout>
 8001f26:	2800      	cmp	r0, #0
 8001f28:	f47f af72 	bne.w	8001e10 <HAL_I2C_Mem_Read+0x9c>
 8001f2c:	6822      	ldr	r2, [r4, #0]
 8001f2e:	6813      	ldr	r3, [r2, #0]
 8001f30:	f423 6380 	bic.w	r3, r3, #1024	; 0x400
 8001f34:	6013      	str	r3, [r2, #0]
 8001f36:	b672      	cpsid	i
 8001f38:	f246 11a8 	movw	r1, #25000	; 0x61a8
 8001f3c:	6823      	ldr	r3, [r4, #0]
 8001f3e:	691a      	ldr	r2, [r3, #16]
 8001f40:	6a63      	ldr	r3, [r4, #36]	; 0x24
 8001f42:	701a      	strb	r2, [r3, #0]
 8001f44:	6a62      	ldr	r2, [r4, #36]	; 0x24
 8001f46:	1c53      	adds	r3, r2, #1
 8001f48:	6263      	str	r3, [r4, #36]	; 0x24
 8001f4a:	8d23      	ldrh	r3, [r4, #40]	; 0x28
 8001f4c:	3b01      	subs	r3, #1
 8001f4e:	8523      	strh	r3, [r4, #40]	; 0x28
 8001f50:	8d63      	ldrh	r3, [r4, #42]	; 0x2a
 8001f52:	3b01      	subs	r3, #1
 8001f54:	b29b      	uxth	r3, r3
 8001f56:	8563      	strh	r3, [r4, #42]	; 0x2a
 8001f58:	f8d9 3000 	ldr.w	r3, [r9]
 8001f5c:	fbb3 f3f1 	udiv	r3, r3, r1
 8001f60:	2123      	movs	r1, #35	; 0x23
 8001f62:	434b      	muls	r3, r1
 8001f64:	9303      	str	r3, [sp, #12]
 8001f66:	9b03      	ldr	r3, [sp, #12]
 8001f68:	3b01      	subs	r3, #1
 8001f6a:	9303      	str	r3, [sp, #12]
 8001f6c:	9b03      	ldr	r3, [sp, #12]
 8001f6e:	b96b      	cbnz	r3, 8001f8c <HAL_I2C_Mem_Read+0x218>
 8001f70:	2220      	movs	r2, #32
 8001f72:	6323      	str	r3, [r4, #48]	; 0x30
 8001f74:	f884 203d 	strb.w	r2, [r4, #61]	; 0x3d
 8001f78:	f884 303e 	strb.w	r3, [r4, #62]	; 0x3e
 8001f7c:	6c22      	ldr	r2, [r4, #64]	; 0x40
 8001f7e:	f042 0220 	orr.w	r2, r2, #32
 8001f82:	6422      	str	r2, [r4, #64]	; 0x40
 8001f84:	b662      	cpsie	i
 8001f86:	f884 303c 	strb.w	r3, [r4, #60]	; 0x3c
 8001f8a:	e741      	b.n	8001e10 <HAL_I2C_Mem_Read+0x9c>
 8001f8c:	6823      	ldr	r3, [r4, #0]
 8001f8e:	6959      	ldr	r1, [r3, #20]
 8001f90:	0748      	lsls	r0, r1, #29
 8001f92:	d5e8      	bpl.n	8001f66 <HAL_I2C_Mem_Read+0x1f2>
 8001f94:	6819      	ldr	r1, [r3, #0]
 8001f96:	f441 7100 	orr.w	r1, r1, #512	; 0x200
 8001f9a:	6019      	str	r1, [r3, #0]
 8001f9c:	691b      	ldr	r3, [r3, #16]
 8001f9e:	7053      	strb	r3, [r2, #1]
 8001fa0:	e7b3      	b.n	8001f0a <HAL_I2C_Mem_Read+0x196>
 8001fa2:	4632      	mov	r2, r6
 8001fa4:	4639      	mov	r1, r7
 8001fa6:	4620      	mov	r0, r4
 8001fa8:	f7ff fe08 	bl	8001bbc <I2C_WaitOnRXNEFlagUntilTimeout>
 8001fac:	2800      	cmp	r0, #0
 8001fae:	f47f af2f 	bne.w	8001e10 <HAL_I2C_Mem_Read+0x9c>
 8001fb2:	6823      	ldr	r3, [r4, #0]
 8001fb4:	691a      	ldr	r2, [r3, #16]
 8001fb6:	6a63      	ldr	r3, [r4, #36]	; 0x24
 8001fb8:	701a      	strb	r2, [r3, #0]
 8001fba:	6a62      	ldr	r2, [r4, #36]	; 0x24
 8001fbc:	1c53      	adds	r3, r2, #1
 8001fbe:	6263      	str	r3, [r4, #36]	; 0x24
 8001fc0:	8d23      	ldrh	r3, [r4, #40]	; 0x28
 8001fc2:	3b01      	subs	r3, #1
 8001fc4:	8523      	strh	r3, [r4, #40]	; 0x28
 8001fc6:	8d63      	ldrh	r3, [r4, #42]	; 0x2a
 8001fc8:	3b01      	subs	r3, #1
 8001fca:	b29b      	uxth	r3, r3
 8001fcc:	8563      	strh	r3, [r4, #42]	; 0x2a
 8001fce:	6823      	ldr	r3, [r4, #0]
 8001fd0:	6959      	ldr	r1, [r3, #20]
 8001fd2:	0749      	lsls	r1, r1, #29
 8001fd4:	f57f af2f 	bpl.w	8001e36 <HAL_I2C_Mem_Read+0xc2>
 8001fd8:	691b      	ldr	r3, [r3, #16]
 8001fda:	7053      	strb	r3, [r2, #1]
 8001fdc:	e775      	b.n	8001eca <HAL_I2C_Mem_Read+0x156>
 8001fde:	bf00      	nop
 8001fe0:	00100002 	.word	0x00100002
 8001fe4:	ffff0000 	.word	0xffff0000
 8001fe8:	00010004 	.word	0x00010004
 8001fec:	20000008 	.word	0x20000008

08001ff0 <HAL_PCD_Init>:
 8001ff0:	b5f0      	push	{r4, r5, r6, r7, lr}
 8001ff2:	4604      	mov	r4, r0
 8001ff4:	b087      	sub	sp, #28
 8001ff6:	b310      	cbz	r0, 800203e <HAL_PCD_Init+0x4e>
 8001ff8:	f890 32a9 	ldrb.w	r3, [r0, #681]	; 0x2a9
 8001ffc:	f003 02ff 	and.w	r2, r3, #255	; 0xff
 8002000:	b91b      	cbnz	r3, 800200a <HAL_PCD_Init+0x1a>
 8002002:	f880 22a8 	strb.w	r2, [r0, #680]	; 0x2a8
 8002006:	f003 fb61 	bl	80056cc <HAL_PCD_MspInit>
 800200a:	2303      	movs	r3, #3
 800200c:	4625      	mov	r5, r4
 800200e:	466e      	mov	r6, sp
 8002010:	f884 32a9 	strb.w	r3, [r4, #681]	; 0x2a9
 8002014:	f855 0b10 	ldr.w	r0, [r5], #16
 8002018:	f002 f804 	bl	8004024 <USB_DisableGlobalInt>
 800201c:	cd0f      	ldmia	r5!, {r0, r1, r2, r3}
 800201e:	c60f      	stmia	r6!, {r0, r1, r2, r3}
 8002020:	682b      	ldr	r3, [r5, #0]
 8002022:	1d27      	adds	r7, r4, #4
 8002024:	6033      	str	r3, [r6, #0]
 8002026:	4626      	mov	r6, r4
 8002028:	e897 000e 	ldmia.w	r7, {r1, r2, r3}
 800202c:	f856 0b10 	ldr.w	r0, [r6], #16
 8002030:	f001 ffe8 	bl	8004004 <USB_CoreInit>
 8002034:	4605      	mov	r5, r0
 8002036:	b120      	cbz	r0, 8002042 <HAL_PCD_Init+0x52>
 8002038:	2302      	movs	r3, #2
 800203a:	f884 32a9 	strb.w	r3, [r4, #681]	; 0x2a9
 800203e:	2501      	movs	r5, #1
 8002040:	e04b      	b.n	80020da <HAL_PCD_Init+0xea>
 8002042:	4601      	mov	r1, r0
 8002044:	6820      	ldr	r0, [r4, #0]
 8002046:	f001 fff7 	bl	8004038 <USB_SetCurrentMode>
 800204a:	4629      	mov	r1, r5
 800204c:	f04f 0e01 	mov.w	lr, #1
 8002050:	2528      	movs	r5, #40	; 0x28
 8002052:	460a      	mov	r2, r1
 8002054:	f8d4 c004 	ldr.w	ip, [r4, #4]
 8002058:	b2c8      	uxtb	r0, r1
 800205a:	4584      	cmp	ip, r0
 800205c:	f101 0101 	add.w	r1, r1, #1
 8002060:	d81b      	bhi.n	800209a <HAL_PCD_Init+0xaa>
 8002062:	2300      	movs	r3, #0
 8002064:	2528      	movs	r5, #40	; 0x28
 8002066:	4619      	mov	r1, r3
 8002068:	b2d8      	uxtb	r0, r3
 800206a:	4584      	cmp	ip, r0
 800206c:	f103 0301 	add.w	r3, r3, #1
 8002070:	d81f      	bhi.n	80020b2 <HAL_PCD_Init+0xc2>
 8002072:	46ec      	mov	ip, sp
 8002074:	4635      	mov	r5, r6
 8002076:	cd0f      	ldmia	r5!, {r0, r1, r2, r3}
 8002078:	e8ac 000f 	stmia.w	ip!, {r0, r1, r2, r3}
 800207c:	682b      	ldr	r3, [r5, #0]
 800207e:	f8cc 3000 	str.w	r3, [ip]
 8002082:	e897 000e 	ldmia.w	r7, {r1, r2, r3}
 8002086:	6820      	ldr	r0, [r4, #0]
 8002088:	f001 ffd8 	bl	800403c <USB_DevInit>
 800208c:	2301      	movs	r3, #1
 800208e:	4605      	mov	r5, r0
 8002090:	b1e0      	cbz	r0, 80020cc <HAL_PCD_Init+0xdc>
 8002092:	2202      	movs	r2, #2
 8002094:	f884 22a9 	strb.w	r2, [r4, #681]	; 0x2a9
 8002098:	e7d1      	b.n	800203e <HAL_PCD_Init+0x4e>
 800209a:	fb05 4300 	mla	r3, r5, r0, r4
 800209e:	e9c3 220e 	strd	r2, r2, [r3, #56]	; 0x38
 80020a2:	f883 e029 	strb.w	lr, [r3, #41]	; 0x29
 80020a6:	f883 0028 	strb.w	r0, [r3, #40]	; 0x28
 80020aa:	f883 202b 	strb.w	r2, [r3, #43]	; 0x2b
 80020ae:	641a      	str	r2, [r3, #64]	; 0x40
 80020b0:	e7d2      	b.n	8002058 <HAL_PCD_Init+0x68>
 80020b2:	fb05 4200 	mla	r2, r5, r0, r4
 80020b6:	e9c2 115e 	strd	r1, r1, [r2, #376]	; 0x178
 80020ba:	f882 1169 	strb.w	r1, [r2, #361]	; 0x169
 80020be:	f882 0168 	strb.w	r0, [r2, #360]	; 0x168
 80020c2:	f882 116b 	strb.w	r1, [r2, #363]	; 0x16b
 80020c6:	f8c2 1180 	str.w	r1, [r2, #384]	; 0x180
 80020ca:	e7cd      	b.n	8002068 <HAL_PCD_Init+0x78>
 80020cc:	f884 0024 	strb.w	r0, [r4, #36]	; 0x24
 80020d0:	6820      	ldr	r0, [r4, #0]
 80020d2:	f884 32a9 	strb.w	r3, [r4, #681]	; 0x2a9
 80020d6:	f002 fa69 	bl	80045ac <USB_DevDisconnect>
 80020da:	4628      	mov	r0, r5
 80020dc:	b007      	add	sp, #28
 80020de:	bdf0      	pop	{r4, r5, r6, r7, pc}

080020e0 <HAL_PCD_Start>:
 80020e0:	b538      	push	{r3, r4, r5, lr}
 80020e2:	f890 32a8 	ldrb.w	r3, [r0, #680]	; 0x2a8
 80020e6:	4604      	mov	r4, r0
 80020e8:	2b01      	cmp	r3, #1
 80020ea:	d010      	beq.n	800210e <HAL_PCD_Start+0x2e>
 80020ec:	2501      	movs	r5, #1
 80020ee:	f880 52a8 	strb.w	r5, [r0, #680]	; 0x2a8
 80020f2:	6800      	ldr	r0, [r0, #0]
 80020f4:	f001 ff8d 	bl	8004012 <USB_EnableGlobalInt>
 80020f8:	4629      	mov	r1, r5
 80020fa:	4620      	mov	r0, r4
 80020fc:	f003 fbf1 	bl	80058e2 <HAL_PCDEx_SetConnectionState>
 8002100:	6820      	ldr	r0, [r4, #0]
 8002102:	f002 fa51 	bl	80045a8 <USB_DevConnect>
 8002106:	2000      	movs	r0, #0
 8002108:	f884 02a8 	strb.w	r0, [r4, #680]	; 0x2a8
 800210c:	bd38      	pop	{r3, r4, r5, pc}
 800210e:	2002      	movs	r0, #2
 8002110:	e7fc      	b.n	800210c <HAL_PCD_Start+0x2c>

08002112 <HAL_PCD_SetAddress>:
 8002112:	b510      	push	{r4, lr}
 8002114:	f890 22a8 	ldrb.w	r2, [r0, #680]	; 0x2a8
 8002118:	4604      	mov	r4, r0
 800211a:	2a01      	cmp	r2, #1
 800211c:	d00b      	beq.n	8002136 <HAL_PCD_SetAddress+0x24>
 800211e:	2201      	movs	r2, #1
 8002120:	f880 1024 	strb.w	r1, [r0, #36]	; 0x24
 8002124:	f880 22a8 	strb.w	r2, [r0, #680]	; 0x2a8
 8002128:	6800      	ldr	r0, [r0, #0]
 800212a:	f002 fa37 	bl	800459c <USB_SetDevAddress>
 800212e:	2000      	movs	r0, #0
 8002130:	f884 02a8 	strb.w	r0, [r4, #680]	; 0x2a8
 8002134:	bd10      	pop	{r4, pc}
 8002136:	2002      	movs	r0, #2
 8002138:	e7fc      	b.n	8002134 <HAL_PCD_SetAddress+0x22>
	...

0800213c <HAL_PCD_IRQHandler>:
 800213c:	e92d 4ff0 	stmdb	sp!, {r4, r5, r6, r7, r8, r9, sl, fp, lr}
 8002140:	4604      	mov	r4, r0
 8002142:	b085      	sub	sp, #20
 8002144:	6800      	ldr	r0, [r0, #0]
 8002146:	f002 fa33 	bl	80045b0 <USB_ReadInterrupts>
 800214a:	f410 4500 	ands.w	r5, r0, #32768	; 0x8000
 800214e:	f000 8428 	beq.w	80029a2 <HAL_PCD_IRQHandler+0x866>
 8002152:	f8df 9320 	ldr.w	r9, [pc, #800]	; 8002474 <HAL_PCD_IRQHandler+0x338>
 8002156:	f8df 8320 	ldr.w	r8, [pc, #800]	; 8002478 <HAL_PCD_IRQHandler+0x33c>
 800215a:	6820      	ldr	r0, [r4, #0]
 800215c:	f8b0 3044 	ldrh.w	r3, [r0, #68]	; 0x44
 8002160:	041f      	lsls	r7, r3, #16
 8002162:	d402      	bmi.n	800216a <HAL_PCD_IRQHandler+0x2e>
 8002164:	b005      	add	sp, #20
 8002166:	e8bd 8ff0 	ldmia.w	sp!, {r4, r5, r6, r7, r8, r9, sl, fp, pc}
 800216a:	f8b0 6044 	ldrh.w	r6, [r0, #68]	; 0x44
 800216e:	b2b1      	uxth	r1, r6
 8002170:	f016 060f 	ands.w	r6, r6, #15
 8002174:	f040 80c6 	bne.w	8002304 <HAL_PCD_IRQHandler+0x1c8>
 8002178:	f011 0110 	ands.w	r1, r1, #16
 800217c:	d12b      	bne.n	80021d6 <HAL_PCD_IRQHandler+0x9a>
 800217e:	8803      	ldrh	r3, [r0, #0]
 8002180:	b29b      	uxth	r3, r3
 8002182:	ea03 0309 	and.w	r3, r3, r9
 8002186:	f443 4300 	orr.w	r3, r3, #32768	; 0x8000
 800218a:	8003      	strh	r3, [r0, #0]
 800218c:	f8b0 3050 	ldrh.w	r3, [r0, #80]	; 0x50
 8002190:	f894 2028 	ldrb.w	r2, [r4, #40]	; 0x28
 8002194:	b29b      	uxth	r3, r3
 8002196:	eb03 03c2 	add.w	r3, r3, r2, lsl #3
 800219a:	eb00 0043 	add.w	r0, r0, r3, lsl #1
 800219e:	f8b0 3404 	ldrh.w	r3, [r0, #1028]	; 0x404
 80021a2:	6be2      	ldr	r2, [r4, #60]	; 0x3c
 80021a4:	f3c3 0309 	ubfx	r3, r3, #0, #10
 80021a8:	6463      	str	r3, [r4, #68]	; 0x44
 80021aa:	4413      	add	r3, r2
 80021ac:	63e3      	str	r3, [r4, #60]	; 0x3c
 80021ae:	4620      	mov	r0, r4
 80021b0:	f003 fabb 	bl	800572a <HAL_PCD_DataInStageCallback>
 80021b4:	f894 3024 	ldrb.w	r3, [r4, #36]	; 0x24
 80021b8:	2b00      	cmp	r3, #0
 80021ba:	d0ce      	beq.n	800215a <HAL_PCD_IRQHandler+0x1e>
 80021bc:	6c22      	ldr	r2, [r4, #64]	; 0x40
 80021be:	2a00      	cmp	r2, #0
 80021c0:	d1cb      	bne.n	800215a <HAL_PCD_IRQHandler+0x1e>
 80021c2:	f894 3024 	ldrb.w	r3, [r4, #36]	; 0x24
 80021c6:	6821      	ldr	r1, [r4, #0]
 80021c8:	f043 0380 	orr.w	r3, r3, #128	; 0x80
 80021cc:	f8a1 304c 	strh.w	r3, [r1, #76]	; 0x4c
 80021d0:	f884 2024 	strb.w	r2, [r4, #36]	; 0x24
 80021d4:	e7c1      	b.n	800215a <HAL_PCD_IRQHandler+0x1e>
 80021d6:	8805      	ldrh	r5, [r0, #0]
 80021d8:	b2ab      	uxth	r3, r5
 80021da:	f415 6500 	ands.w	r5, r5, #2048	; 0x800
 80021de:	d021      	beq.n	8002224 <HAL_PCD_IRQHandler+0xe8>
 80021e0:	f8b0 3050 	ldrh.w	r3, [r0, #80]	; 0x50
 80021e4:	f894 2168 	ldrb.w	r2, [r4, #360]	; 0x168
 80021e8:	b29b      	uxth	r3, r3
 80021ea:	eb03 03c2 	add.w	r3, r3, r2, lsl #3
 80021ee:	eb00 0343 	add.w	r3, r0, r3, lsl #1
 80021f2:	f8b3 340c 	ldrh.w	r3, [r3, #1036]	; 0x40c
 80021f6:	f8b4 216e 	ldrh.w	r2, [r4, #366]	; 0x16e
 80021fa:	f3c3 0309 	ubfx	r3, r3, #0, #10
 80021fe:	f8c4 3184 	str.w	r3, [r4, #388]	; 0x184
 8002202:	f504 712c 	add.w	r1, r4, #688	; 0x2b0
 8002206:	f002 fc21 	bl	8004a4c <USB_ReadPMA>
 800220a:	6822      	ldr	r2, [r4, #0]
 800220c:	4620      	mov	r0, r4
 800220e:	8813      	ldrh	r3, [r2, #0]
 8002210:	f023 0370 	bic.w	r3, r3, #112	; 0x70
 8002214:	051b      	lsls	r3, r3, #20
 8002216:	0d1b      	lsrs	r3, r3, #20
 8002218:	f043 0380 	orr.w	r3, r3, #128	; 0x80
 800221c:	8013      	strh	r3, [r2, #0]
 800221e:	f003 fa75 	bl	800570c <HAL_PCD_SetupStageCallback>
 8002222:	e79a      	b.n	800215a <HAL_PCD_IRQHandler+0x1e>
 8002224:	0419      	lsls	r1, r3, #16
 8002226:	d598      	bpl.n	800215a <HAL_PCD_IRQHandler+0x1e>
 8002228:	8803      	ldrh	r3, [r0, #0]
 800222a:	f023 0370 	bic.w	r3, r3, #112	; 0x70
 800222e:	051b      	lsls	r3, r3, #20
 8002230:	0d1b      	lsrs	r3, r3, #20
 8002232:	f043 0380 	orr.w	r3, r3, #128	; 0x80
 8002236:	8003      	strh	r3, [r0, #0]
 8002238:	f8b0 3050 	ldrh.w	r3, [r0, #80]	; 0x50
 800223c:	f894 2168 	ldrb.w	r2, [r4, #360]	; 0x168
 8002240:	b29b      	uxth	r3, r3
 8002242:	eb03 03c2 	add.w	r3, r3, r2, lsl #3
 8002246:	eb00 0343 	add.w	r3, r0, r3, lsl #1
 800224a:	f8b3 340c 	ldrh.w	r3, [r3, #1036]	; 0x40c
 800224e:	f3c3 0309 	ubfx	r3, r3, #0, #10
 8002252:	f8c4 3184 	str.w	r3, [r4, #388]	; 0x184
 8002256:	b18b      	cbz	r3, 800227c <HAL_PCD_IRQHandler+0x140>
 8002258:	f8d4 117c 	ldr.w	r1, [r4, #380]	; 0x17c
 800225c:	b171      	cbz	r1, 800227c <HAL_PCD_IRQHandler+0x140>
 800225e:	f8b4 216e 	ldrh.w	r2, [r4, #366]	; 0x16e
 8002262:	f002 fbf3 	bl	8004a4c <USB_ReadPMA>
 8002266:	f8d4 317c 	ldr.w	r3, [r4, #380]	; 0x17c
 800226a:	f8d4 2184 	ldr.w	r2, [r4, #388]	; 0x184
 800226e:	4629      	mov	r1, r5
 8002270:	4413      	add	r3, r2
 8002272:	4620      	mov	r0, r4
 8002274:	f8c4 317c 	str.w	r3, [r4, #380]	; 0x17c
 8002278:	f003 fa4e 	bl	8005718 <HAL_PCD_DataOutStageCallback>
 800227c:	6821      	ldr	r1, [r4, #0]
 800227e:	880a      	ldrh	r2, [r1, #0]
 8002280:	b293      	uxth	r3, r2
 8002282:	0512      	lsls	r2, r2, #20
 8002284:	f53f af69 	bmi.w	800215a <HAL_PCD_IRQHandler+0x1e>
 8002288:	f403 5340 	and.w	r3, r3, #12288	; 0x3000
 800228c:	f5b3 5f40 	cmp.w	r3, #12288	; 0x3000
 8002290:	f43f af63 	beq.w	800215a <HAL_PCD_IRQHandler+0x1e>
 8002294:	f8b1 3050 	ldrh.w	r3, [r1, #80]	; 0x50
 8002298:	f201 400c 	addw	r0, r1, #1036	; 0x40c
 800229c:	b29b      	uxth	r3, r3
 800229e:	5ac2      	ldrh	r2, [r0, r3]
 80022a0:	f8d4 5178 	ldr.w	r5, [r4, #376]	; 0x178
 80022a4:	f3c2 0209 	ubfx	r2, r2, #0, #10
 80022a8:	2d3e      	cmp	r5, #62	; 0x3e
 80022aa:	52c2      	strh	r2, [r0, r3]
 80022ac:	d90c      	bls.n	80022c8 <HAL_PCD_IRQHandler+0x18c>
 80022ae:	5ac2      	ldrh	r2, [r0, r3]
 80022b0:	096e      	lsrs	r6, r5, #5
 80022b2:	06ef      	lsls	r7, r5, #27
 80022b4:	bf08      	it	eq
 80022b6:	f106 36ff 	addeq.w	r6, r6, #4294967295
 80022ba:	b292      	uxth	r2, r2
 80022bc:	ea42 2286 	orr.w	r2, r2, r6, lsl #10
 80022c0:	ea42 0208 	orr.w	r2, r2, r8
 80022c4:	b292      	uxth	r2, r2
 80022c6:	e004      	b.n	80022d2 <HAL_PCD_IRQHandler+0x196>
 80022c8:	b99d      	cbnz	r5, 80022f2 <HAL_PCD_IRQHandler+0x1b6>
 80022ca:	5ac2      	ldrh	r2, [r0, r3]
 80022cc:	b292      	uxth	r2, r2
 80022ce:	f442 4200 	orr.w	r2, r2, #32768	; 0x8000
 80022d2:	52c2      	strh	r2, [r0, r3]
 80022d4:	880b      	ldrh	r3, [r1, #0]
 80022d6:	f423 4380 	bic.w	r3, r3, #16384	; 0x4000
 80022da:	f023 0370 	bic.w	r3, r3, #112	; 0x70
 80022de:	041b      	lsls	r3, r3, #16
 80022e0:	0c1b      	lsrs	r3, r3, #16
 80022e2:	f483 5340 	eor.w	r3, r3, #12288	; 0x3000
 80022e6:	f443 4300 	orr.w	r3, r3, #32768	; 0x8000
 80022ea:	f043 0380 	orr.w	r3, r3, #128	; 0x80
 80022ee:	800b      	strh	r3, [r1, #0]
 80022f0:	e733      	b.n	800215a <HAL_PCD_IRQHandler+0x1e>
 80022f2:	5ac2      	ldrh	r2, [r0, r3]
 80022f4:	086e      	lsrs	r6, r5, #1
 80022f6:	07ed      	lsls	r5, r5, #31
 80022f8:	bf48      	it	mi
 80022fa:	3601      	addmi	r6, #1
 80022fc:	b292      	uxth	r2, r2
 80022fe:	ea42 2286 	orr.w	r2, r2, r6, lsl #10
 8002302:	e7df      	b.n	80022c4 <HAL_PCD_IRQHandler+0x188>
 8002304:	f830 3026 	ldrh.w	r3, [r0, r6, lsl #2]
 8002308:	041a      	lsls	r2, r3, #16
 800230a:	b29f      	uxth	r7, r3
 800230c:	f140 80f4 	bpl.w	80024f8 <HAL_PCD_IRQHandler+0x3bc>
 8002310:	2128      	movs	r1, #40	; 0x28
 8002312:	f830 3026 	ldrh.w	r3, [r0, r6, lsl #2]
 8002316:	fb01 4106 	mla	r1, r1, r6, r4
 800231a:	f023 0370 	bic.w	r3, r3, #112	; 0x70
 800231e:	051b      	lsls	r3, r3, #20
 8002320:	0d1b      	lsrs	r3, r3, #20
 8002322:	f043 0380 	orr.w	r3, r3, #128	; 0x80
 8002326:	f820 3026 	strh.w	r3, [r0, r6, lsl #2]
 800232a:	f891 3174 	ldrb.w	r3, [r1, #372]	; 0x174
 800232e:	f500 6c80 	add.w	ip, r0, #1024	; 0x400
 8002332:	b9b3      	cbnz	r3, 8002362 <HAL_PCD_IRQHandler+0x226>
 8002334:	f8b0 3050 	ldrh.w	r3, [r0, #80]	; 0x50
 8002338:	f891 2168 	ldrb.w	r2, [r1, #360]	; 0x168
 800233c:	b29b      	uxth	r3, r3
 800233e:	3306      	adds	r3, #6
 8002340:	eb03 03c2 	add.w	r3, r3, r2, lsl #3
 8002344:	f83c 5013 	ldrh.w	r5, [ip, r3, lsl #1]
 8002348:	f3c5 0509 	ubfx	r5, r5, #0, #10
 800234c:	2d00      	cmp	r5, #0
 800234e:	f000 80b7 	beq.w	80024c0 <HAL_PCD_IRQHandler+0x384>
 8002352:	462b      	mov	r3, r5
 8002354:	f8b1 216e 	ldrh.w	r2, [r1, #366]	; 0x16e
 8002358:	f8d1 117c 	ldr.w	r1, [r1, #380]	; 0x17c
 800235c:	f002 fb76 	bl	8004a4c <USB_ReadPMA>
 8002360:	e0ae      	b.n	80024c0 <HAL_PCD_IRQHandler+0x384>
 8002362:	f891 216b 	ldrb.w	r2, [r1, #363]	; 0x16b
 8002366:	f891 3168 	ldrb.w	r3, [r1, #360]	; 0x168
 800236a:	2a02      	cmp	r2, #2
 800236c:	f040 8086 	bne.w	800247c <HAL_PCD_IRQHandler+0x340>
 8002370:	f8b0 5050 	ldrh.w	r5, [r0, #80]	; 0x50
 8002374:	f417 4a80 	ands.w	sl, r7, #16384	; 0x4000
 8002378:	f8d1 2180 	ldr.w	r2, [r1, #384]	; 0x180
 800237c:	ea4f 0bc3 	mov.w	fp, r3, lsl #3
 8002380:	b2ad      	uxth	r5, r5
 8002382:	f007 0e40 	and.w	lr, r7, #64	; 0x40
 8002386:	d03b      	beq.n	8002400 <HAL_PCD_IRQHandler+0x2c4>
 8002388:	44ab      	add	fp, r5
 800238a:	f10b 0b02 	add.w	fp, fp, #2
 800238e:	f83c 501b 	ldrh.w	r5, [ip, fp, lsl #1]
 8002392:	f3c5 0509 	ubfx	r5, r5, #0, #10
 8002396:	4295      	cmp	r5, r2
 8002398:	d913      	bls.n	80023c2 <HAL_PCD_IRQHandler+0x286>
 800239a:	2200      	movs	r2, #0
 800239c:	f8c1 2180 	str.w	r2, [r1, #384]	; 0x180
 80023a0:	f830 2023 	ldrh.w	r2, [r0, r3, lsl #2]
 80023a4:	f422 4280 	bic.w	r2, r2, #16384	; 0x4000
 80023a8:	f022 0270 	bic.w	r2, r2, #112	; 0x70
 80023ac:	0412      	lsls	r2, r2, #16
 80023ae:	0c12      	lsrs	r2, r2, #16
 80023b0:	f482 5200 	eor.w	r2, r2, #8192	; 0x2000
 80023b4:	f442 4200 	orr.w	r2, r2, #32768	; 0x8000
 80023b8:	f042 0280 	orr.w	r2, r2, #128	; 0x80
 80023bc:	f820 2023 	strh.w	r2, [r0, r3, lsl #2]
 80023c0:	e004      	b.n	80023cc <HAL_PCD_IRQHandler+0x290>
 80023c2:	1b52      	subs	r2, r2, r5
 80023c4:	f8c1 2180 	str.w	r2, [r1, #384]	; 0x180
 80023c8:	2a00      	cmp	r2, #0
 80023ca:	d0e9      	beq.n	80023a0 <HAL_PCD_IRQHandler+0x264>
 80023cc:	f1be 0f00 	cmp.w	lr, #0
 80023d0:	d00d      	beq.n	80023ee <HAL_PCD_IRQHandler+0x2b2>
 80023d2:	f830 2023 	ldrh.w	r2, [r0, r3, lsl #2]
 80023d6:	f422 42e0 	bic.w	r2, r2, #28672	; 0x7000
 80023da:	f022 0270 	bic.w	r2, r2, #112	; 0x70
 80023de:	0412      	lsls	r2, r2, #16
 80023e0:	0c12      	lsrs	r2, r2, #16
 80023e2:	f442 4200 	orr.w	r2, r2, #32768	; 0x8000
 80023e6:	f042 02c0 	orr.w	r2, r2, #192	; 0xc0
 80023ea:	f820 2023 	strh.w	r2, [r0, r3, lsl #2]
 80023ee:	2d00      	cmp	r5, #0
 80023f0:	d066      	beq.n	80024c0 <HAL_PCD_IRQHandler+0x384>
 80023f2:	2128      	movs	r1, #40	; 0x28
 80023f4:	fb01 4106 	mla	r1, r1, r6, r4
 80023f8:	462b      	mov	r3, r5
 80023fa:	f8b1 2170 	ldrh.w	r2, [r1, #368]	; 0x170
 80023fe:	e7ab      	b.n	8002358 <HAL_PCD_IRQHandler+0x21c>
 8002400:	445d      	add	r5, fp
 8002402:	3506      	adds	r5, #6
 8002404:	f83c 5015 	ldrh.w	r5, [ip, r5, lsl #1]
 8002408:	f3c5 0509 	ubfx	r5, r5, #0, #10
 800240c:	4295      	cmp	r5, r2
 800240e:	d912      	bls.n	8002436 <HAL_PCD_IRQHandler+0x2fa>
 8002410:	f8c1 a180 	str.w	sl, [r1, #384]	; 0x180
 8002414:	f830 2023 	ldrh.w	r2, [r0, r3, lsl #2]
 8002418:	f422 4280 	bic.w	r2, r2, #16384	; 0x4000
 800241c:	f022 0270 	bic.w	r2, r2, #112	; 0x70
 8002420:	0412      	lsls	r2, r2, #16
 8002422:	0c12      	lsrs	r2, r2, #16
 8002424:	f482 5200 	eor.w	r2, r2, #8192	; 0x2000
 8002428:	f442 4200 	orr.w	r2, r2, #32768	; 0x8000
 800242c:	f042 0280 	orr.w	r2, r2, #128	; 0x80
 8002430:	f820 2023 	strh.w	r2, [r0, r3, lsl #2]
 8002434:	e004      	b.n	8002440 <HAL_PCD_IRQHandler+0x304>
 8002436:	1b52      	subs	r2, r2, r5
 8002438:	f8c1 2180 	str.w	r2, [r1, #384]	; 0x180
 800243c:	2a00      	cmp	r2, #0
 800243e:	d0e9      	beq.n	8002414 <HAL_PCD_IRQHandler+0x2d8>
 8002440:	f1be 0f00 	cmp.w	lr, #0
 8002444:	d10d      	bne.n	8002462 <HAL_PCD_IRQHandler+0x326>
 8002446:	f830 2023 	ldrh.w	r2, [r0, r3, lsl #2]
 800244a:	f422 42e0 	bic.w	r2, r2, #28672	; 0x7000
 800244e:	f022 0270 	bic.w	r2, r2, #112	; 0x70
 8002452:	0412      	lsls	r2, r2, #16
 8002454:	0c12      	lsrs	r2, r2, #16
 8002456:	f442 4200 	orr.w	r2, r2, #32768	; 0x8000
 800245a:	f042 02c0 	orr.w	r2, r2, #192	; 0xc0
 800245e:	f820 2023 	strh.w	r2, [r0, r3, lsl #2]
 8002462:	b36d      	cbz	r5, 80024c0 <HAL_PCD_IRQHandler+0x384>
 8002464:	2128      	movs	r1, #40	; 0x28
 8002466:	fb01 4106 	mla	r1, r1, r6, r4
 800246a:	462b      	mov	r3, r5
 800246c:	f8b1 2172 	ldrh.w	r2, [r1, #370]	; 0x172
 8002470:	e772      	b.n	8002358 <HAL_PCD_IRQHandler+0x21c>
 8002472:	bf00      	nop
 8002474:	ffff8f0f 	.word	0xffff8f0f
 8002478:	ffff8000 	.word	0xffff8000
 800247c:	f830 2023 	ldrh.w	r2, [r0, r3, lsl #2]
 8002480:	f422 42e0 	bic.w	r2, r2, #28672	; 0x7000
 8002484:	f022 0270 	bic.w	r2, r2, #112	; 0x70
 8002488:	0412      	lsls	r2, r2, #16
 800248a:	0c12      	lsrs	r2, r2, #16
 800248c:	f442 4200 	orr.w	r2, r2, #32768	; 0x8000
 8002490:	f042 02c0 	orr.w	r2, r2, #192	; 0xc0
 8002494:	f820 2023 	strh.w	r2, [r0, r3, lsl #2]
 8002498:	f891 3168 	ldrb.w	r3, [r1, #360]	; 0x168
 800249c:	f830 2023 	ldrh.w	r2, [r0, r3, lsl #2]
 80024a0:	f412 4f80 	tst.w	r2, #16384	; 0x4000
 80024a4:	ea4f 02c3 	mov.w	r2, r3, lsl #3
 80024a8:	f8b0 3050 	ldrh.w	r3, [r0, #80]	; 0x50
 80024ac:	b29b      	uxth	r3, r3
 80024ae:	d056      	beq.n	800255e <HAL_PCD_IRQHandler+0x422>
 80024b0:	3302      	adds	r3, #2
 80024b2:	4413      	add	r3, r2
 80024b4:	f83c 5013 	ldrh.w	r5, [ip, r3, lsl #1]
 80024b8:	f3c5 0509 	ubfx	r5, r5, #0, #10
 80024bc:	2d00      	cmp	r5, #0
 80024be:	d19b      	bne.n	80023f8 <HAL_PCD_IRQHandler+0x2bc>
 80024c0:	2128      	movs	r1, #40	; 0x28
 80024c2:	4371      	muls	r1, r6
 80024c4:	1863      	adds	r3, r4, r1
 80024c6:	f8d3 2184 	ldr.w	r2, [r3, #388]	; 0x184
 80024ca:	442a      	add	r2, r5
 80024cc:	f8c3 2184 	str.w	r2, [r3, #388]	; 0x184
 80024d0:	f8d3 217c 	ldr.w	r2, [r3, #380]	; 0x17c
 80024d4:	442a      	add	r2, r5
 80024d6:	f8c3 217c 	str.w	r2, [r3, #380]	; 0x17c
 80024da:	f8d3 2180 	ldr.w	r2, [r3, #384]	; 0x180
 80024de:	b11a      	cbz	r2, 80024e8 <HAL_PCD_IRQHandler+0x3ac>
 80024e0:	f8d3 3178 	ldr.w	r3, [r3, #376]	; 0x178
 80024e4:	429d      	cmp	r5, r3
 80024e6:	d243      	bcs.n	8002570 <HAL_PCD_IRQHandler+0x434>
 80024e8:	2328      	movs	r3, #40	; 0x28
 80024ea:	fb03 4306 	mla	r3, r3, r6, r4
 80024ee:	4620      	mov	r0, r4
 80024f0:	f893 1168 	ldrb.w	r1, [r3, #360]	; 0x168
 80024f4:	f003 f910 	bl	8005718 <HAL_PCD_DataOutStageCallback>
 80024f8:	063b      	lsls	r3, r7, #24
 80024fa:	f57f ae2e 	bpl.w	800215a <HAL_PCD_IRQHandler+0x1e>
 80024fe:	f04f 0c28 	mov.w	ip, #40	; 0x28
 8002502:	6820      	ldr	r0, [r4, #0]
 8002504:	fb0c 4506 	mla	r5, ip, r6, r4
 8002508:	f830 3026 	ldrh.w	r3, [r0, r6, lsl #2]
 800250c:	b29b      	uxth	r3, r3
 800250e:	ea03 0309 	and.w	r3, r3, r9
 8002512:	f443 4300 	orr.w	r3, r3, #32768	; 0x8000
 8002516:	f820 3026 	strh.w	r3, [r0, r6, lsl #2]
 800251a:	f895 302b 	ldrb.w	r3, [r5, #43]	; 0x2b
 800251e:	2b01      	cmp	r3, #1
 8002520:	d150      	bne.n	80025c4 <HAL_PCD_IRQHandler+0x488>
 8002522:	2100      	movs	r1, #0
 8002524:	f895 3034 	ldrb.w	r3, [r5, #52]	; 0x34
 8002528:	6429      	str	r1, [r5, #64]	; 0x40
 800252a:	b393      	cbz	r3, 8002592 <HAL_PCD_IRQHandler+0x456>
 800252c:	f017 0740 	ands.w	r7, r7, #64	; 0x40
 8002530:	f895 2029 	ldrb.w	r2, [r5, #41]	; 0x29
 8002534:	f895 3028 	ldrb.w	r3, [r5, #40]	; 0x28
 8002538:	d031      	beq.n	800259e <HAL_PCD_IRQHandler+0x462>
 800253a:	bb02      	cbnz	r2, 800257e <HAL_PCD_IRQHandler+0x442>
 800253c:	f8b0 2050 	ldrh.w	r2, [r0, #80]	; 0x50
 8002540:	011b      	lsls	r3, r3, #4
 8002542:	b292      	uxth	r2, r2
 8002544:	f200 4004 	addw	r0, r0, #1028	; 0x404
 8002548:	4410      	add	r0, r2
 800254a:	5a1a      	ldrh	r2, [r3, r0]
 800254c:	f3c2 0209 	ubfx	r2, r2, #0, #10
 8002550:	521a      	strh	r2, [r3, r0]
 8002552:	5a1a      	ldrh	r2, [r3, r0]
 8002554:	b292      	uxth	r2, r2
 8002556:	f442 4200 	orr.w	r2, r2, #32768	; 0x8000
 800255a:	521a      	strh	r2, [r3, r0]
 800255c:	e019      	b.n	8002592 <HAL_PCD_IRQHandler+0x456>
 800255e:	3306      	adds	r3, #6
 8002560:	4413      	add	r3, r2
 8002562:	f83c 5013 	ldrh.w	r5, [ip, r3, lsl #1]
 8002566:	f3c5 0509 	ubfx	r5, r5, #0, #10
 800256a:	2d00      	cmp	r5, #0
 800256c:	d0a8      	beq.n	80024c0 <HAL_PCD_IRQHandler+0x384>
 800256e:	e77c      	b.n	800246a <HAL_PCD_IRQHandler+0x32e>
 8002570:	f501 71b4 	add.w	r1, r1, #360	; 0x168
 8002574:	6820      	ldr	r0, [r4, #0]
 8002576:	4421      	add	r1, r4
 8002578:	f002 f830 	bl	80045dc <USB_EPStartXfer>
 800257c:	e7bc      	b.n	80024f8 <HAL_PCD_IRQHandler+0x3bc>
 800257e:	2a01      	cmp	r2, #1
 8002580:	d107      	bne.n	8002592 <HAL_PCD_IRQHandler+0x456>
 8002582:	f8b0 2050 	ldrh.w	r2, [r0, #80]	; 0x50
 8002586:	f200 4004 	addw	r0, r0, #1028	; 0x404
 800258a:	b292      	uxth	r2, r2
 800258c:	011b      	lsls	r3, r3, #4
 800258e:	4410      	add	r0, r2
 8002590:	5219      	strh	r1, [r3, r0]
 8002592:	f895 1028 	ldrb.w	r1, [r5, #40]	; 0x28
 8002596:	4620      	mov	r0, r4
 8002598:	f003 f8c7 	bl	800572a <HAL_PCD_DataInStageCallback>
 800259c:	e5dd      	b.n	800215a <HAL_PCD_IRQHandler+0x1e>
 800259e:	b932      	cbnz	r2, 80025ae <HAL_PCD_IRQHandler+0x472>
 80025a0:	f8b0 2050 	ldrh.w	r2, [r0, #80]	; 0x50
 80025a4:	011b      	lsls	r3, r3, #4
 80025a6:	b292      	uxth	r2, r2
 80025a8:	f200 400c 	addw	r0, r0, #1036	; 0x40c
 80025ac:	e7cc      	b.n	8002548 <HAL_PCD_IRQHandler+0x40c>
 80025ae:	2a01      	cmp	r2, #1
 80025b0:	d1ef      	bne.n	8002592 <HAL_PCD_IRQHandler+0x456>
 80025b2:	f8b0 2050 	ldrh.w	r2, [r0, #80]	; 0x50
 80025b6:	f200 400c 	addw	r0, r0, #1036	; 0x40c
 80025ba:	b292      	uxth	r2, r2
 80025bc:	011b      	lsls	r3, r3, #4
 80025be:	4410      	add	r0, r2
 80025c0:	521f      	strh	r7, [r3, r0]
 80025c2:	e7e6      	b.n	8002592 <HAL_PCD_IRQHandler+0x456>
 80025c4:	f895 1028 	ldrb.w	r1, [r5, #40]	; 0x28
 80025c8:	f417 7280 	ands.w	r2, r7, #256	; 0x100
 80025cc:	6c2b      	ldr	r3, [r5, #64]	; 0x40
 80025ce:	ea4f 0ac1 	mov.w	sl, r1, lsl #3
 80025d2:	f500 6e80 	add.w	lr, r0, #1024	; 0x400
 80025d6:	d11c      	bne.n	8002612 <HAL_PCD_IRQHandler+0x4d6>
 80025d8:	f8b0 7050 	ldrh.w	r7, [r0, #80]	; 0x50
 80025dc:	b2bf      	uxth	r7, r7
 80025de:	44ba      	add	sl, r7
 80025e0:	f10a 0a02 	add.w	sl, sl, #2
 80025e4:	f83e 701a 	ldrh.w	r7, [lr, sl, lsl #1]
 80025e8:	f3c7 0709 	ubfx	r7, r7, #0, #10
 80025ec:	429f      	cmp	r7, r3
 80025ee:	d301      	bcc.n	80025f4 <HAL_PCD_IRQHandler+0x4b8>
 80025f0:	642a      	str	r2, [r5, #64]	; 0x40
 80025f2:	e7d0      	b.n	8002596 <HAL_PCD_IRQHandler+0x45a>
 80025f4:	1bdb      	subs	r3, r3, r7
 80025f6:	642b      	str	r3, [r5, #64]	; 0x40
 80025f8:	6beb      	ldr	r3, [r5, #60]	; 0x3c
 80025fa:	fb06 cc0c 	mla	ip, r6, ip, ip
 80025fe:	443b      	add	r3, r7
 8002600:	63eb      	str	r3, [r5, #60]	; 0x3c
 8002602:	6c6b      	ldr	r3, [r5, #68]	; 0x44
 8002604:	eb04 010c 	add.w	r1, r4, ip
 8002608:	443b      	add	r3, r7
 800260a:	646b      	str	r3, [r5, #68]	; 0x44
 800260c:	f001 ffe6 	bl	80045dc <USB_EPStartXfer>
 8002610:	e5a3      	b.n	800215a <HAL_PCD_IRQHandler+0x1e>
 8002612:	f8b0 2050 	ldrh.w	r2, [r0, #80]	; 0x50
 8002616:	f017 0c40 	ands.w	ip, r7, #64	; 0x40
 800261a:	b292      	uxth	r2, r2
 800261c:	4452      	add	r2, sl
 800261e:	f407 4780 	and.w	r7, r7, #16384	; 0x4000
 8002622:	f000 80dc 	beq.w	80027de <HAL_PCD_IRQHandler+0x6a2>
 8002626:	3202      	adds	r2, #2
 8002628:	f83e 2012 	ldrh.w	r2, [lr, r2, lsl #1]
 800262c:	f04f 0c28 	mov.w	ip, #40	; 0x28
 8002630:	f3c2 0209 	ubfx	r2, r2, #0, #10
 8002634:	429a      	cmp	r2, r3
 8002636:	bf28      	it	cs
 8002638:	2300      	movcs	r3, #0
 800263a:	fb0c 4c06 	mla	ip, ip, r6, r4
 800263e:	bf38      	it	cc
 8002640:	1a9b      	subcc	r3, r3, r2
 8002642:	f8cc 3040 	str.w	r3, [ip, #64]	; 0x40
 8002646:	b2bf      	uxth	r7, r7
 8002648:	2b00      	cmp	r3, #0
 800264a:	d14d      	bne.n	80026e8 <HAL_PCD_IRQHandler+0x5ac>
 800264c:	f895 2029 	ldrb.w	r2, [r5, #41]	; 0x29
 8002650:	2a00      	cmp	r2, #0
 8002652:	d136      	bne.n	80026c2 <HAL_PCD_IRQHandler+0x586>
 8002654:	f8b0 6050 	ldrh.w	r6, [r0, #80]	; 0x50
 8002658:	010b      	lsls	r3, r1, #4
 800265a:	b2b2      	uxth	r2, r6
 800265c:	f200 4604 	addw	r6, r0, #1028	; 0x404
 8002660:	4416      	add	r6, r2
 8002662:	5af2      	ldrh	r2, [r6, r3]
 8002664:	f3c2 0209 	ubfx	r2, r2, #0, #10
 8002668:	52f2      	strh	r2, [r6, r3]
 800266a:	5af2      	ldrh	r2, [r6, r3]
 800266c:	b292      	uxth	r2, r2
 800266e:	f442 4200 	orr.w	r2, r2, #32768	; 0x8000
 8002672:	52f2      	strh	r2, [r6, r3]
 8002674:	f8b0 2050 	ldrh.w	r2, [r0, #80]	; 0x50
 8002678:	f200 400c 	addw	r0, r0, #1036	; 0x40c
 800267c:	b292      	uxth	r2, r2
 800267e:	4410      	add	r0, r2
 8002680:	5ac2      	ldrh	r2, [r0, r3]
 8002682:	f3c2 0209 	ubfx	r2, r2, #0, #10
 8002686:	52c2      	strh	r2, [r0, r3]
 8002688:	5ac2      	ldrh	r2, [r0, r3]
 800268a:	b292      	uxth	r2, r2
 800268c:	f442 4200 	orr.w	r2, r2, #32768	; 0x8000
 8002690:	52c2      	strh	r2, [r0, r3]
 8002692:	4620      	mov	r0, r4
 8002694:	f003 f849 	bl	800572a <HAL_PCD_DataInStageCallback>
 8002698:	2f00      	cmp	r7, #0
 800269a:	f000 80dc 	beq.w	8002856 <HAL_PCD_IRQHandler+0x71a>
 800269e:	f895 1028 	ldrb.w	r1, [r5, #40]	; 0x28
 80026a2:	6822      	ldr	r2, [r4, #0]
 80026a4:	f832 3021 	ldrh.w	r3, [r2, r1, lsl #2]
 80026a8:	f423 43e0 	bic.w	r3, r3, #28672	; 0x7000
 80026ac:	f023 0370 	bic.w	r3, r3, #112	; 0x70
 80026b0:	041b      	lsls	r3, r3, #16
 80026b2:	0c1b      	lsrs	r3, r3, #16
 80026b4:	f443 4340 	orr.w	r3, r3, #49152	; 0xc000
 80026b8:	f043 0380 	orr.w	r3, r3, #128	; 0x80
 80026bc:	f822 3021 	strh.w	r3, [r2, r1, lsl #2]
 80026c0:	e0c9      	b.n	8002856 <HAL_PCD_IRQHandler+0x71a>
 80026c2:	2a01      	cmp	r2, #1
 80026c4:	d1e5      	bne.n	8002692 <HAL_PCD_IRQHandler+0x556>
 80026c6:	f8b0 6050 	ldrh.w	r6, [r0, #80]	; 0x50
 80026ca:	010a      	lsls	r2, r1, #4
 80026cc:	fa1f fc86 	uxth.w	ip, r6
 80026d0:	f200 4604 	addw	r6, r0, #1028	; 0x404
 80026d4:	4466      	add	r6, ip
 80026d6:	52b3      	strh	r3, [r6, r2]
 80026d8:	f8b0 6050 	ldrh.w	r6, [r0, #80]	; 0x50
 80026dc:	f200 400c 	addw	r0, r0, #1036	; 0x40c
 80026e0:	b2b6      	uxth	r6, r6
 80026e2:	4430      	add	r0, r6
 80026e4:	5283      	strh	r3, [r0, r2]
 80026e6:	e7d4      	b.n	8002692 <HAL_PCD_IRQHandler+0x556>
 80026e8:	b16f      	cbz	r7, 8002706 <HAL_PCD_IRQHandler+0x5ca>
 80026ea:	f830 3021 	ldrh.w	r3, [r0, r1, lsl #2]
 80026ee:	f423 43e0 	bic.w	r3, r3, #28672	; 0x7000
 80026f2:	f023 0370 	bic.w	r3, r3, #112	; 0x70
 80026f6:	041b      	lsls	r3, r3, #16
 80026f8:	0c1b      	lsrs	r3, r3, #16
 80026fa:	f443 4340 	orr.w	r3, r3, #49152	; 0xc000
 80026fe:	f043 0380 	orr.w	r3, r3, #128	; 0x80
 8002702:	f820 3021 	strh.w	r3, [r0, r1, lsl #2]
 8002706:	2728      	movs	r7, #40	; 0x28
 8002708:	fb07 4706 	mla	r7, r7, r6, r4
 800270c:	f897 304c 	ldrb.w	r3, [r7, #76]	; 0x4c
 8002710:	2b01      	cmp	r3, #1
 8002712:	f040 80a0 	bne.w	8002856 <HAL_PCD_IRQHandler+0x71a>
 8002716:	6bfb      	ldr	r3, [r7, #60]	; 0x3c
 8002718:	f8d7 e048 	ldr.w	lr, [r7, #72]	; 0x48
 800271c:	eb03 0c02 	add.w	ip, r3, r2
 8002720:	6c7b      	ldr	r3, [r7, #68]	; 0x44
 8002722:	f8c7 c03c 	str.w	ip, [r7, #60]	; 0x3c
 8002726:	4413      	add	r3, r2
 8002728:	647b      	str	r3, [r7, #68]	; 0x44
 800272a:	6bbb      	ldr	r3, [r7, #56]	; 0x38
 800272c:	459e      	cmp	lr, r3
 800272e:	d32c      	bcc.n	800278a <HAL_PCD_IRQHandler+0x64e>
 8002730:	ebae 0203 	sub.w	r2, lr, r3
 8002734:	64ba      	str	r2, [r7, #72]	; 0x48
 8002736:	f895 2029 	ldrb.w	r2, [r5, #41]	; 0x29
 800273a:	fa1f fe83 	uxth.w	lr, r3
 800273e:	2a00      	cmp	r2, #0
 8002740:	d141      	bne.n	80027c6 <HAL_PCD_IRQHandler+0x68a>
 8002742:	f8b0 2050 	ldrh.w	r2, [r0, #80]	; 0x50
 8002746:	f200 4704 	addw	r7, r0, #1028	; 0x404
 800274a:	b292      	uxth	r2, r2
 800274c:	443a      	add	r2, r7
 800274e:	0109      	lsls	r1, r1, #4
 8002750:	5a57      	ldrh	r7, [r2, r1]
 8002752:	2b3e      	cmp	r3, #62	; 0x3e
 8002754:	f3c7 0709 	ubfx	r7, r7, #0, #10
 8002758:	5257      	strh	r7, [r2, r1]
 800275a:	d923      	bls.n	80027a4 <HAL_PCD_IRQHandler+0x668>
 800275c:	06df      	lsls	r7, r3, #27
 800275e:	5a57      	ldrh	r7, [r2, r1]
 8002760:	ea4f 1a53 	mov.w	sl, r3, lsr #5
 8002764:	bf08      	it	eq
 8002766:	f10a 3aff 	addeq.w	sl, sl, #4294967295
 800276a:	b2bf      	uxth	r7, r7
 800276c:	ea47 278a 	orr.w	r7, r7, sl, lsl #10
 8002770:	ea47 0708 	orr.w	r7, r7, r8
 8002774:	b2bf      	uxth	r7, r7
 8002776:	5257      	strh	r7, [r2, r1]
 8002778:	2128      	movs	r1, #40	; 0x28
 800277a:	4673      	mov	r3, lr
 800277c:	fb01 4606 	mla	r6, r1, r6, r4
 8002780:	4661      	mov	r1, ip
 8002782:	8e32      	ldrh	r2, [r6, #48]	; 0x30
 8002784:	f001 ff1a 	bl	80045bc <USB_WritePMA>
 8002788:	e065      	b.n	8002856 <HAL_PCD_IRQHandler+0x71a>
 800278a:	f1be 0f00 	cmp.w	lr, #0
 800278e:	d103      	bne.n	8002798 <HAL_PCD_IRQHandler+0x65c>
 8002790:	4613      	mov	r3, r2
 8002792:	f887 e04c 	strb.w	lr, [r7, #76]	; 0x4c
 8002796:	e7ce      	b.n	8002736 <HAL_PCD_IRQHandler+0x5fa>
 8002798:	2300      	movs	r3, #0
 800279a:	f887 304c 	strb.w	r3, [r7, #76]	; 0x4c
 800279e:	64bb      	str	r3, [r7, #72]	; 0x48
 80027a0:	4673      	mov	r3, lr
 80027a2:	e7c8      	b.n	8002736 <HAL_PCD_IRQHandler+0x5fa>
 80027a4:	b92b      	cbnz	r3, 80027b2 <HAL_PCD_IRQHandler+0x676>
 80027a6:	5a53      	ldrh	r3, [r2, r1]
 80027a8:	b29b      	uxth	r3, r3
 80027aa:	f443 4300 	orr.w	r3, r3, #32768	; 0x8000
 80027ae:	5253      	strh	r3, [r2, r1]
 80027b0:	e7e2      	b.n	8002778 <HAL_PCD_IRQHandler+0x63c>
 80027b2:	085f      	lsrs	r7, r3, #1
 80027b4:	07db      	lsls	r3, r3, #31
 80027b6:	5a53      	ldrh	r3, [r2, r1]
 80027b8:	bf48      	it	mi
 80027ba:	3701      	addmi	r7, #1
 80027bc:	b29b      	uxth	r3, r3
 80027be:	ea43 2387 	orr.w	r3, r3, r7, lsl #10
 80027c2:	b29b      	uxth	r3, r3
 80027c4:	e7f3      	b.n	80027ae <HAL_PCD_IRQHandler+0x672>
 80027c6:	2a01      	cmp	r2, #1
 80027c8:	d1d6      	bne.n	8002778 <HAL_PCD_IRQHandler+0x63c>
 80027ca:	f8b0 3050 	ldrh.w	r3, [r0, #80]	; 0x50
 80027ce:	0109      	lsls	r1, r1, #4
 80027d0:	b29a      	uxth	r2, r3
 80027d2:	f200 4304 	addw	r3, r0, #1028	; 0x404
 80027d6:	4413      	add	r3, r2
 80027d8:	f823 e001 	strh.w	lr, [r3, r1]
 80027dc:	e7cc      	b.n	8002778 <HAL_PCD_IRQHandler+0x63c>
 80027de:	3206      	adds	r2, #6
 80027e0:	f83e 2012 	ldrh.w	r2, [lr, r2, lsl #1]
 80027e4:	b2bf      	uxth	r7, r7
 80027e6:	f3c2 0209 	ubfx	r2, r2, #0, #10
 80027ea:	429a      	cmp	r2, r3
 80027ec:	bf88      	it	hi
 80027ee:	4663      	movhi	r3, ip
 80027f0:	f04f 0c28 	mov.w	ip, #40	; 0x28
 80027f4:	fb0c 4c06 	mla	ip, ip, r6, r4
 80027f8:	bf98      	it	ls
 80027fa:	1a9b      	subls	r3, r3, r2
 80027fc:	f8cc 3040 	str.w	r3, [ip, #64]	; 0x40
 8002800:	2b00      	cmp	r3, #0
 8002802:	d14e      	bne.n	80028a2 <HAL_PCD_IRQHandler+0x766>
 8002804:	f895 2029 	ldrb.w	r2, [r5, #41]	; 0x29
 8002808:	2a00      	cmp	r2, #0
 800280a:	d137      	bne.n	800287c <HAL_PCD_IRQHandler+0x740>
 800280c:	f8b0 6050 	ldrh.w	r6, [r0, #80]	; 0x50
 8002810:	010b      	lsls	r3, r1, #4
 8002812:	b2b2      	uxth	r2, r6
 8002814:	f200 4604 	addw	r6, r0, #1028	; 0x404
 8002818:	4416      	add	r6, r2
 800281a:	5af2      	ldrh	r2, [r6, r3]
 800281c:	f3c2 0209 	ubfx	r2, r2, #0, #10
 8002820:	52f2      	strh	r2, [r6, r3]
 8002822:	5af2      	ldrh	r2, [r6, r3]
 8002824:	b292      	uxth	r2, r2
 8002826:	f442 4200 	orr.w	r2, r2, #32768	; 0x8000
 800282a:	52f2      	strh	r2, [r6, r3]
 800282c:	f8b0 2050 	ldrh.w	r2, [r0, #80]	; 0x50
 8002830:	f200 400c 	addw	r0, r0, #1036	; 0x40c
 8002834:	b292      	uxth	r2, r2
 8002836:	4410      	add	r0, r2
 8002838:	5ac2      	ldrh	r2, [r0, r3]
 800283a:	f3c2 0209 	ubfx	r2, r2, #0, #10
 800283e:	52c2      	strh	r2, [r0, r3]
 8002840:	5ac2      	ldrh	r2, [r0, r3]
 8002842:	b292      	uxth	r2, r2
 8002844:	f442 4200 	orr.w	r2, r2, #32768	; 0x8000
 8002848:	52c2      	strh	r2, [r0, r3]
 800284a:	4620      	mov	r0, r4
 800284c:	f002 ff6d 	bl	800572a <HAL_PCD_DataInStageCallback>
 8002850:	2f00      	cmp	r7, #0
 8002852:	f43f af24 	beq.w	800269e <HAL_PCD_IRQHandler+0x562>
 8002856:	f895 1028 	ldrb.w	r1, [r5, #40]	; 0x28
 800285a:	6822      	ldr	r2, [r4, #0]
 800285c:	f832 3021 	ldrh.w	r3, [r2, r1, lsl #2]
 8002860:	b29b      	uxth	r3, r3
 8002862:	f423 43e0 	bic.w	r3, r3, #28672	; 0x7000
 8002866:	f023 0340 	bic.w	r3, r3, #64	; 0x40
 800286a:	f083 0330 	eor.w	r3, r3, #48	; 0x30
 800286e:	f443 4300 	orr.w	r3, r3, #32768	; 0x8000
 8002872:	f043 0380 	orr.w	r3, r3, #128	; 0x80
 8002876:	f822 3021 	strh.w	r3, [r2, r1, lsl #2]
 800287a:	e46e      	b.n	800215a <HAL_PCD_IRQHandler+0x1e>
 800287c:	2a01      	cmp	r2, #1
 800287e:	d1e4      	bne.n	800284a <HAL_PCD_IRQHandler+0x70e>
 8002880:	f8b0 6050 	ldrh.w	r6, [r0, #80]	; 0x50
 8002884:	010a      	lsls	r2, r1, #4
 8002886:	fa1f fc86 	uxth.w	ip, r6
 800288a:	f200 4604 	addw	r6, r0, #1028	; 0x404
 800288e:	4466      	add	r6, ip
 8002890:	52b3      	strh	r3, [r6, r2]
 8002892:	f8b0 6050 	ldrh.w	r6, [r0, #80]	; 0x50
 8002896:	f200 400c 	addw	r0, r0, #1036	; 0x40c
 800289a:	b2b6      	uxth	r6, r6
 800289c:	4430      	add	r0, r6
 800289e:	5283      	strh	r3, [r0, r2]
 80028a0:	e7d3      	b.n	800284a <HAL_PCD_IRQHandler+0x70e>
 80028a2:	b96f      	cbnz	r7, 80028c0 <HAL_PCD_IRQHandler+0x784>
 80028a4:	f830 3021 	ldrh.w	r3, [r0, r1, lsl #2]
 80028a8:	f423 43e0 	bic.w	r3, r3, #28672	; 0x7000
 80028ac:	f023 0370 	bic.w	r3, r3, #112	; 0x70
 80028b0:	041b      	lsls	r3, r3, #16
 80028b2:	0c1b      	lsrs	r3, r3, #16
 80028b4:	f443 4340 	orr.w	r3, r3, #49152	; 0xc000
 80028b8:	f043 0380 	orr.w	r3, r3, #128	; 0x80
 80028bc:	f820 3021 	strh.w	r3, [r0, r1, lsl #2]
 80028c0:	f04f 0c28 	mov.w	ip, #40	; 0x28
 80028c4:	fb0c 4c06 	mla	ip, ip, r6, r4
 80028c8:	f89c 304c 	ldrb.w	r3, [ip, #76]	; 0x4c
 80028cc:	2b01      	cmp	r3, #1
 80028ce:	d1c2      	bne.n	8002856 <HAL_PCD_IRQHandler+0x71a>
 80028d0:	f8dc 3044 	ldr.w	r3, [ip, #68]	; 0x44
 80028d4:	f8dc 703c 	ldr.w	r7, [ip, #60]	; 0x3c
 80028d8:	4413      	add	r3, r2
 80028da:	f8dc e048 	ldr.w	lr, [ip, #72]	; 0x48
 80028de:	f8cc 3044 	str.w	r3, [ip, #68]	; 0x44
 80028e2:	f8dc 3038 	ldr.w	r3, [ip, #56]	; 0x38
 80028e6:	4417      	add	r7, r2
 80028e8:	459e      	cmp	lr, r3
 80028ea:	f8cc 703c 	str.w	r7, [ip, #60]	; 0x3c
 80028ee:	d326      	bcc.n	800293e <HAL_PCD_IRQHandler+0x802>
 80028f0:	ebae 0203 	sub.w	r2, lr, r3
 80028f4:	f8cc 2048 	str.w	r2, [ip, #72]	; 0x48
 80028f8:	f895 2029 	ldrb.w	r2, [r5, #41]	; 0x29
 80028fc:	fa1f fc83 	uxth.w	ip, r3
 8002900:	2a00      	cmp	r2, #0
 8002902:	d142      	bne.n	800298a <HAL_PCD_IRQHandler+0x84e>
 8002904:	f8b0 2050 	ldrh.w	r2, [r0, #80]	; 0x50
 8002908:	f200 4e0c 	addw	lr, r0, #1036	; 0x40c
 800290c:	b292      	uxth	r2, r2
 800290e:	4472      	add	r2, lr
 8002910:	0109      	lsls	r1, r1, #4
 8002912:	f832 e001 	ldrh.w	lr, [r2, r1]
 8002916:	2b3e      	cmp	r3, #62	; 0x3e
 8002918:	f3ce 0e09 	ubfx	lr, lr, #0, #10
 800291c:	f822 e001 	strh.w	lr, [r2, r1]
 8002920:	d91b      	bls.n	800295a <HAL_PCD_IRQHandler+0x81e>
 8002922:	ea4f 1e53 	mov.w	lr, r3, lsr #5
 8002926:	06db      	lsls	r3, r3, #27
 8002928:	5a53      	ldrh	r3, [r2, r1]
 800292a:	bf08      	it	eq
 800292c:	f10e 3eff 	addeq.w	lr, lr, #4294967295
 8002930:	b29b      	uxth	r3, r3
 8002932:	ea43 238e 	orr.w	r3, r3, lr, lsl #10
 8002936:	ea43 0308 	orr.w	r3, r3, r8
 800293a:	b29b      	uxth	r3, r3
 800293c:	e012      	b.n	8002964 <HAL_PCD_IRQHandler+0x828>
 800293e:	f1be 0f00 	cmp.w	lr, #0
 8002942:	d103      	bne.n	800294c <HAL_PCD_IRQHandler+0x810>
 8002944:	4613      	mov	r3, r2
 8002946:	f88c e04c 	strb.w	lr, [ip, #76]	; 0x4c
 800294a:	e7d5      	b.n	80028f8 <HAL_PCD_IRQHandler+0x7bc>
 800294c:	2300      	movs	r3, #0
 800294e:	f8cc 3048 	str.w	r3, [ip, #72]	; 0x48
 8002952:	f88c 304c 	strb.w	r3, [ip, #76]	; 0x4c
 8002956:	4673      	mov	r3, lr
 8002958:	e7ce      	b.n	80028f8 <HAL_PCD_IRQHandler+0x7bc>
 800295a:	b95b      	cbnz	r3, 8002974 <HAL_PCD_IRQHandler+0x838>
 800295c:	5a53      	ldrh	r3, [r2, r1]
 800295e:	b29b      	uxth	r3, r3
 8002960:	f443 4300 	orr.w	r3, r3, #32768	; 0x8000
 8002964:	5253      	strh	r3, [r2, r1]
 8002966:	2128      	movs	r1, #40	; 0x28
 8002968:	fb01 4606 	mla	r6, r1, r6, r4
 800296c:	4663      	mov	r3, ip
 800296e:	4639      	mov	r1, r7
 8002970:	8e72      	ldrh	r2, [r6, #50]	; 0x32
 8002972:	e707      	b.n	8002784 <HAL_PCD_IRQHandler+0x648>
 8002974:	ea4f 0e53 	mov.w	lr, r3, lsr #1
 8002978:	07db      	lsls	r3, r3, #31
 800297a:	5a53      	ldrh	r3, [r2, r1]
 800297c:	bf48      	it	mi
 800297e:	f10e 0e01 	addmi.w	lr, lr, #1
 8002982:	b29b      	uxth	r3, r3
 8002984:	ea43 238e 	orr.w	r3, r3, lr, lsl #10
 8002988:	e7d7      	b.n	800293a <HAL_PCD_IRQHandler+0x7fe>
 800298a:	2a01      	cmp	r2, #1
 800298c:	d1eb      	bne.n	8002966 <HAL_PCD_IRQHandler+0x82a>
 800298e:	f8b0 3050 	ldrh.w	r3, [r0, #80]	; 0x50
 8002992:	b29a      	uxth	r2, r3
 8002994:	f200 430c 	addw	r3, r0, #1036	; 0x40c
 8002998:	4413      	add	r3, r2
 800299a:	010a      	lsls	r2, r1, #4
 800299c:	f823 c002 	strh.w	ip, [r3, r2]
 80029a0:	e7e1      	b.n	8002966 <HAL_PCD_IRQHandler+0x82a>
 80029a2:	0546      	lsls	r6, r0, #21
 80029a4:	d512      	bpl.n	80029cc <HAL_PCD_IRQHandler+0x890>
 80029a6:	6822      	ldr	r2, [r4, #0]
 80029a8:	4620      	mov	r0, r4
 80029aa:	f8b2 3044 	ldrh.w	r3, [r2, #68]	; 0x44
 80029ae:	f423 6380 	bic.w	r3, r3, #1024	; 0x400
 80029b2:	041b      	lsls	r3, r3, #16
 80029b4:	0c1b      	lsrs	r3, r3, #16
 80029b6:	f8a2 3044 	strh.w	r3, [r2, #68]	; 0x44
 80029ba:	f002 fec2 	bl	8005742 <HAL_PCD_ResetCallback>
 80029be:	4629      	mov	r1, r5
 80029c0:	4620      	mov	r0, r4
 80029c2:	b005      	add	sp, #20
 80029c4:	e8bd 4ff0 	ldmia.w	sp!, {r4, r5, r6, r7, r8, r9, sl, fp, lr}
 80029c8:	f7ff bba3 	b.w	8002112 <HAL_PCD_SetAddress>
 80029cc:	0441      	lsls	r1, r0, #17
 80029ce:	d50a      	bpl.n	80029e6 <HAL_PCD_IRQHandler+0x8aa>
 80029d0:	6822      	ldr	r2, [r4, #0]
 80029d2:	f8b2 3044 	ldrh.w	r3, [r2, #68]	; 0x44
 80029d6:	f423 4380 	bic.w	r3, r3, #16384	; 0x4000
 80029da:	041b      	lsls	r3, r3, #16
 80029dc:	0c1b      	lsrs	r3, r3, #16
 80029de:	f8a2 3044 	strh.w	r3, [r2, #68]	; 0x44
 80029e2:	f7ff bbbf 	b.w	8002164 <HAL_PCD_IRQHandler+0x28>
 80029e6:	0482      	lsls	r2, r0, #18
 80029e8:	d505      	bpl.n	80029f6 <HAL_PCD_IRQHandler+0x8ba>
 80029ea:	6822      	ldr	r2, [r4, #0]
 80029ec:	f8b2 3044 	ldrh.w	r3, [r2, #68]	; 0x44
 80029f0:	f423 5300 	bic.w	r3, r3, #8192	; 0x2000
 80029f4:	e7f1      	b.n	80029da <HAL_PCD_IRQHandler+0x89e>
 80029f6:	04c3      	lsls	r3, r0, #19
 80029f8:	d519      	bpl.n	8002a2e <HAL_PCD_IRQHandler+0x8f2>
 80029fa:	6822      	ldr	r2, [r4, #0]
 80029fc:	4620      	mov	r0, r4
 80029fe:	f8b2 3040 	ldrh.w	r3, [r2, #64]	; 0x40
 8002a02:	f023 0304 	bic.w	r3, r3, #4
 8002a06:	041b      	lsls	r3, r3, #16
 8002a08:	0c1b      	lsrs	r3, r3, #16
 8002a0a:	f8a2 3040 	strh.w	r3, [r2, #64]	; 0x40
 8002a0e:	f8b2 3040 	ldrh.w	r3, [r2, #64]	; 0x40
 8002a12:	f023 0308 	bic.w	r3, r3, #8
 8002a16:	041b      	lsls	r3, r3, #16
 8002a18:	0c1b      	lsrs	r3, r3, #16
 8002a1a:	f8a2 3040 	strh.w	r3, [r2, #64]	; 0x40
 8002a1e:	f002 feb3 	bl	8005788 <HAL_PCD_ResumeCallback>
 8002a22:	6822      	ldr	r2, [r4, #0]
 8002a24:	f8b2 3044 	ldrh.w	r3, [r2, #68]	; 0x44
 8002a28:	f423 5380 	bic.w	r3, r3, #4096	; 0x1000
 8002a2c:	e7d5      	b.n	80029da <HAL_PCD_IRQHandler+0x89e>
 8002a2e:	0507      	lsls	r7, r0, #20
 8002a30:	d548      	bpl.n	8002ac4 <HAL_PCD_IRQHandler+0x988>
 8002a32:	4668      	mov	r0, sp
 8002a34:	6822      	ldr	r2, [r4, #0]
 8002a36:	4606      	mov	r6, r0
 8002a38:	4611      	mov	r1, r2
 8002a3a:	4613      	mov	r3, r2
 8002a3c:	f102 0520 	add.w	r5, r2, #32
 8002a40:	f833 7b04 	ldrh.w	r7, [r3], #4
 8002a44:	429d      	cmp	r5, r3
 8002a46:	f826 7b02 	strh.w	r7, [r6], #2
 8002a4a:	d1f9      	bne.n	8002a40 <HAL_PCD_IRQHandler+0x904>
 8002a4c:	f8b2 3040 	ldrh.w	r3, [r2, #64]	; 0x40
 8002a50:	b29b      	uxth	r3, r3
 8002a52:	f043 0301 	orr.w	r3, r3, #1
 8002a56:	f8a2 3040 	strh.w	r3, [r2, #64]	; 0x40
 8002a5a:	f8b2 3040 	ldrh.w	r3, [r2, #64]	; 0x40
 8002a5e:	f023 0301 	bic.w	r3, r3, #1
 8002a62:	041b      	lsls	r3, r3, #16
 8002a64:	0c1b      	lsrs	r3, r3, #16
 8002a66:	f8a2 3040 	strh.w	r3, [r2, #64]	; 0x40
 8002a6a:	f8b2 3044 	ldrh.w	r3, [r2, #68]	; 0x44
 8002a6e:	055e      	lsls	r6, r3, #21
 8002a70:	d5fb      	bpl.n	8002a6a <HAL_PCD_IRQHandler+0x92e>
 8002a72:	f8b2 3044 	ldrh.w	r3, [r2, #68]	; 0x44
 8002a76:	f423 6380 	bic.w	r3, r3, #1024	; 0x400
 8002a7a:	041b      	lsls	r3, r3, #16
 8002a7c:	0c1b      	lsrs	r3, r3, #16
 8002a7e:	f8a2 3044 	strh.w	r3, [r2, #68]	; 0x44
 8002a82:	f830 3b02 	ldrh.w	r3, [r0], #2
 8002a86:	f821 3b04 	strh.w	r3, [r1], #4
 8002a8a:	428d      	cmp	r5, r1
 8002a8c:	d1f9      	bne.n	8002a82 <HAL_PCD_IRQHandler+0x946>
 8002a8e:	f8b2 3040 	ldrh.w	r3, [r2, #64]	; 0x40
 8002a92:	4620      	mov	r0, r4
 8002a94:	b29b      	uxth	r3, r3
 8002a96:	f043 0308 	orr.w	r3, r3, #8
 8002a9a:	f8a2 3040 	strh.w	r3, [r2, #64]	; 0x40
 8002a9e:	f8b2 3044 	ldrh.w	r3, [r2, #68]	; 0x44
 8002aa2:	f423 6300 	bic.w	r3, r3, #2048	; 0x800
 8002aa6:	041b      	lsls	r3, r3, #16
 8002aa8:	0c1b      	lsrs	r3, r3, #16
 8002aaa:	f8a2 3044 	strh.w	r3, [r2, #68]	; 0x44
 8002aae:	f8b2 3040 	ldrh.w	r3, [r2, #64]	; 0x40
 8002ab2:	b29b      	uxth	r3, r3
 8002ab4:	f043 0304 	orr.w	r3, r3, #4
 8002ab8:	f8a2 3040 	strh.w	r3, [r2, #64]	; 0x40
 8002abc:	f002 fe54 	bl	8005768 <HAL_PCD_SuspendCallback>
 8002ac0:	f7ff bb50 	b.w	8002164 <HAL_PCD_IRQHandler+0x28>
 8002ac4:	0582      	lsls	r2, r0, #22
 8002ac6:	d50d      	bpl.n	8002ae4 <HAL_PCD_IRQHandler+0x9a8>
 8002ac8:	6822      	ldr	r2, [r4, #0]
 8002aca:	4620      	mov	r0, r4
 8002acc:	f8b2 3044 	ldrh.w	r3, [r2, #68]	; 0x44
 8002ad0:	f423 7300 	bic.w	r3, r3, #512	; 0x200
 8002ad4:	041b      	lsls	r3, r3, #16
 8002ad6:	0c1b      	lsrs	r3, r3, #16
 8002ad8:	f8a2 3044 	strh.w	r3, [r2, #68]	; 0x44
 8002adc:	f002 fe2d 	bl	800573a <HAL_PCD_SOFCallback>
 8002ae0:	f7ff bb40 	b.w	8002164 <HAL_PCD_IRQHandler+0x28>
 8002ae4:	05c3      	lsls	r3, r0, #23
 8002ae6:	f57f ab3d 	bpl.w	8002164 <HAL_PCD_IRQHandler+0x28>
 8002aea:	6822      	ldr	r2, [r4, #0]
 8002aec:	f8b2 3044 	ldrh.w	r3, [r2, #68]	; 0x44
 8002af0:	f423 7380 	bic.w	r3, r3, #256	; 0x100
 8002af4:	e771      	b.n	80029da <HAL_PCD_IRQHandler+0x89e>
 8002af6:	bf00      	nop

08002af8 <HAL_PCD_EP_Open>:
 8002af8:	f011 0f80 	tst.w	r1, #128	; 0x80
 8002afc:	b570      	push	{r4, r5, r6, lr}
 8002afe:	4605      	mov	r5, r0
 8002b00:	f04f 0428 	mov.w	r4, #40	; 0x28
 8002b04:	f001 0007 	and.w	r0, r1, #7
 8002b08:	d01a      	beq.n	8002b40 <HAL_PCD_EP_Open+0x48>
 8002b0a:	2601      	movs	r6, #1
 8002b0c:	fb00 4104 	mla	r1, r0, r4, r4
 8002b10:	4429      	add	r1, r5
 8002b12:	704e      	strb	r6, [r1, #1]
 8002b14:	2b02      	cmp	r3, #2
 8002b16:	70cb      	strb	r3, [r1, #3]
 8002b18:	bf08      	it	eq
 8002b1a:	2300      	moveq	r3, #0
 8002b1c:	7008      	strb	r0, [r1, #0]
 8002b1e:	bf08      	it	eq
 8002b20:	710b      	strbeq	r3, [r1, #4]
 8002b22:	610a      	str	r2, [r1, #16]
 8002b24:	f895 32a8 	ldrb.w	r3, [r5, #680]	; 0x2a8
 8002b28:	2b01      	cmp	r3, #1
 8002b2a:	d012      	beq.n	8002b52 <HAL_PCD_EP_Open+0x5a>
 8002b2c:	2301      	movs	r3, #1
 8002b2e:	6828      	ldr	r0, [r5, #0]
 8002b30:	f885 32a8 	strb.w	r3, [r5, #680]	; 0x2a8
 8002b34:	f001 fa96 	bl	8004064 <USB_ActivateEndpoint>
 8002b38:	2000      	movs	r0, #0
 8002b3a:	f885 02a8 	strb.w	r0, [r5, #680]	; 0x2a8
 8002b3e:	bd70      	pop	{r4, r5, r6, pc}
 8002b40:	2600      	movs	r6, #0
 8002b42:	4344      	muls	r4, r0
 8002b44:	f504 71b4 	add.w	r1, r4, #360	; 0x168
 8002b48:	442c      	add	r4, r5
 8002b4a:	4429      	add	r1, r5
 8002b4c:	f884 6169 	strb.w	r6, [r4, #361]	; 0x169
 8002b50:	e7e0      	b.n	8002b14 <HAL_PCD_EP_Open+0x1c>
 8002b52:	2002      	movs	r0, #2
 8002b54:	e7f3      	b.n	8002b3e <HAL_PCD_EP_Open+0x46>

08002b56 <HAL_PCD_EP_Close>:
 8002b56:	f011 0f80 	tst.w	r1, #128	; 0x80
 8002b5a:	b510      	push	{r4, lr}
 8002b5c:	f04f 0328 	mov.w	r3, #40	; 0x28
 8002b60:	4604      	mov	r4, r0
 8002b62:	f001 0207 	and.w	r2, r1, #7
 8002b66:	d013      	beq.n	8002b90 <HAL_PCD_EP_Close+0x3a>
 8002b68:	fb02 3103 	mla	r1, r2, r3, r3
 8002b6c:	4401      	add	r1, r0
 8002b6e:	2001      	movs	r0, #1
 8002b70:	7048      	strb	r0, [r1, #1]
 8002b72:	700a      	strb	r2, [r1, #0]
 8002b74:	f894 32a8 	ldrb.w	r3, [r4, #680]	; 0x2a8
 8002b78:	2b01      	cmp	r3, #1
 8002b7a:	d012      	beq.n	8002ba2 <HAL_PCD_EP_Close+0x4c>
 8002b7c:	2301      	movs	r3, #1
 8002b7e:	6820      	ldr	r0, [r4, #0]
 8002b80:	f884 32a8 	strb.w	r3, [r4, #680]	; 0x2a8
 8002b84:	f001 fbd0 	bl	8004328 <USB_DeactivateEndpoint>
 8002b88:	2000      	movs	r0, #0
 8002b8a:	f884 02a8 	strb.w	r0, [r4, #680]	; 0x2a8
 8002b8e:	bd10      	pop	{r4, pc}
 8002b90:	4353      	muls	r3, r2
 8002b92:	f503 71b4 	add.w	r1, r3, #360	; 0x168
 8002b96:	4401      	add	r1, r0
 8002b98:	4403      	add	r3, r0
 8002b9a:	2000      	movs	r0, #0
 8002b9c:	f883 0169 	strb.w	r0, [r3, #361]	; 0x169
 8002ba0:	e7e7      	b.n	8002b72 <HAL_PCD_EP_Close+0x1c>
 8002ba2:	2002      	movs	r0, #2
 8002ba4:	e7f3      	b.n	8002b8e <HAL_PCD_EP_Close+0x38>

08002ba6 <HAL_PCD_EP_Receive>:
 8002ba6:	b570      	push	{r4, r5, r6, lr}
 8002ba8:	f001 0507 	and.w	r5, r1, #7
 8002bac:	2128      	movs	r1, #40	; 0x28
 8002bae:	2600      	movs	r6, #0
 8002bb0:	4369      	muls	r1, r5
 8002bb2:	1844      	adds	r4, r0, r1
 8002bb4:	f501 71b4 	add.w	r1, r1, #360	; 0x168
 8002bb8:	4401      	add	r1, r0
 8002bba:	e9c4 235f 	strd	r2, r3, [r4, #380]	; 0x17c
 8002bbe:	f8c4 6184 	str.w	r6, [r4, #388]	; 0x184
 8002bc2:	f884 6169 	strb.w	r6, [r4, #361]	; 0x169
 8002bc6:	f884 5168 	strb.w	r5, [r4, #360]	; 0x168
 8002bca:	6800      	ldr	r0, [r0, #0]
 8002bcc:	f001 fd06 	bl	80045dc <USB_EPStartXfer>
 8002bd0:	4630      	mov	r0, r6
 8002bd2:	bd70      	pop	{r4, r5, r6, pc}

08002bd4 <HAL_PCD_EP_GetRxCount>:
 8002bd4:	2328      	movs	r3, #40	; 0x28
 8002bd6:	f001 0107 	and.w	r1, r1, #7
 8002bda:	fb03 0001 	mla	r0, r3, r1, r0
 8002bde:	f8d0 0184 	ldr.w	r0, [r0, #388]	; 0x184
 8002be2:	4770      	bx	lr

08002be4 <HAL_PCD_EP_Transmit>:
 8002be4:	b570      	push	{r4, r5, r6, lr}
 8002be6:	f001 0507 	and.w	r5, r1, #7
 8002bea:	2128      	movs	r1, #40	; 0x28
 8002bec:	fb01 0405 	mla	r4, r1, r5, r0
 8002bf0:	2600      	movs	r6, #0
 8002bf2:	e9c4 230f 	strd	r2, r3, [r4, #60]	; 0x3c
 8002bf6:	2201      	movs	r2, #1
 8002bf8:	fb05 1101 	mla	r1, r5, r1, r1
 8002bfc:	f884 204c 	strb.w	r2, [r4, #76]	; 0x4c
 8002c00:	4401      	add	r1, r0
 8002c02:	64a3      	str	r3, [r4, #72]	; 0x48
 8002c04:	6466      	str	r6, [r4, #68]	; 0x44
 8002c06:	f884 2029 	strb.w	r2, [r4, #41]	; 0x29
 8002c0a:	f884 5028 	strb.w	r5, [r4, #40]	; 0x28
 8002c0e:	6800      	ldr	r0, [r0, #0]
 8002c10:	f001 fce4 	bl	80045dc <USB_EPStartXfer>
 8002c14:	4630      	mov	r0, r6
 8002c16:	bd70      	pop	{r4, r5, r6, pc}

08002c18 <HAL_PCD_EP_SetStall>:
 8002c18:	b538      	push	{r3, r4, r5, lr}
 8002c1a:	6843      	ldr	r3, [r0, #4]
 8002c1c:	f001 0507 	and.w	r5, r1, #7
 8002c20:	429d      	cmp	r5, r3
 8002c22:	4604      	mov	r4, r0
 8002c24:	d828      	bhi.n	8002c78 <HAL_PCD_EP_SetStall+0x60>
 8002c26:	f011 0f80 	tst.w	r1, #128	; 0x80
 8002c2a:	f04f 0328 	mov.w	r3, #40	; 0x28
 8002c2e:	d01a      	beq.n	8002c66 <HAL_PCD_EP_SetStall+0x4e>
 8002c30:	2201      	movs	r2, #1
 8002c32:	fb05 3103 	mla	r1, r5, r3, r3
 8002c36:	4401      	add	r1, r0
 8002c38:	704a      	strb	r2, [r1, #1]
 8002c3a:	2301      	movs	r3, #1
 8002c3c:	700d      	strb	r5, [r1, #0]
 8002c3e:	708b      	strb	r3, [r1, #2]
 8002c40:	f894 22a8 	ldrb.w	r2, [r4, #680]	; 0x2a8
 8002c44:	429a      	cmp	r2, r3
 8002c46:	d019      	beq.n	8002c7c <HAL_PCD_EP_SetStall+0x64>
 8002c48:	6820      	ldr	r0, [r4, #0]
 8002c4a:	f884 32a8 	strb.w	r3, [r4, #680]	; 0x2a8
 8002c4e:	f001 fc3c 	bl	80044ca <USB_EPSetStall>
 8002c52:	b925      	cbnz	r5, 8002c5e <HAL_PCD_EP_SetStall+0x46>
 8002c54:	6820      	ldr	r0, [r4, #0]
 8002c56:	f504 712c 	add.w	r1, r4, #688	; 0x2b0
 8002c5a:	f001 fcad 	bl	80045b8 <USB_EP0_OutStart>
 8002c5e:	2000      	movs	r0, #0
 8002c60:	f884 02a8 	strb.w	r0, [r4, #680]	; 0x2a8
 8002c64:	bd38      	pop	{r3, r4, r5, pc}
 8002c66:	2200      	movs	r2, #0
 8002c68:	434b      	muls	r3, r1
 8002c6a:	f503 71b4 	add.w	r1, r3, #360	; 0x168
 8002c6e:	4403      	add	r3, r0
 8002c70:	4401      	add	r1, r0
 8002c72:	f883 2169 	strb.w	r2, [r3, #361]	; 0x169
 8002c76:	e7e0      	b.n	8002c3a <HAL_PCD_EP_SetStall+0x22>
 8002c78:	2001      	movs	r0, #1
 8002c7a:	e7f3      	b.n	8002c64 <HAL_PCD_EP_SetStall+0x4c>
 8002c7c:	2002      	movs	r0, #2
 8002c7e:	e7f1      	b.n	8002c64 <HAL_PCD_EP_SetStall+0x4c>

08002c80 <HAL_PCD_EP_ClrStall>:
 8002c80:	b538      	push	{r3, r4, r5, lr}
 8002c82:	6843      	ldr	r3, [r0, #4]
 8002c84:	f001 020f 	and.w	r2, r1, #15
 8002c88:	429a      	cmp	r2, r3
 8002c8a:	4604      	mov	r4, r0
 8002c8c:	d825      	bhi.n	8002cda <HAL_PCD_EP_ClrStall+0x5a>
 8002c8e:	f011 0f80 	tst.w	r1, #128	; 0x80
 8002c92:	f04f 0328 	mov.w	r3, #40	; 0x28
 8002c96:	f001 0207 	and.w	r2, r1, #7
 8002c9a:	d015      	beq.n	8002cc8 <HAL_PCD_EP_ClrStall+0x48>
 8002c9c:	fb02 3103 	mla	r1, r2, r3, r3
 8002ca0:	4401      	add	r1, r0
 8002ca2:	2001      	movs	r0, #1
 8002ca4:	7048      	strb	r0, [r1, #1]
 8002ca6:	2500      	movs	r5, #0
 8002ca8:	700a      	strb	r2, [r1, #0]
 8002caa:	708d      	strb	r5, [r1, #2]
 8002cac:	f894 32a8 	ldrb.w	r3, [r4, #680]	; 0x2a8
 8002cb0:	2b01      	cmp	r3, #1
 8002cb2:	d014      	beq.n	8002cde <HAL_PCD_EP_ClrStall+0x5e>
 8002cb4:	2301      	movs	r3, #1
 8002cb6:	6820      	ldr	r0, [r4, #0]
 8002cb8:	f884 32a8 	strb.w	r3, [r4, #680]	; 0x2a8
 8002cbc:	f001 fc25 	bl	800450a <USB_EPClearStall>
 8002cc0:	4628      	mov	r0, r5
 8002cc2:	f884 52a8 	strb.w	r5, [r4, #680]	; 0x2a8
 8002cc6:	bd38      	pop	{r3, r4, r5, pc}
 8002cc8:	4353      	muls	r3, r2
 8002cca:	f503 71b4 	add.w	r1, r3, #360	; 0x168
 8002cce:	4401      	add	r1, r0
 8002cd0:	4403      	add	r3, r0
 8002cd2:	2000      	movs	r0, #0
 8002cd4:	f883 0169 	strb.w	r0, [r3, #361]	; 0x169
 8002cd8:	e7e5      	b.n	8002ca6 <HAL_PCD_EP_ClrStall+0x26>
 8002cda:	2001      	movs	r0, #1
 8002cdc:	e7f3      	b.n	8002cc6 <HAL_PCD_EP_ClrStall+0x46>
 8002cde:	2002      	movs	r0, #2
 8002ce0:	e7f1      	b.n	8002cc6 <HAL_PCD_EP_ClrStall+0x46>

08002ce2 <HAL_PCDEx_PMAConfig>:
 8002ce2:	b510      	push	{r4, lr}
 8002ce4:	2428      	movs	r4, #40	; 0x28
 8002ce6:	f011 0f80 	tst.w	r1, #128	; 0x80
 8002cea:	bf1b      	ittet	ne
 8002cec:	f001 0107 	andne.w	r1, r1, #7
 8002cf0:	fb01 4104 	mlane	r1, r1, r4, r4
 8002cf4:	fb04 0001 	mlaeq	r0, r4, r1, r0
 8002cf8:	1840      	addne	r0, r0, r1
 8002cfa:	bf08      	it	eq
 8002cfc:	f500 70b4 	addeq.w	r0, r0, #360	; 0x168
 8002d00:	b299      	uxth	r1, r3
 8002d02:	b91a      	cbnz	r2, 8002d0c <HAL_PCDEx_PMAConfig+0x2a>
 8002d04:	7302      	strb	r2, [r0, #12]
 8002d06:	80c1      	strh	r1, [r0, #6]
 8002d08:	2000      	movs	r0, #0
 8002d0a:	bd10      	pop	{r4, pc}
 8002d0c:	2201      	movs	r2, #1
 8002d0e:	6083      	str	r3, [r0, #8]
 8002d10:	7302      	strb	r2, [r0, #12]
 8002d12:	e7f9      	b.n	8002d08 <HAL_PCDEx_PMAConfig+0x26>

08002d14 <HAL_PWR_EnableBkUpAccess>:
 8002d14:	2201      	movs	r2, #1
 8002d16:	4b01      	ldr	r3, [pc, #4]	; (8002d1c <HAL_PWR_EnableBkUpAccess+0x8>)
 8002d18:	621a      	str	r2, [r3, #32]
 8002d1a:	4770      	bx	lr
 8002d1c:	420e0000 	.word	0x420e0000

08002d20 <HAL_RCC_OscConfig>:
 8002d20:	e92d 41f3 	stmdb	sp!, {r0, r1, r4, r5, r6, r7, r8, lr}
 8002d24:	4605      	mov	r5, r0
 8002d26:	b338      	cbz	r0, 8002d78 <HAL_RCC_OscConfig+0x58>
 8002d28:	6803      	ldr	r3, [r0, #0]
 8002d2a:	07db      	lsls	r3, r3, #31
 8002d2c:	d410      	bmi.n	8002d50 <HAL_RCC_OscConfig+0x30>
 8002d2e:	682b      	ldr	r3, [r5, #0]
 8002d30:	079f      	lsls	r7, r3, #30
 8002d32:	d45e      	bmi.n	8002df2 <HAL_RCC_OscConfig+0xd2>
 8002d34:	682b      	ldr	r3, [r5, #0]
 8002d36:	0719      	lsls	r1, r3, #28
 8002d38:	f100 8095 	bmi.w	8002e66 <HAL_RCC_OscConfig+0x146>
 8002d3c:	682b      	ldr	r3, [r5, #0]
 8002d3e:	075a      	lsls	r2, r3, #29
 8002d40:	f100 80c1 	bmi.w	8002ec6 <HAL_RCC_OscConfig+0x1a6>
 8002d44:	69e8      	ldr	r0, [r5, #28]
 8002d46:	2800      	cmp	r0, #0
 8002d48:	f040 812c 	bne.w	8002fa4 <HAL_RCC_OscConfig+0x284>
 8002d4c:	2000      	movs	r0, #0
 8002d4e:	e029      	b.n	8002da4 <HAL_RCC_OscConfig+0x84>
 8002d50:	4c90      	ldr	r4, [pc, #576]	; (8002f94 <HAL_RCC_OscConfig+0x274>)
 8002d52:	6863      	ldr	r3, [r4, #4]
 8002d54:	f003 030c 	and.w	r3, r3, #12
 8002d58:	2b04      	cmp	r3, #4
 8002d5a:	d007      	beq.n	8002d6c <HAL_RCC_OscConfig+0x4c>
 8002d5c:	6863      	ldr	r3, [r4, #4]
 8002d5e:	f003 030c 	and.w	r3, r3, #12
 8002d62:	2b08      	cmp	r3, #8
 8002d64:	d10a      	bne.n	8002d7c <HAL_RCC_OscConfig+0x5c>
 8002d66:	6863      	ldr	r3, [r4, #4]
 8002d68:	03de      	lsls	r6, r3, #15
 8002d6a:	d507      	bpl.n	8002d7c <HAL_RCC_OscConfig+0x5c>
 8002d6c:	6823      	ldr	r3, [r4, #0]
 8002d6e:	039c      	lsls	r4, r3, #14
 8002d70:	d5dd      	bpl.n	8002d2e <HAL_RCC_OscConfig+0xe>
 8002d72:	686b      	ldr	r3, [r5, #4]
 8002d74:	2b00      	cmp	r3, #0
 8002d76:	d1da      	bne.n	8002d2e <HAL_RCC_OscConfig+0xe>
 8002d78:	2001      	movs	r0, #1
 8002d7a:	e013      	b.n	8002da4 <HAL_RCC_OscConfig+0x84>
 8002d7c:	686b      	ldr	r3, [r5, #4]
 8002d7e:	f5b3 3f80 	cmp.w	r3, #65536	; 0x10000
 8002d82:	d112      	bne.n	8002daa <HAL_RCC_OscConfig+0x8a>
 8002d84:	6823      	ldr	r3, [r4, #0]
 8002d86:	f443 3380 	orr.w	r3, r3, #65536	; 0x10000
 8002d8a:	6023      	str	r3, [r4, #0]
 8002d8c:	f7fe fc08 	bl	80015a0 <HAL_GetTick>
 8002d90:	4606      	mov	r6, r0
 8002d92:	6823      	ldr	r3, [r4, #0]
 8002d94:	0398      	lsls	r0, r3, #14
 8002d96:	d4ca      	bmi.n	8002d2e <HAL_RCC_OscConfig+0xe>
 8002d98:	f7fe fc02 	bl	80015a0 <HAL_GetTick>
 8002d9c:	1b80      	subs	r0, r0, r6
 8002d9e:	2864      	cmp	r0, #100	; 0x64
 8002da0:	d9f7      	bls.n	8002d92 <HAL_RCC_OscConfig+0x72>
 8002da2:	2003      	movs	r0, #3
 8002da4:	b002      	add	sp, #8
 8002da6:	e8bd 81f0 	ldmia.w	sp!, {r4, r5, r6, r7, r8, pc}
 8002daa:	b99b      	cbnz	r3, 8002dd4 <HAL_RCC_OscConfig+0xb4>
 8002dac:	6823      	ldr	r3, [r4, #0]
 8002dae:	f423 3380 	bic.w	r3, r3, #65536	; 0x10000
 8002db2:	6023      	str	r3, [r4, #0]
 8002db4:	6823      	ldr	r3, [r4, #0]
 8002db6:	f423 2380 	bic.w	r3, r3, #262144	; 0x40000
 8002dba:	6023      	str	r3, [r4, #0]
 8002dbc:	f7fe fbf0 	bl	80015a0 <HAL_GetTick>
 8002dc0:	4606      	mov	r6, r0
 8002dc2:	6823      	ldr	r3, [r4, #0]
 8002dc4:	0399      	lsls	r1, r3, #14
 8002dc6:	d5b2      	bpl.n	8002d2e <HAL_RCC_OscConfig+0xe>
 8002dc8:	f7fe fbea 	bl	80015a0 <HAL_GetTick>
 8002dcc:	1b80      	subs	r0, r0, r6
 8002dce:	2864      	cmp	r0, #100	; 0x64
 8002dd0:	d9f7      	bls.n	8002dc2 <HAL_RCC_OscConfig+0xa2>
 8002dd2:	e7e6      	b.n	8002da2 <HAL_RCC_OscConfig+0x82>
 8002dd4:	f5b3 2fa0 	cmp.w	r3, #327680	; 0x50000
 8002dd8:	6823      	ldr	r3, [r4, #0]
 8002dda:	d103      	bne.n	8002de4 <HAL_RCC_OscConfig+0xc4>
 8002ddc:	f443 2380 	orr.w	r3, r3, #262144	; 0x40000
 8002de0:	6023      	str	r3, [r4, #0]
 8002de2:	e7cf      	b.n	8002d84 <HAL_RCC_OscConfig+0x64>
 8002de4:	f423 3380 	bic.w	r3, r3, #65536	; 0x10000
 8002de8:	6023      	str	r3, [r4, #0]
 8002dea:	6823      	ldr	r3, [r4, #0]
 8002dec:	f423 2380 	bic.w	r3, r3, #262144	; 0x40000
 8002df0:	e7cb      	b.n	8002d8a <HAL_RCC_OscConfig+0x6a>
 8002df2:	4c68      	ldr	r4, [pc, #416]	; (8002f94 <HAL_RCC_OscConfig+0x274>)
 8002df4:	6863      	ldr	r3, [r4, #4]
 8002df6:	f013 0f0c 	tst.w	r3, #12
 8002dfa:	d007      	beq.n	8002e0c <HAL_RCC_OscConfig+0xec>
 8002dfc:	6863      	ldr	r3, [r4, #4]
 8002dfe:	f003 030c 	and.w	r3, r3, #12
 8002e02:	2b08      	cmp	r3, #8
 8002e04:	d110      	bne.n	8002e28 <HAL_RCC_OscConfig+0x108>
 8002e06:	6863      	ldr	r3, [r4, #4]
 8002e08:	03da      	lsls	r2, r3, #15
 8002e0a:	d40d      	bmi.n	8002e28 <HAL_RCC_OscConfig+0x108>
 8002e0c:	6823      	ldr	r3, [r4, #0]
 8002e0e:	079b      	lsls	r3, r3, #30
 8002e10:	d502      	bpl.n	8002e18 <HAL_RCC_OscConfig+0xf8>
 8002e12:	692b      	ldr	r3, [r5, #16]
 8002e14:	2b01      	cmp	r3, #1
 8002e16:	d1af      	bne.n	8002d78 <HAL_RCC_OscConfig+0x58>
 8002e18:	6823      	ldr	r3, [r4, #0]
 8002e1a:	696a      	ldr	r2, [r5, #20]
 8002e1c:	f023 03f8 	bic.w	r3, r3, #248	; 0xf8
 8002e20:	ea43 03c2 	orr.w	r3, r3, r2, lsl #3
 8002e24:	6023      	str	r3, [r4, #0]
 8002e26:	e785      	b.n	8002d34 <HAL_RCC_OscConfig+0x14>
 8002e28:	692a      	ldr	r2, [r5, #16]
 8002e2a:	4b5b      	ldr	r3, [pc, #364]	; (8002f98 <HAL_RCC_OscConfig+0x278>)
 8002e2c:	b16a      	cbz	r2, 8002e4a <HAL_RCC_OscConfig+0x12a>
 8002e2e:	2201      	movs	r2, #1
 8002e30:	601a      	str	r2, [r3, #0]
 8002e32:	f7fe fbb5 	bl	80015a0 <HAL_GetTick>
 8002e36:	4606      	mov	r6, r0
 8002e38:	6823      	ldr	r3, [r4, #0]
 8002e3a:	079f      	lsls	r7, r3, #30
 8002e3c:	d4ec      	bmi.n	8002e18 <HAL_RCC_OscConfig+0xf8>
 8002e3e:	f7fe fbaf 	bl	80015a0 <HAL_GetTick>
 8002e42:	1b80      	subs	r0, r0, r6
 8002e44:	2802      	cmp	r0, #2
 8002e46:	d9f7      	bls.n	8002e38 <HAL_RCC_OscConfig+0x118>
 8002e48:	e7ab      	b.n	8002da2 <HAL_RCC_OscConfig+0x82>
 8002e4a:	601a      	str	r2, [r3, #0]
 8002e4c:	f7fe fba8 	bl	80015a0 <HAL_GetTick>
 8002e50:	4606      	mov	r6, r0
 8002e52:	6823      	ldr	r3, [r4, #0]
 8002e54:	0798      	lsls	r0, r3, #30
 8002e56:	f57f af6d 	bpl.w	8002d34 <HAL_RCC_OscConfig+0x14>
 8002e5a:	f7fe fba1 	bl	80015a0 <HAL_GetTick>
 8002e5e:	1b80      	subs	r0, r0, r6
 8002e60:	2802      	cmp	r0, #2
 8002e62:	d9f6      	bls.n	8002e52 <HAL_RCC_OscConfig+0x132>
 8002e64:	e79d      	b.n	8002da2 <HAL_RCC_OscConfig+0x82>
 8002e66:	69aa      	ldr	r2, [r5, #24]
 8002e68:	4e4a      	ldr	r6, [pc, #296]	; (8002f94 <HAL_RCC_OscConfig+0x274>)
 8002e6a:	4b4b      	ldr	r3, [pc, #300]	; (8002f98 <HAL_RCC_OscConfig+0x278>)
 8002e6c:	b1e2      	cbz	r2, 8002ea8 <HAL_RCC_OscConfig+0x188>
 8002e6e:	2201      	movs	r2, #1
 8002e70:	f8c3 2480 	str.w	r2, [r3, #1152]	; 0x480
 8002e74:	f7fe fb94 	bl	80015a0 <HAL_GetTick>
 8002e78:	4604      	mov	r4, r0
 8002e7a:	6a73      	ldr	r3, [r6, #36]	; 0x24
 8002e7c:	079b      	lsls	r3, r3, #30
 8002e7e:	d50d      	bpl.n	8002e9c <HAL_RCC_OscConfig+0x17c>
 8002e80:	f44f 52fa 	mov.w	r2, #8000	; 0x1f40
 8002e84:	4b45      	ldr	r3, [pc, #276]	; (8002f9c <HAL_RCC_OscConfig+0x27c>)
 8002e86:	681b      	ldr	r3, [r3, #0]
 8002e88:	fbb3 f3f2 	udiv	r3, r3, r2
 8002e8c:	9301      	str	r3, [sp, #4]
 8002e8e:	bf00      	nop
 8002e90:	9b01      	ldr	r3, [sp, #4]
 8002e92:	1e5a      	subs	r2, r3, #1
 8002e94:	9201      	str	r2, [sp, #4]
 8002e96:	2b00      	cmp	r3, #0
 8002e98:	d1f9      	bne.n	8002e8e <HAL_RCC_OscConfig+0x16e>
 8002e9a:	e74f      	b.n	8002d3c <HAL_RCC_OscConfig+0x1c>
 8002e9c:	f7fe fb80 	bl	80015a0 <HAL_GetTick>
 8002ea0:	1b00      	subs	r0, r0, r4
 8002ea2:	2802      	cmp	r0, #2
 8002ea4:	d9e9      	bls.n	8002e7a <HAL_RCC_OscConfig+0x15a>
 8002ea6:	e77c      	b.n	8002da2 <HAL_RCC_OscConfig+0x82>
 8002ea8:	f8c3 2480 	str.w	r2, [r3, #1152]	; 0x480
 8002eac:	f7fe fb78 	bl	80015a0 <HAL_GetTick>
 8002eb0:	4604      	mov	r4, r0
 8002eb2:	6a73      	ldr	r3, [r6, #36]	; 0x24
 8002eb4:	079f      	lsls	r7, r3, #30
 8002eb6:	f57f af41 	bpl.w	8002d3c <HAL_RCC_OscConfig+0x1c>
 8002eba:	f7fe fb71 	bl	80015a0 <HAL_GetTick>
 8002ebe:	1b00      	subs	r0, r0, r4
 8002ec0:	2802      	cmp	r0, #2
 8002ec2:	d9f6      	bls.n	8002eb2 <HAL_RCC_OscConfig+0x192>
 8002ec4:	e76d      	b.n	8002da2 <HAL_RCC_OscConfig+0x82>
 8002ec6:	4c33      	ldr	r4, [pc, #204]	; (8002f94 <HAL_RCC_OscConfig+0x274>)
 8002ec8:	69e3      	ldr	r3, [r4, #28]
 8002eca:	00d8      	lsls	r0, r3, #3
 8002ecc:	d424      	bmi.n	8002f18 <HAL_RCC_OscConfig+0x1f8>
 8002ece:	2701      	movs	r7, #1
 8002ed0:	69e3      	ldr	r3, [r4, #28]
 8002ed2:	f043 5380 	orr.w	r3, r3, #268435456	; 0x10000000
 8002ed6:	61e3      	str	r3, [r4, #28]
 8002ed8:	69e3      	ldr	r3, [r4, #28]
 8002eda:	f003 5380 	and.w	r3, r3, #268435456	; 0x10000000
 8002ede:	9300      	str	r3, [sp, #0]
 8002ee0:	9b00      	ldr	r3, [sp, #0]
 8002ee2:	4e2f      	ldr	r6, [pc, #188]	; (8002fa0 <HAL_RCC_OscConfig+0x280>)
 8002ee4:	6833      	ldr	r3, [r6, #0]
 8002ee6:	05d9      	lsls	r1, r3, #23
 8002ee8:	d518      	bpl.n	8002f1c <HAL_RCC_OscConfig+0x1fc>
 8002eea:	68eb      	ldr	r3, [r5, #12]
 8002eec:	2b01      	cmp	r3, #1
 8002eee:	d126      	bne.n	8002f3e <HAL_RCC_OscConfig+0x21e>
 8002ef0:	6a23      	ldr	r3, [r4, #32]
 8002ef2:	f043 0301 	orr.w	r3, r3, #1
 8002ef6:	6223      	str	r3, [r4, #32]
 8002ef8:	f7fe fb52 	bl	80015a0 <HAL_GetTick>
 8002efc:	f241 3888 	movw	r8, #5000	; 0x1388
 8002f00:	4606      	mov	r6, r0
 8002f02:	6a23      	ldr	r3, [r4, #32]
 8002f04:	079b      	lsls	r3, r3, #30
 8002f06:	d53f      	bpl.n	8002f88 <HAL_RCC_OscConfig+0x268>
 8002f08:	2f00      	cmp	r7, #0
 8002f0a:	f43f af1b 	beq.w	8002d44 <HAL_RCC_OscConfig+0x24>
 8002f0e:	69e3      	ldr	r3, [r4, #28]
 8002f10:	f023 5380 	bic.w	r3, r3, #268435456	; 0x10000000
 8002f14:	61e3      	str	r3, [r4, #28]
 8002f16:	e715      	b.n	8002d44 <HAL_RCC_OscConfig+0x24>
 8002f18:	2700      	movs	r7, #0
 8002f1a:	e7e2      	b.n	8002ee2 <HAL_RCC_OscConfig+0x1c2>
 8002f1c:	6833      	ldr	r3, [r6, #0]
 8002f1e:	f443 7380 	orr.w	r3, r3, #256	; 0x100
 8002f22:	6033      	str	r3, [r6, #0]
 8002f24:	f7fe fb3c 	bl	80015a0 <HAL_GetTick>
 8002f28:	4680      	mov	r8, r0
 8002f2a:	6833      	ldr	r3, [r6, #0]
 8002f2c:	05da      	lsls	r2, r3, #23
 8002f2e:	d4dc      	bmi.n	8002eea <HAL_RCC_OscConfig+0x1ca>
 8002f30:	f7fe fb36 	bl	80015a0 <HAL_GetTick>
 8002f34:	eba0 0008 	sub.w	r0, r0, r8
 8002f38:	2864      	cmp	r0, #100	; 0x64
 8002f3a:	d9f6      	bls.n	8002f2a <HAL_RCC_OscConfig+0x20a>
 8002f3c:	e731      	b.n	8002da2 <HAL_RCC_OscConfig+0x82>
 8002f3e:	b9ab      	cbnz	r3, 8002f6c <HAL_RCC_OscConfig+0x24c>
 8002f40:	6a23      	ldr	r3, [r4, #32]
 8002f42:	f241 3888 	movw	r8, #5000	; 0x1388
 8002f46:	f023 0301 	bic.w	r3, r3, #1
 8002f4a:	6223      	str	r3, [r4, #32]
 8002f4c:	6a23      	ldr	r3, [r4, #32]
 8002f4e:	f023 0304 	bic.w	r3, r3, #4
 8002f52:	6223      	str	r3, [r4, #32]
 8002f54:	f7fe fb24 	bl	80015a0 <HAL_GetTick>
 8002f58:	4606      	mov	r6, r0
 8002f5a:	6a23      	ldr	r3, [r4, #32]
 8002f5c:	0798      	lsls	r0, r3, #30
 8002f5e:	d5d3      	bpl.n	8002f08 <HAL_RCC_OscConfig+0x1e8>
 8002f60:	f7fe fb1e 	bl	80015a0 <HAL_GetTick>
 8002f64:	1b80      	subs	r0, r0, r6
 8002f66:	4540      	cmp	r0, r8
 8002f68:	d9f7      	bls.n	8002f5a <HAL_RCC_OscConfig+0x23a>
 8002f6a:	e71a      	b.n	8002da2 <HAL_RCC_OscConfig+0x82>
 8002f6c:	2b05      	cmp	r3, #5
 8002f6e:	6a23      	ldr	r3, [r4, #32]
 8002f70:	d103      	bne.n	8002f7a <HAL_RCC_OscConfig+0x25a>
 8002f72:	f043 0304 	orr.w	r3, r3, #4
 8002f76:	6223      	str	r3, [r4, #32]
 8002f78:	e7ba      	b.n	8002ef0 <HAL_RCC_OscConfig+0x1d0>
 8002f7a:	f023 0301 	bic.w	r3, r3, #1
 8002f7e:	6223      	str	r3, [r4, #32]
 8002f80:	6a23      	ldr	r3, [r4, #32]
 8002f82:	f023 0304 	bic.w	r3, r3, #4
 8002f86:	e7b6      	b.n	8002ef6 <HAL_RCC_OscConfig+0x1d6>
 8002f88:	f7fe fb0a 	bl	80015a0 <HAL_GetTick>
 8002f8c:	1b80      	subs	r0, r0, r6
 8002f8e:	4540      	cmp	r0, r8
 8002f90:	d9b7      	bls.n	8002f02 <HAL_RCC_OscConfig+0x1e2>
 8002f92:	e706      	b.n	8002da2 <HAL_RCC_OscConfig+0x82>
 8002f94:	40021000 	.word	0x40021000
 8002f98:	42420000 	.word	0x42420000
 8002f9c:	20000008 	.word	0x20000008
 8002fa0:	40007000 	.word	0x40007000
 8002fa4:	4c2a      	ldr	r4, [pc, #168]	; (8003050 <HAL_RCC_OscConfig+0x330>)
 8002fa6:	6863      	ldr	r3, [r4, #4]
 8002fa8:	f003 030c 	and.w	r3, r3, #12
 8002fac:	2b08      	cmp	r3, #8
 8002fae:	d03e      	beq.n	800302e <HAL_RCC_OscConfig+0x30e>
 8002fb0:	2200      	movs	r2, #0
 8002fb2:	4b28      	ldr	r3, [pc, #160]	; (8003054 <HAL_RCC_OscConfig+0x334>)
 8002fb4:	2802      	cmp	r0, #2
 8002fb6:	661a      	str	r2, [r3, #96]	; 0x60
 8002fb8:	d12c      	bne.n	8003014 <HAL_RCC_OscConfig+0x2f4>
 8002fba:	f7fe faf1 	bl	80015a0 <HAL_GetTick>
 8002fbe:	4606      	mov	r6, r0
 8002fc0:	6823      	ldr	r3, [r4, #0]
 8002fc2:	0199      	lsls	r1, r3, #6
 8002fc4:	d420      	bmi.n	8003008 <HAL_RCC_OscConfig+0x2e8>
 8002fc6:	6a2b      	ldr	r3, [r5, #32]
 8002fc8:	f5b3 3f80 	cmp.w	r3, #65536	; 0x10000
 8002fcc:	d105      	bne.n	8002fda <HAL_RCC_OscConfig+0x2ba>
 8002fce:	6862      	ldr	r2, [r4, #4]
 8002fd0:	68a9      	ldr	r1, [r5, #8]
 8002fd2:	f422 3200 	bic.w	r2, r2, #131072	; 0x20000
 8002fd6:	430a      	orrs	r2, r1
 8002fd8:	6062      	str	r2, [r4, #4]
 8002fda:	6a69      	ldr	r1, [r5, #36]	; 0x24
 8002fdc:	6862      	ldr	r2, [r4, #4]
 8002fde:	430b      	orrs	r3, r1
 8002fe0:	f422 1274 	bic.w	r2, r2, #3997696	; 0x3d0000
 8002fe4:	4313      	orrs	r3, r2
 8002fe6:	2201      	movs	r2, #1
 8002fe8:	6063      	str	r3, [r4, #4]
 8002fea:	4b1a      	ldr	r3, [pc, #104]	; (8003054 <HAL_RCC_OscConfig+0x334>)
 8002fec:	661a      	str	r2, [r3, #96]	; 0x60
 8002fee:	f7fe fad7 	bl	80015a0 <HAL_GetTick>
 8002ff2:	4605      	mov	r5, r0
 8002ff4:	6823      	ldr	r3, [r4, #0]
 8002ff6:	019a      	lsls	r2, r3, #6
 8002ff8:	f53f aea8 	bmi.w	8002d4c <HAL_RCC_OscConfig+0x2c>
 8002ffc:	f7fe fad0 	bl	80015a0 <HAL_GetTick>
 8003000:	1b40      	subs	r0, r0, r5
 8003002:	2802      	cmp	r0, #2
 8003004:	d9f6      	bls.n	8002ff4 <HAL_RCC_OscConfig+0x2d4>
 8003006:	e6cc      	b.n	8002da2 <HAL_RCC_OscConfig+0x82>
 8003008:	f7fe faca 	bl	80015a0 <HAL_GetTick>
 800300c:	1b80      	subs	r0, r0, r6
 800300e:	2802      	cmp	r0, #2
 8003010:	d9d6      	bls.n	8002fc0 <HAL_RCC_OscConfig+0x2a0>
 8003012:	e6c6      	b.n	8002da2 <HAL_RCC_OscConfig+0x82>
 8003014:	f7fe fac4 	bl	80015a0 <HAL_GetTick>
 8003018:	4605      	mov	r5, r0
 800301a:	6823      	ldr	r3, [r4, #0]
 800301c:	019b      	lsls	r3, r3, #6
 800301e:	f57f ae95 	bpl.w	8002d4c <HAL_RCC_OscConfig+0x2c>
 8003022:	f7fe fabd 	bl	80015a0 <HAL_GetTick>
 8003026:	1b40      	subs	r0, r0, r5
 8003028:	2802      	cmp	r0, #2
 800302a:	d9f6      	bls.n	800301a <HAL_RCC_OscConfig+0x2fa>
 800302c:	e6b9      	b.n	8002da2 <HAL_RCC_OscConfig+0x82>
 800302e:	2801      	cmp	r0, #1
 8003030:	f43f aeb8 	beq.w	8002da4 <HAL_RCC_OscConfig+0x84>
 8003034:	6863      	ldr	r3, [r4, #4]
 8003036:	6a2a      	ldr	r2, [r5, #32]
 8003038:	f403 3180 	and.w	r1, r3, #65536	; 0x10000
 800303c:	4291      	cmp	r1, r2
 800303e:	f47f ae9b 	bne.w	8002d78 <HAL_RCC_OscConfig+0x58>
 8003042:	6a6a      	ldr	r2, [r5, #36]	; 0x24
 8003044:	f403 1370 	and.w	r3, r3, #3932160	; 0x3c0000
 8003048:	4293      	cmp	r3, r2
 800304a:	f43f ae7f 	beq.w	8002d4c <HAL_RCC_OscConfig+0x2c>
 800304e:	e693      	b.n	8002d78 <HAL_RCC_OscConfig+0x58>
 8003050:	40021000 	.word	0x40021000
 8003054:	42420000 	.word	0x42420000

08003058 <HAL_RCC_GetSysClockFreq>:
 8003058:	4a0d      	ldr	r2, [pc, #52]	; (8003090 <HAL_RCC_GetSysClockFreq+0x38>)
 800305a:	6853      	ldr	r3, [r2, #4]
 800305c:	f003 010c 	and.w	r1, r3, #12
 8003060:	2908      	cmp	r1, #8
 8003062:	d112      	bne.n	800308a <HAL_RCC_GetSysClockFreq+0x32>
 8003064:	480b      	ldr	r0, [pc, #44]	; (8003094 <HAL_RCC_GetSysClockFreq+0x3c>)
 8003066:	f3c3 4183 	ubfx	r1, r3, #18, #4
 800306a:	03db      	lsls	r3, r3, #15
 800306c:	5c40      	ldrb	r0, [r0, r1]
 800306e:	d509      	bpl.n	8003084 <HAL_RCC_GetSysClockFreq+0x2c>
 8003070:	6853      	ldr	r3, [r2, #4]
 8003072:	4a09      	ldr	r2, [pc, #36]	; (8003098 <HAL_RCC_GetSysClockFreq+0x40>)
 8003074:	f3c3 4340 	ubfx	r3, r3, #17, #1
 8003078:	4350      	muls	r0, r2
 800307a:	4a08      	ldr	r2, [pc, #32]	; (800309c <HAL_RCC_GetSysClockFreq+0x44>)
 800307c:	5cd3      	ldrb	r3, [r2, r3]
 800307e:	fbb0 f0f3 	udiv	r0, r0, r3
 8003082:	4770      	bx	lr
 8003084:	4b06      	ldr	r3, [pc, #24]	; (80030a0 <HAL_RCC_GetSysClockFreq+0x48>)
 8003086:	4358      	muls	r0, r3
 8003088:	4770      	bx	lr
 800308a:	4803      	ldr	r0, [pc, #12]	; (8003098 <HAL_RCC_GetSysClockFreq+0x40>)
 800308c:	4770      	bx	lr
 800308e:	bf00      	nop
 8003090:	40021000 	.word	0x40021000
 8003094:	08006ffe 	.word	0x08006ffe
 8003098:	007a1200 	.word	0x007a1200
 800309c:	0800700e 	.word	0x0800700e
 80030a0:	003d0900 	.word	0x003d0900

080030a4 <HAL_RCC_ClockConfig>:
 80030a4:	e92d 41f0 	stmdb	sp!, {r4, r5, r6, r7, r8, lr}
 80030a8:	460d      	mov	r5, r1
 80030aa:	4604      	mov	r4, r0
 80030ac:	b910      	cbnz	r0, 80030b4 <HAL_RCC_ClockConfig+0x10>
 80030ae:	2001      	movs	r0, #1
 80030b0:	e8bd 81f0 	ldmia.w	sp!, {r4, r5, r6, r7, r8, pc}
 80030b4:	4a44      	ldr	r2, [pc, #272]	; (80031c8 <HAL_RCC_ClockConfig+0x124>)
 80030b6:	6813      	ldr	r3, [r2, #0]
 80030b8:	f003 0307 	and.w	r3, r3, #7
 80030bc:	428b      	cmp	r3, r1
 80030be:	d328      	bcc.n	8003112 <HAL_RCC_ClockConfig+0x6e>
 80030c0:	6821      	ldr	r1, [r4, #0]
 80030c2:	078e      	lsls	r6, r1, #30
 80030c4:	d430      	bmi.n	8003128 <HAL_RCC_ClockConfig+0x84>
 80030c6:	07ca      	lsls	r2, r1, #31
 80030c8:	d443      	bmi.n	8003152 <HAL_RCC_ClockConfig+0xae>
 80030ca:	4a3f      	ldr	r2, [pc, #252]	; (80031c8 <HAL_RCC_ClockConfig+0x124>)
 80030cc:	6813      	ldr	r3, [r2, #0]
 80030ce:	f003 0307 	and.w	r3, r3, #7
 80030d2:	42ab      	cmp	r3, r5
 80030d4:	d865      	bhi.n	80031a2 <HAL_RCC_ClockConfig+0xfe>
 80030d6:	6822      	ldr	r2, [r4, #0]
 80030d8:	4d3c      	ldr	r5, [pc, #240]	; (80031cc <HAL_RCC_ClockConfig+0x128>)
 80030da:	f012 0f04 	tst.w	r2, #4
 80030de:	d16c      	bne.n	80031ba <HAL_RCC_ClockConfig+0x116>
 80030e0:	0713      	lsls	r3, r2, #28
 80030e2:	d506      	bpl.n	80030f2 <HAL_RCC_ClockConfig+0x4e>
 80030e4:	686b      	ldr	r3, [r5, #4]
 80030e6:	6922      	ldr	r2, [r4, #16]
 80030e8:	f423 5360 	bic.w	r3, r3, #14336	; 0x3800
 80030ec:	ea43 03c2 	orr.w	r3, r3, r2, lsl #3
 80030f0:	606b      	str	r3, [r5, #4]
 80030f2:	f7ff ffb1 	bl	8003058 <HAL_RCC_GetSysClockFreq>
 80030f6:	686b      	ldr	r3, [r5, #4]
 80030f8:	4a35      	ldr	r2, [pc, #212]	; (80031d0 <HAL_RCC_ClockConfig+0x12c>)
 80030fa:	f3c3 1303 	ubfx	r3, r3, #4, #4
 80030fe:	5cd3      	ldrb	r3, [r2, r3]
 8003100:	40d8      	lsrs	r0, r3
 8003102:	4b34      	ldr	r3, [pc, #208]	; (80031d4 <HAL_RCC_ClockConfig+0x130>)
 8003104:	6018      	str	r0, [r3, #0]
 8003106:	4b34      	ldr	r3, [pc, #208]	; (80031d8 <HAL_RCC_ClockConfig+0x134>)
 8003108:	6818      	ldr	r0, [r3, #0]
 800310a:	f7fe fa07 	bl	800151c <HAL_InitTick>
 800310e:	2000      	movs	r0, #0
 8003110:	e7ce      	b.n	80030b0 <HAL_RCC_ClockConfig+0xc>
 8003112:	6813      	ldr	r3, [r2, #0]
 8003114:	f023 0307 	bic.w	r3, r3, #7
 8003118:	430b      	orrs	r3, r1
 800311a:	6013      	str	r3, [r2, #0]
 800311c:	6813      	ldr	r3, [r2, #0]
 800311e:	f003 0307 	and.w	r3, r3, #7
 8003122:	428b      	cmp	r3, r1
 8003124:	d1c3      	bne.n	80030ae <HAL_RCC_ClockConfig+0xa>
 8003126:	e7cb      	b.n	80030c0 <HAL_RCC_ClockConfig+0x1c>
 8003128:	4b28      	ldr	r3, [pc, #160]	; (80031cc <HAL_RCC_ClockConfig+0x128>)
 800312a:	f011 0f04 	tst.w	r1, #4
 800312e:	bf1e      	ittt	ne
 8003130:	685a      	ldrne	r2, [r3, #4]
 8003132:	f442 62e0 	orrne.w	r2, r2, #1792	; 0x700
 8003136:	605a      	strne	r2, [r3, #4]
 8003138:	0708      	lsls	r0, r1, #28
 800313a:	bf42      	ittt	mi
 800313c:	685a      	ldrmi	r2, [r3, #4]
 800313e:	f442 5260 	orrmi.w	r2, r2, #14336	; 0x3800
 8003142:	605a      	strmi	r2, [r3, #4]
 8003144:	685a      	ldr	r2, [r3, #4]
 8003146:	68a0      	ldr	r0, [r4, #8]
 8003148:	f022 02f0 	bic.w	r2, r2, #240	; 0xf0
 800314c:	4302      	orrs	r2, r0
 800314e:	605a      	str	r2, [r3, #4]
 8003150:	e7b9      	b.n	80030c6 <HAL_RCC_ClockConfig+0x22>
 8003152:	6862      	ldr	r2, [r4, #4]
 8003154:	4e1d      	ldr	r6, [pc, #116]	; (80031cc <HAL_RCC_ClockConfig+0x128>)
 8003156:	2a01      	cmp	r2, #1
 8003158:	6833      	ldr	r3, [r6, #0]
 800315a:	d11a      	bne.n	8003192 <HAL_RCC_ClockConfig+0xee>
 800315c:	f413 3f00 	tst.w	r3, #131072	; 0x20000
 8003160:	d0a5      	beq.n	80030ae <HAL_RCC_ClockConfig+0xa>
 8003162:	6873      	ldr	r3, [r6, #4]
 8003164:	f241 3888 	movw	r8, #5000	; 0x1388
 8003168:	f023 0303 	bic.w	r3, r3, #3
 800316c:	4313      	orrs	r3, r2
 800316e:	6073      	str	r3, [r6, #4]
 8003170:	f7fe fa16 	bl	80015a0 <HAL_GetTick>
 8003174:	4607      	mov	r7, r0
 8003176:	6873      	ldr	r3, [r6, #4]
 8003178:	6862      	ldr	r2, [r4, #4]
 800317a:	f003 030c 	and.w	r3, r3, #12
 800317e:	ebb3 0f82 	cmp.w	r3, r2, lsl #2
 8003182:	d0a2      	beq.n	80030ca <HAL_RCC_ClockConfig+0x26>
 8003184:	f7fe fa0c 	bl	80015a0 <HAL_GetTick>
 8003188:	1bc0      	subs	r0, r0, r7
 800318a:	4540      	cmp	r0, r8
 800318c:	d9f3      	bls.n	8003176 <HAL_RCC_ClockConfig+0xd2>
 800318e:	2003      	movs	r0, #3
 8003190:	e78e      	b.n	80030b0 <HAL_RCC_ClockConfig+0xc>
 8003192:	2a02      	cmp	r2, #2
 8003194:	d102      	bne.n	800319c <HAL_RCC_ClockConfig+0xf8>
 8003196:	f013 7f00 	tst.w	r3, #33554432	; 0x2000000
 800319a:	e7e1      	b.n	8003160 <HAL_RCC_ClockConfig+0xbc>
 800319c:	f013 0f02 	tst.w	r3, #2
 80031a0:	e7de      	b.n	8003160 <HAL_RCC_ClockConfig+0xbc>
 80031a2:	6813      	ldr	r3, [r2, #0]
 80031a4:	f023 0307 	bic.w	r3, r3, #7
 80031a8:	432b      	orrs	r3, r5
 80031aa:	6013      	str	r3, [r2, #0]
 80031ac:	6813      	ldr	r3, [r2, #0]
 80031ae:	f003 0307 	and.w	r3, r3, #7
 80031b2:	42ab      	cmp	r3, r5
 80031b4:	f47f af7b 	bne.w	80030ae <HAL_RCC_ClockConfig+0xa>
 80031b8:	e78d      	b.n	80030d6 <HAL_RCC_ClockConfig+0x32>
 80031ba:	686b      	ldr	r3, [r5, #4]
 80031bc:	68e1      	ldr	r1, [r4, #12]
 80031be:	f423 63e0 	bic.w	r3, r3, #1792	; 0x700
 80031c2:	430b      	orrs	r3, r1
 80031c4:	606b      	str	r3, [r5, #4]
 80031c6:	e78b      	b.n	80030e0 <HAL_RCC_ClockConfig+0x3c>
 80031c8:	40022000 	.word	0x40022000
 80031cc:	40021000 	.word	0x40021000
 80031d0:	08006fe6 	.word	0x08006fe6
 80031d4:	20000008 	.word	0x20000008
 80031d8:	20000010 	.word	0x20000010

080031dc <HAL_RCC_GetPCLK1Freq>:
 80031dc:	4b04      	ldr	r3, [pc, #16]	; (80031f0 <HAL_RCC_GetPCLK1Freq+0x14>)
 80031de:	4a05      	ldr	r2, [pc, #20]	; (80031f4 <HAL_RCC_GetPCLK1Freq+0x18>)
 80031e0:	685b      	ldr	r3, [r3, #4]
 80031e2:	f3c3 2302 	ubfx	r3, r3, #8, #3
 80031e6:	5cd3      	ldrb	r3, [r2, r3]
 80031e8:	4a03      	ldr	r2, [pc, #12]	; (80031f8 <HAL_RCC_GetPCLK1Freq+0x1c>)
 80031ea:	6810      	ldr	r0, [r2, #0]
 80031ec:	40d8      	lsrs	r0, r3
 80031ee:	4770      	bx	lr
 80031f0:	40021000 	.word	0x40021000
 80031f4:	08006ff6 	.word	0x08006ff6
 80031f8:	20000008 	.word	0x20000008

080031fc <HAL_RCC_GetPCLK2Freq>:
 80031fc:	4b04      	ldr	r3, [pc, #16]	; (8003210 <HAL_RCC_GetPCLK2Freq+0x14>)
 80031fe:	4a05      	ldr	r2, [pc, #20]	; (8003214 <HAL_RCC_GetPCLK2Freq+0x18>)
 8003200:	685b      	ldr	r3, [r3, #4]
 8003202:	f3c3 23c2 	ubfx	r3, r3, #11, #3
 8003206:	5cd3      	ldrb	r3, [r2, r3]
 8003208:	4a03      	ldr	r2, [pc, #12]	; (8003218 <HAL_RCC_GetPCLK2Freq+0x1c>)
 800320a:	6810      	ldr	r0, [r2, #0]
 800320c:	40d8      	lsrs	r0, r3
 800320e:	4770      	bx	lr
 8003210:	40021000 	.word	0x40021000
 8003214:	08006ff6 	.word	0x08006ff6
 8003218:	20000008 	.word	0x20000008

0800321c <HAL_RCCEx_PeriphCLKConfig>:
 800321c:	6803      	ldr	r3, [r0, #0]
 800321e:	e92d 41f3 	stmdb	sp!, {r0, r1, r4, r5, r6, r7, r8, lr}
 8003222:	07d9      	lsls	r1, r3, #31
 8003224:	4605      	mov	r5, r0
 8003226:	d520      	bpl.n	800326a <HAL_RCCEx_PeriphCLKConfig+0x4e>
 8003228:	4c36      	ldr	r4, [pc, #216]	; (8003304 <HAL_RCCEx_PeriphCLKConfig+0xe8>)
 800322a:	69e3      	ldr	r3, [r4, #28]
 800322c:	00da      	lsls	r2, r3, #3
 800322e:	d432      	bmi.n	8003296 <HAL_RCCEx_PeriphCLKConfig+0x7a>
 8003230:	2601      	movs	r6, #1
 8003232:	69e3      	ldr	r3, [r4, #28]
 8003234:	f043 5380 	orr.w	r3, r3, #268435456	; 0x10000000
 8003238:	61e3      	str	r3, [r4, #28]
 800323a:	69e3      	ldr	r3, [r4, #28]
 800323c:	f003 5380 	and.w	r3, r3, #268435456	; 0x10000000
 8003240:	9301      	str	r3, [sp, #4]
 8003242:	9b01      	ldr	r3, [sp, #4]
 8003244:	4f30      	ldr	r7, [pc, #192]	; (8003308 <HAL_RCCEx_PeriphCLKConfig+0xec>)
 8003246:	683b      	ldr	r3, [r7, #0]
 8003248:	05db      	lsls	r3, r3, #23
 800324a:	d526      	bpl.n	800329a <HAL_RCCEx_PeriphCLKConfig+0x7e>
 800324c:	6a23      	ldr	r3, [r4, #32]
 800324e:	f413 7340 	ands.w	r3, r3, #768	; 0x300
 8003252:	d136      	bne.n	80032c2 <HAL_RCCEx_PeriphCLKConfig+0xa6>
 8003254:	6a23      	ldr	r3, [r4, #32]
 8003256:	686a      	ldr	r2, [r5, #4]
 8003258:	f423 7340 	bic.w	r3, r3, #768	; 0x300
 800325c:	4313      	orrs	r3, r2
 800325e:	6223      	str	r3, [r4, #32]
 8003260:	b11e      	cbz	r6, 800326a <HAL_RCCEx_PeriphCLKConfig+0x4e>
 8003262:	69e3      	ldr	r3, [r4, #28]
 8003264:	f023 5380 	bic.w	r3, r3, #268435456	; 0x10000000
 8003268:	61e3      	str	r3, [r4, #28]
 800326a:	6828      	ldr	r0, [r5, #0]
 800326c:	0783      	lsls	r3, r0, #30
 800326e:	d506      	bpl.n	800327e <HAL_RCCEx_PeriphCLKConfig+0x62>
 8003270:	4924      	ldr	r1, [pc, #144]	; (8003304 <HAL_RCCEx_PeriphCLKConfig+0xe8>)
 8003272:	68ab      	ldr	r3, [r5, #8]
 8003274:	684a      	ldr	r2, [r1, #4]
 8003276:	f422 4240 	bic.w	r2, r2, #49152	; 0xc000
 800327a:	431a      	orrs	r2, r3
 800327c:	604a      	str	r2, [r1, #4]
 800327e:	f010 0010 	ands.w	r0, r0, #16
 8003282:	d01b      	beq.n	80032bc <HAL_RCCEx_PeriphCLKConfig+0xa0>
 8003284:	4a1f      	ldr	r2, [pc, #124]	; (8003304 <HAL_RCCEx_PeriphCLKConfig+0xe8>)
 8003286:	68e9      	ldr	r1, [r5, #12]
 8003288:	6853      	ldr	r3, [r2, #4]
 800328a:	2000      	movs	r0, #0
 800328c:	f423 0380 	bic.w	r3, r3, #4194304	; 0x400000
 8003290:	430b      	orrs	r3, r1
 8003292:	6053      	str	r3, [r2, #4]
 8003294:	e012      	b.n	80032bc <HAL_RCCEx_PeriphCLKConfig+0xa0>
 8003296:	2600      	movs	r6, #0
 8003298:	e7d4      	b.n	8003244 <HAL_RCCEx_PeriphCLKConfig+0x28>
 800329a:	683b      	ldr	r3, [r7, #0]
 800329c:	f443 7380 	orr.w	r3, r3, #256	; 0x100
 80032a0:	603b      	str	r3, [r7, #0]
 80032a2:	f7fe f97d 	bl	80015a0 <HAL_GetTick>
 80032a6:	4680      	mov	r8, r0
 80032a8:	683b      	ldr	r3, [r7, #0]
 80032aa:	05d8      	lsls	r0, r3, #23
 80032ac:	d4ce      	bmi.n	800324c <HAL_RCCEx_PeriphCLKConfig+0x30>
 80032ae:	f7fe f977 	bl	80015a0 <HAL_GetTick>
 80032b2:	eba0 0008 	sub.w	r0, r0, r8
 80032b6:	2864      	cmp	r0, #100	; 0x64
 80032b8:	d9f6      	bls.n	80032a8 <HAL_RCCEx_PeriphCLKConfig+0x8c>
 80032ba:	2003      	movs	r0, #3
 80032bc:	b002      	add	sp, #8
 80032be:	e8bd 81f0 	ldmia.w	sp!, {r4, r5, r6, r7, r8, pc}
 80032c2:	686a      	ldr	r2, [r5, #4]
 80032c4:	f402 7240 	and.w	r2, r2, #768	; 0x300
 80032c8:	429a      	cmp	r2, r3
 80032ca:	d0c3      	beq.n	8003254 <HAL_RCCEx_PeriphCLKConfig+0x38>
 80032cc:	2001      	movs	r0, #1
 80032ce:	4a0f      	ldr	r2, [pc, #60]	; (800330c <HAL_RCCEx_PeriphCLKConfig+0xf0>)
 80032d0:	6a23      	ldr	r3, [r4, #32]
 80032d2:	f8c2 0440 	str.w	r0, [r2, #1088]	; 0x440
 80032d6:	2000      	movs	r0, #0
 80032d8:	f423 7140 	bic.w	r1, r3, #768	; 0x300
 80032dc:	f8c2 0440 	str.w	r0, [r2, #1088]	; 0x440
 80032e0:	6221      	str	r1, [r4, #32]
 80032e2:	07d9      	lsls	r1, r3, #31
 80032e4:	d5b6      	bpl.n	8003254 <HAL_RCCEx_PeriphCLKConfig+0x38>
 80032e6:	f7fe f95b 	bl	80015a0 <HAL_GetTick>
 80032ea:	f241 3888 	movw	r8, #5000	; 0x1388
 80032ee:	4607      	mov	r7, r0
 80032f0:	6a23      	ldr	r3, [r4, #32]
 80032f2:	079a      	lsls	r2, r3, #30
 80032f4:	d4ae      	bmi.n	8003254 <HAL_RCCEx_PeriphCLKConfig+0x38>
 80032f6:	f7fe f953 	bl	80015a0 <HAL_GetTick>
 80032fa:	1bc0      	subs	r0, r0, r7
 80032fc:	4540      	cmp	r0, r8
 80032fe:	d9f7      	bls.n	80032f0 <HAL_RCCEx_PeriphCLKConfig+0xd4>
 8003300:	e7db      	b.n	80032ba <HAL_RCCEx_PeriphCLKConfig+0x9e>
 8003302:	bf00      	nop
 8003304:	40021000 	.word	0x40021000
 8003308:	40007000 	.word	0x40007000
 800330c:	42420000 	.word	0x42420000

08003310 <HAL_RCCEx_GetPeriphCLKFreq>:
 8003310:	2802      	cmp	r0, #2
 8003312:	b508      	push	{r3, lr}
 8003314:	d044      	beq.n	80033a0 <HAL_RCCEx_GetPeriphCLKFreq+0x90>
 8003316:	2810      	cmp	r0, #16
 8003318:	d003      	beq.n	8003322 <HAL_RCCEx_GetPeriphCLKFreq+0x12>
 800331a:	2801      	cmp	r0, #1
 800331c:	d022      	beq.n	8003364 <HAL_RCCEx_GetPeriphCLKFreq+0x54>
 800331e:	2000      	movs	r0, #0
 8003320:	e034      	b.n	800338c <HAL_RCCEx_GetPeriphCLKFreq+0x7c>
 8003322:	4b25      	ldr	r3, [pc, #148]	; (80033b8 <HAL_RCCEx_GetPeriphCLKFreq+0xa8>)
 8003324:	685a      	ldr	r2, [r3, #4]
 8003326:	6818      	ldr	r0, [r3, #0]
 8003328:	f010 7080 	ands.w	r0, r0, #16777216	; 0x1000000
 800332c:	d02e      	beq.n	800338c <HAL_RCCEx_GetPeriphCLKFreq+0x7c>
 800332e:	f3c2 4183 	ubfx	r1, r2, #18, #4
 8003332:	4822      	ldr	r0, [pc, #136]	; (80033bc <HAL_RCCEx_GetPeriphCLKFreq+0xac>)
 8003334:	03d2      	lsls	r2, r2, #15
 8003336:	bf48      	it	mi
 8003338:	685a      	ldrmi	r2, [r3, #4]
 800333a:	5c40      	ldrb	r0, [r0, r1]
 800333c:	bf41      	itttt	mi
 800333e:	4920      	ldrmi	r1, [pc, #128]	; (80033c0 <HAL_RCCEx_GetPeriphCLKFreq+0xb0>)
 8003340:	f3c2 4240 	ubfxmi	r2, r2, #17, #1
 8003344:	5c89      	ldrbmi	r1, [r1, r2]
 8003346:	4a1f      	ldrmi	r2, [pc, #124]	; (80033c4 <HAL_RCCEx_GetPeriphCLKFreq+0xb4>)
 8003348:	685b      	ldr	r3, [r3, #4]
 800334a:	bf4c      	ite	mi
 800334c:	fbb2 f2f1 	udivmi	r2, r2, r1
 8003350:	4a1d      	ldrpl	r2, [pc, #116]	; (80033c8 <HAL_RCCEx_GetPeriphCLKFreq+0xb8>)
 8003352:	025b      	lsls	r3, r3, #9
 8003354:	fb02 f000 	mul.w	r0, r2, r0
 8003358:	d418      	bmi.n	800338c <HAL_RCCEx_GetPeriphCLKFreq+0x7c>
 800335a:	2303      	movs	r3, #3
 800335c:	0040      	lsls	r0, r0, #1
 800335e:	fbb0 f0f3 	udiv	r0, r0, r3
 8003362:	e013      	b.n	800338c <HAL_RCCEx_GetPeriphCLKFreq+0x7c>
 8003364:	f240 3102 	movw	r1, #770	; 0x302
 8003368:	4a13      	ldr	r2, [pc, #76]	; (80033b8 <HAL_RCCEx_GetPeriphCLKFreq+0xa8>)
 800336a:	6a13      	ldr	r3, [r2, #32]
 800336c:	4019      	ands	r1, r3
 800336e:	f5b1 7f81 	cmp.w	r1, #258	; 0x102
 8003372:	d01e      	beq.n	80033b2 <HAL_RCCEx_GetPeriphCLKFreq+0xa2>
 8003374:	f403 7340 	and.w	r3, r3, #768	; 0x300
 8003378:	f5b3 7f00 	cmp.w	r3, #512	; 0x200
 800337c:	d107      	bne.n	800338e <HAL_RCCEx_GetPeriphCLKFreq+0x7e>
 800337e:	f649 4340 	movw	r3, #40000	; 0x9c40
 8003382:	6a50      	ldr	r0, [r2, #36]	; 0x24
 8003384:	f010 0002 	ands.w	r0, r0, #2
 8003388:	bf18      	it	ne
 800338a:	4618      	movne	r0, r3
 800338c:	bd08      	pop	{r3, pc}
 800338e:	f5b3 7f40 	cmp.w	r3, #768	; 0x300
 8003392:	d1c4      	bne.n	800331e <HAL_RCCEx_GetPeriphCLKFreq+0xe>
 8003394:	6810      	ldr	r0, [r2, #0]
 8003396:	f24f 4324 	movw	r3, #62500	; 0xf424
 800339a:	f410 3000 	ands.w	r0, r0, #131072	; 0x20000
 800339e:	e7f3      	b.n	8003388 <HAL_RCCEx_GetPeriphCLKFreq+0x78>
 80033a0:	f7ff ff2c 	bl	80031fc <HAL_RCC_GetPCLK2Freq>
 80033a4:	4b04      	ldr	r3, [pc, #16]	; (80033b8 <HAL_RCCEx_GetPeriphCLKFreq+0xa8>)
 80033a6:	685b      	ldr	r3, [r3, #4]
 80033a8:	f3c3 3381 	ubfx	r3, r3, #14, #2
 80033ac:	3301      	adds	r3, #1
 80033ae:	005b      	lsls	r3, r3, #1
 80033b0:	e7d5      	b.n	800335e <HAL_RCCEx_GetPeriphCLKFreq+0x4e>
 80033b2:	f44f 4000 	mov.w	r0, #32768	; 0x8000
 80033b6:	e7e9      	b.n	800338c <HAL_RCCEx_GetPeriphCLKFreq+0x7c>
 80033b8:	40021000 	.word	0x40021000
 80033bc:	08007010 	.word	0x08007010
 80033c0:	08007020 	.word	0x08007020
 80033c4:	007a1200 	.word	0x007a1200
 80033c8:	003d0900 	.word	0x003d0900

080033cc <RTC_ReadTimeCounter>:
 80033cc:	6803      	ldr	r3, [r0, #0]
 80033ce:	b530      	push	{r4, r5, lr}
 80033d0:	699a      	ldr	r2, [r3, #24]
 80033d2:	69d8      	ldr	r0, [r3, #28]
 80033d4:	6999      	ldr	r1, [r3, #24]
 80033d6:	b295      	uxth	r5, r2
 80033d8:	b28c      	uxth	r4, r1
 80033da:	42a5      	cmp	r5, r4
 80033dc:	bf17      	itett	ne
 80033de:	69d8      	ldrne	r0, [r3, #28]
 80033e0:	b280      	uxtheq	r0, r0
 80033e2:	b280      	uxthne	r0, r0
 80033e4:	ea40 4001 	orrne.w	r0, r0, r1, lsl #16
 80033e8:	bf08      	it	eq
 80033ea:	ea40 4002 	orreq.w	r0, r0, r2, lsl #16
 80033ee:	bd30      	pop	{r4, r5, pc}

080033f0 <RTC_ReadAlarmCounter>:
 80033f0:	6803      	ldr	r3, [r0, #0]
 80033f2:	6a18      	ldr	r0, [r3, #32]
 80033f4:	6a5b      	ldr	r3, [r3, #36]	; 0x24
 80033f6:	b29b      	uxth	r3, r3
 80033f8:	ea43 4000 	orr.w	r0, r3, r0, lsl #16
 80033fc:	4770      	bx	lr

080033fe <RTC_ByteToBcd2>:
 80033fe:	2300      	movs	r3, #0
 8003400:	2809      	cmp	r0, #9
 8003402:	d803      	bhi.n	800340c <RTC_ByteToBcd2+0xe>
 8003404:	ea40 1003 	orr.w	r0, r0, r3, lsl #4
 8003408:	b2c0      	uxtb	r0, r0
 800340a:	4770      	bx	lr
 800340c:	380a      	subs	r0, #10
 800340e:	3301      	adds	r3, #1
 8003410:	b2c0      	uxtb	r0, r0
 8003412:	e7f5      	b.n	8003400 <RTC_ByteToBcd2+0x2>

08003414 <RTC_Bcd2ToByte>:
 8003414:	220a      	movs	r2, #10
 8003416:	0903      	lsrs	r3, r0, #4
 8003418:	f000 000f 	and.w	r0, r0, #15
 800341c:	fb02 0003 	mla	r0, r2, r3, r0
 8003420:	b2c0      	uxtb	r0, r0
 8003422:	4770      	bx	lr

08003424 <RTC_WeekDayNum>:
 8003424:	b530      	push	{r4, r5, lr}
 8003426:	4603      	mov	r3, r0
 8003428:	f500 64fa 	add.w	r4, r0, #2000	; 0x7d0
 800342c:	2017      	movs	r0, #23
 800342e:	2509      	movs	r5, #9
 8003430:	4348      	muls	r0, r1
 8003432:	2902      	cmp	r1, #2
 8003434:	fbb0 f5f5 	udiv	r5, r0, r5
 8003438:	d817      	bhi.n	800346a <RTC_WeekDayNum+0x46>
 800343a:	3204      	adds	r2, #4
 800343c:	1910      	adds	r0, r2, r4
 800343e:	f44f 72c8 	mov.w	r2, #400	; 0x190
 8003442:	f203 73cf 	addw	r3, r3, #1999	; 0x7cf
 8003446:	fbb3 f2f2 	udiv	r2, r3, r2
 800344a:	4428      	add	r0, r5
 800344c:	eb00 0093 	add.w	r0, r0, r3, lsr #2
 8003450:	4410      	add	r0, r2
 8003452:	2264      	movs	r2, #100	; 0x64
 8003454:	fbb3 f3f2 	udiv	r3, r3, r2
 8003458:	1ac0      	subs	r0, r0, r3
 800345a:	2307      	movs	r3, #7
 800345c:	fbb0 f3f3 	udiv	r3, r0, r3
 8003460:	ebc3 03c3 	rsb	r3, r3, r3, lsl #3
 8003464:	1ac0      	subs	r0, r0, r3
 8003466:	b2c0      	uxtb	r0, r0
 8003468:	bd30      	pop	{r4, r5, pc}
 800346a:	f44f 73c8 	mov.w	r3, #400	; 0x190
 800346e:	fbb4 f3f3 	udiv	r3, r4, r3
 8003472:	1c90      	adds	r0, r2, #2
 8003474:	4420      	add	r0, r4
 8003476:	4428      	add	r0, r5
 8003478:	eb00 0094 	add.w	r0, r0, r4, lsr #2
 800347c:	4418      	add	r0, r3
 800347e:	2364      	movs	r3, #100	; 0x64
 8003480:	fbb4 f4f3 	udiv	r4, r4, r3
 8003484:	1b00      	subs	r0, r0, r4
 8003486:	e7e8      	b.n	800345a <RTC_WeekDayNum+0x36>

08003488 <RTC_EnterInitMode>:
 8003488:	b538      	push	{r3, r4, r5, lr}
 800348a:	4604      	mov	r4, r0
 800348c:	f7fe f888 	bl	80015a0 <HAL_GetTick>
 8003490:	4605      	mov	r5, r0
 8003492:	6823      	ldr	r3, [r4, #0]
 8003494:	685a      	ldr	r2, [r3, #4]
 8003496:	0692      	lsls	r2, r2, #26
 8003498:	d505      	bpl.n	80034a6 <RTC_EnterInitMode+0x1e>
 800349a:	2000      	movs	r0, #0
 800349c:	685a      	ldr	r2, [r3, #4]
 800349e:	f042 0210 	orr.w	r2, r2, #16
 80034a2:	605a      	str	r2, [r3, #4]
 80034a4:	bd38      	pop	{r3, r4, r5, pc}
 80034a6:	f7fe f87b 	bl	80015a0 <HAL_GetTick>
 80034aa:	1b40      	subs	r0, r0, r5
 80034ac:	f5b0 7f7a 	cmp.w	r0, #1000	; 0x3e8
 80034b0:	d9ef      	bls.n	8003492 <RTC_EnterInitMode+0xa>
 80034b2:	2003      	movs	r0, #3
 80034b4:	e7f6      	b.n	80034a4 <RTC_EnterInitMode+0x1c>

080034b6 <RTC_ExitInitMode>:
 80034b6:	6802      	ldr	r2, [r0, #0]
 80034b8:	b538      	push	{r3, r4, r5, lr}
 80034ba:	6853      	ldr	r3, [r2, #4]
 80034bc:	4604      	mov	r4, r0
 80034be:	f023 0310 	bic.w	r3, r3, #16
 80034c2:	6053      	str	r3, [r2, #4]
 80034c4:	f7fe f86c 	bl	80015a0 <HAL_GetTick>
 80034c8:	4605      	mov	r5, r0
 80034ca:	6823      	ldr	r3, [r4, #0]
 80034cc:	685b      	ldr	r3, [r3, #4]
 80034ce:	069b      	lsls	r3, r3, #26
 80034d0:	d501      	bpl.n	80034d6 <RTC_ExitInitMode+0x20>
 80034d2:	2000      	movs	r0, #0
 80034d4:	bd38      	pop	{r3, r4, r5, pc}
 80034d6:	f7fe f863 	bl	80015a0 <HAL_GetTick>
 80034da:	1b40      	subs	r0, r0, r5
 80034dc:	f5b0 7f7a 	cmp.w	r0, #1000	; 0x3e8
 80034e0:	d9f3      	bls.n	80034ca <RTC_ExitInitMode+0x14>
 80034e2:	2003      	movs	r0, #3
 80034e4:	e7f6      	b.n	80034d4 <RTC_ExitInitMode+0x1e>

080034e6 <RTC_WriteTimeCounter>:
 80034e6:	b538      	push	{r3, r4, r5, lr}
 80034e8:	4605      	mov	r5, r0
 80034ea:	460c      	mov	r4, r1
 80034ec:	f7ff ffcc 	bl	8003488 <RTC_EnterInitMode>
 80034f0:	b958      	cbnz	r0, 800350a <RTC_WriteTimeCounter+0x24>
 80034f2:	682b      	ldr	r3, [r5, #0]
 80034f4:	0c22      	lsrs	r2, r4, #16
 80034f6:	b2a4      	uxth	r4, r4
 80034f8:	619a      	str	r2, [r3, #24]
 80034fa:	4628      	mov	r0, r5
 80034fc:	61dc      	str	r4, [r3, #28]
 80034fe:	f7ff ffda 	bl	80034b6 <RTC_ExitInitMode>
 8003502:	3800      	subs	r0, #0
 8003504:	bf18      	it	ne
 8003506:	2001      	movne	r0, #1
 8003508:	bd38      	pop	{r3, r4, r5, pc}
 800350a:	2001      	movs	r0, #1
 800350c:	e7fc      	b.n	8003508 <RTC_WriteTimeCounter+0x22>

0800350e <RTC_WriteAlarmCounter>:
 800350e:	b538      	push	{r3, r4, r5, lr}
 8003510:	4605      	mov	r5, r0
 8003512:	460c      	mov	r4, r1
 8003514:	f7ff ffb8 	bl	8003488 <RTC_EnterInitMode>
 8003518:	b958      	cbnz	r0, 8003532 <RTC_WriteAlarmCounter+0x24>
 800351a:	682b      	ldr	r3, [r5, #0]
 800351c:	0c22      	lsrs	r2, r4, #16
 800351e:	b2a4      	uxth	r4, r4
 8003520:	621a      	str	r2, [r3, #32]
 8003522:	4628      	mov	r0, r5
 8003524:	625c      	str	r4, [r3, #36]	; 0x24
 8003526:	f7ff ffc6 	bl	80034b6 <RTC_ExitInitMode>
 800352a:	3800      	subs	r0, #0
 800352c:	bf18      	it	ne
 800352e:	2001      	movne	r0, #1
 8003530:	bd38      	pop	{r3, r4, r5, pc}
 8003532:	2001      	movs	r0, #1
 8003534:	e7fc      	b.n	8003530 <RTC_WriteAlarmCounter+0x22>

08003536 <HAL_RTC_SetTime>:
 8003536:	b5f8      	push	{r3, r4, r5, r6, r7, lr}
 8003538:	4604      	mov	r4, r0
 800353a:	b1e0      	cbz	r0, 8003576 <HAL_RTC_SetTime+0x40>
 800353c:	b1d9      	cbz	r1, 8003576 <HAL_RTC_SetTime+0x40>
 800353e:	7c03      	ldrb	r3, [r0, #16]
 8003540:	2502      	movs	r5, #2
 8003542:	2b01      	cmp	r3, #1
 8003544:	d044      	beq.n	80035d0 <HAL_RTC_SetTime+0x9a>
 8003546:	2301      	movs	r3, #1
 8003548:	7445      	strb	r5, [r0, #17]
 800354a:	7403      	strb	r3, [r0, #16]
 800354c:	7808      	ldrb	r0, [r1, #0]
 800354e:	784d      	ldrb	r5, [r1, #1]
 8003550:	788f      	ldrb	r7, [r1, #2]
 8003552:	b992      	cbnz	r2, 800357a <HAL_RTC_SetTime+0x44>
 8003554:	263c      	movs	r6, #60	; 0x3c
 8003556:	4375      	muls	r5, r6
 8003558:	f44f 6661 	mov.w	r6, #3600	; 0xe10
 800355c:	fb06 5500 	mla	r5, r6, r0, r5
 8003560:	19ee      	adds	r6, r5, r7
 8003562:	4631      	mov	r1, r6
 8003564:	4620      	mov	r0, r4
 8003566:	f7ff ffbe 	bl	80034e6 <RTC_WriteTimeCounter>
 800356a:	4605      	mov	r5, r0
 800356c:	b1b0      	cbz	r0, 800359c <HAL_RTC_SetTime+0x66>
 800356e:	2304      	movs	r3, #4
 8003570:	7463      	strb	r3, [r4, #17]
 8003572:	2300      	movs	r3, #0
 8003574:	7423      	strb	r3, [r4, #16]
 8003576:	2501      	movs	r5, #1
 8003578:	e02a      	b.n	80035d0 <HAL_RTC_SetTime+0x9a>
 800357a:	f7ff ff4b 	bl	8003414 <RTC_Bcd2ToByte>
 800357e:	4601      	mov	r1, r0
 8003580:	4628      	mov	r0, r5
 8003582:	f7ff ff47 	bl	8003414 <RTC_Bcd2ToByte>
 8003586:	263c      	movs	r6, #60	; 0x3c
 8003588:	4346      	muls	r6, r0
 800358a:	f44f 6061 	mov.w	r0, #3600	; 0xe10
 800358e:	fb00 6601 	mla	r6, r0, r1, r6
 8003592:	4638      	mov	r0, r7
 8003594:	f7ff ff3e 	bl	8003414 <RTC_Bcd2ToByte>
 8003598:	4406      	add	r6, r0
 800359a:	e7e2      	b.n	8003562 <HAL_RTC_SetTime+0x2c>
 800359c:	6822      	ldr	r2, [r4, #0]
 800359e:	4620      	mov	r0, r4
 80035a0:	6853      	ldr	r3, [r2, #4]
 80035a2:	f023 0305 	bic.w	r3, r3, #5
 80035a6:	6053      	str	r3, [r2, #4]
 80035a8:	f7ff ff22 	bl	80033f0 <RTC_ReadAlarmCounter>
 80035ac:	4286      	cmp	r6, r0
 80035ae:	d90b      	bls.n	80035c8 <HAL_RTC_SetTime+0x92>
 80035b0:	f500 31a8 	add.w	r1, r0, #86016	; 0x15000
 80035b4:	f501 71c0 	add.w	r1, r1, #384	; 0x180
 80035b8:	4620      	mov	r0, r4
 80035ba:	f7ff ffa8 	bl	800350e <RTC_WriteAlarmCounter>
 80035be:	b118      	cbz	r0, 80035c8 <HAL_RTC_SetTime+0x92>
 80035c0:	2304      	movs	r3, #4
 80035c2:	7425      	strb	r5, [r4, #16]
 80035c4:	7463      	strb	r3, [r4, #17]
 80035c6:	e7d6      	b.n	8003576 <HAL_RTC_SetTime+0x40>
 80035c8:	2301      	movs	r3, #1
 80035ca:	7463      	strb	r3, [r4, #17]
 80035cc:	2300      	movs	r3, #0
 80035ce:	7423      	strb	r3, [r4, #16]
 80035d0:	4628      	mov	r0, r5
 80035d2:	bdf8      	pop	{r3, r4, r5, r6, r7, pc}

080035d4 <HAL_RTC_GetTime>:
 80035d4:	e92d 47f0 	stmdb	sp!, {r4, r5, r6, r7, r8, r9, sl, lr}
 80035d8:	460e      	mov	r6, r1
 80035da:	4617      	mov	r7, r2
 80035dc:	4605      	mov	r5, r0
 80035de:	b910      	cbnz	r0, 80035e6 <HAL_RTC_GetTime+0x12>
 80035e0:	2001      	movs	r0, #1
 80035e2:	e8bd 87f0 	ldmia.w	sp!, {r4, r5, r6, r7, r8, r9, sl, pc}
 80035e6:	2900      	cmp	r1, #0
 80035e8:	d0fa      	beq.n	80035e0 <HAL_RTC_GetTime+0xc>
 80035ea:	6803      	ldr	r3, [r0, #0]
 80035ec:	685b      	ldr	r3, [r3, #4]
 80035ee:	f013 0804 	ands.w	r8, r3, #4
 80035f2:	d1f5      	bne.n	80035e0 <HAL_RTC_GetTime+0xc>
 80035f4:	f7ff feea 	bl	80033cc <RTC_ReadTimeCounter>
 80035f8:	f44f 6361 	mov.w	r3, #3600	; 0xe10
 80035fc:	fbb0 f2f3 	udiv	r2, r0, r3
 8003600:	4604      	mov	r4, r0
 8003602:	fb03 0312 	mls	r3, r3, r2, r0
 8003606:	203c      	movs	r0, #60	; 0x3c
 8003608:	fbb3 f1f0 	udiv	r1, r3, r0
 800360c:	fb00 3311 	mls	r3, r0, r1, r3
 8003610:	70b3      	strb	r3, [r6, #2]
 8003612:	4b4d      	ldr	r3, [pc, #308]	; (8003748 <HAL_RTC_GetTime+0x174>)
 8003614:	7071      	strb	r1, [r6, #1]
 8003616:	429c      	cmp	r4, r3
 8003618:	f240 808b 	bls.w	8003732 <HAL_RTC_GetTime+0x15e>
 800361c:	2318      	movs	r3, #24
 800361e:	fbb2 f9f3 	udiv	r9, r2, r3
 8003622:	fb03 2219 	mls	r2, r3, r9, r2
 8003626:	4628      	mov	r0, r5
 8003628:	7032      	strb	r2, [r6, #0]
 800362a:	f7ff fee1 	bl	80033f0 <RTC_ReadAlarmCounter>
 800362e:	f1b0 3fff 	cmp.w	r0, #4294967295
 8003632:	4682      	mov	sl, r0
 8003634:	d005      	beq.n	8003642 <HAL_RTC_GetTime+0x6e>
 8003636:	4284      	cmp	r4, r0
 8003638:	bf2c      	ite	cs
 800363a:	f04f 3aff 	movcs.w	sl, #4294967295
 800363e:	eba0 0a04 	subcc.w	sl, r0, r4
 8003642:	4942      	ldr	r1, [pc, #264]	; (800374c <HAL_RTC_GetTime+0x178>)
 8003644:	4628      	mov	r0, r5
 8003646:	fb01 4419 	mls	r4, r1, r9, r4
 800364a:	4621      	mov	r1, r4
 800364c:	f7ff ff4b 	bl	80034e6 <RTC_WriteTimeCounter>
 8003650:	2800      	cmp	r0, #0
 8003652:	d1c5      	bne.n	80035e0 <HAL_RTC_GetTime+0xc>
 8003654:	f1ba 3fff 	cmp.w	sl, #4294967295
 8003658:	d027      	beq.n	80036aa <HAL_RTC_GetTime+0xd6>
 800365a:	eb04 010a 	add.w	r1, r4, sl
 800365e:	4628      	mov	r0, r5
 8003660:	f7ff ff55 	bl	800350e <RTC_WriteAlarmCounter>
 8003664:	2800      	cmp	r0, #0
 8003666:	d1bb      	bne.n	80035e0 <HAL_RTC_GetTime+0xc>
 8003668:	2264      	movs	r2, #100	; 0x64
 800366a:	f44f 71c8 	mov.w	r1, #400	; 0x190
 800366e:	f240 2cd5 	movw	ip, #725	; 0x2d5
 8003672:	7be8      	ldrb	r0, [r5, #15]
 8003674:	7b6c      	ldrb	r4, [r5, #13]
 8003676:	7bab      	ldrb	r3, [r5, #14]
 8003678:	45c1      	cmp	r9, r8
 800367a:	d118      	bne.n	80036ae <HAL_RTC_GetTime+0xda>
 800367c:	b2e1      	uxtb	r1, r4
 800367e:	b2da      	uxtb	r2, r3
 8003680:	73e8      	strb	r0, [r5, #15]
 8003682:	7369      	strb	r1, [r5, #13]
 8003684:	73aa      	strb	r2, [r5, #14]
 8003686:	f7ff fecd 	bl	8003424 <RTC_WeekDayNum>
 800368a:	7328      	strb	r0, [r5, #12]
 800368c:	b15f      	cbz	r7, 80036a6 <HAL_RTC_GetTime+0xd2>
 800368e:	7830      	ldrb	r0, [r6, #0]
 8003690:	f7ff feb5 	bl	80033fe <RTC_ByteToBcd2>
 8003694:	7030      	strb	r0, [r6, #0]
 8003696:	7870      	ldrb	r0, [r6, #1]
 8003698:	f7ff feb1 	bl	80033fe <RTC_ByteToBcd2>
 800369c:	7070      	strb	r0, [r6, #1]
 800369e:	78b0      	ldrb	r0, [r6, #2]
 80036a0:	f7ff fead 	bl	80033fe <RTC_ByteToBcd2>
 80036a4:	70b0      	strb	r0, [r6, #2]
 80036a6:	2000      	movs	r0, #0
 80036a8:	e79b      	b.n	80035e2 <HAL_RTC_GetTime+0xe>
 80036aa:	4651      	mov	r1, sl
 80036ac:	e7d7      	b.n	800365e <HAL_RTC_GetTime+0x8a>
 80036ae:	f104 3eff 	add.w	lr, r4, #4294967295
 80036b2:	f1be 0f09 	cmp.w	lr, #9
 80036b6:	d90e      	bls.n	80036d6 <HAL_RTC_GetTime+0x102>
 80036b8:	2c0c      	cmp	r4, #12
 80036ba:	d03c      	beq.n	8003736 <HAL_RTC_GetTime+0x162>
 80036bc:	f024 0e02 	bic.w	lr, r4, #2
 80036c0:	f1be 0f04 	cmp.w	lr, #4
 80036c4:	d002      	beq.n	80036cc <HAL_RTC_GetTime+0xf8>
 80036c6:	f1be 0f09 	cmp.w	lr, #9
 80036ca:	d10b      	bne.n	80036e4 <HAL_RTC_GetTime+0x110>
 80036cc:	2b1d      	cmp	r3, #29
 80036ce:	d90d      	bls.n	80036ec <HAL_RTC_GetTime+0x118>
 80036d0:	2301      	movs	r3, #1
 80036d2:	3401      	adds	r4, #1
 80036d4:	e034      	b.n	8003740 <HAL_RTC_GetTime+0x16c>
 80036d6:	fa2c fe0e 	lsr.w	lr, ip, lr
 80036da:	f01e 0f01 	tst.w	lr, #1
 80036de:	d0ed      	beq.n	80036bc <HAL_RTC_GetTime+0xe8>
 80036e0:	2b1e      	cmp	r3, #30
 80036e2:	e7f4      	b.n	80036ce <HAL_RTC_GetTime+0xfa>
 80036e4:	2c02      	cmp	r4, #2
 80036e6:	d12b      	bne.n	8003740 <HAL_RTC_GetTime+0x16c>
 80036e8:	2b1b      	cmp	r3, #27
 80036ea:	d801      	bhi.n	80036f0 <HAL_RTC_GetTime+0x11c>
 80036ec:	3301      	adds	r3, #1
 80036ee:	e027      	b.n	8003740 <HAL_RTC_GetTime+0x16c>
 80036f0:	2b1c      	cmp	r3, #28
 80036f2:	d117      	bne.n	8003724 <HAL_RTC_GetTime+0x150>
 80036f4:	f010 0f03 	tst.w	r0, #3
 80036f8:	b283      	uxth	r3, r0
 80036fa:	d115      	bne.n	8003728 <HAL_RTC_GetTime+0x154>
 80036fc:	fbb3 fef2 	udiv	lr, r3, r2
 8003700:	fb02 3e1e 	mls	lr, r2, lr, r3
 8003704:	fa1f fe8e 	uxth.w	lr, lr
 8003708:	f1be 0f00 	cmp.w	lr, #0
 800370c:	d10f      	bne.n	800372e <HAL_RTC_GetTime+0x15a>
 800370e:	fbb3 fef1 	udiv	lr, r3, r1
 8003712:	fb01 331e 	mls	r3, r1, lr, r3
 8003716:	b29b      	uxth	r3, r3
 8003718:	2b00      	cmp	r3, #0
 800371a:	bf16      	itet	ne
 800371c:	2301      	movne	r3, #1
 800371e:	231d      	moveq	r3, #29
 8003720:	2403      	movne	r4, #3
 8003722:	e00d      	b.n	8003740 <HAL_RTC_GetTime+0x16c>
 8003724:	2b1d      	cmp	r3, #29
 8003726:	d10b      	bne.n	8003740 <HAL_RTC_GetTime+0x16c>
 8003728:	2301      	movs	r3, #1
 800372a:	2403      	movs	r4, #3
 800372c:	e008      	b.n	8003740 <HAL_RTC_GetTime+0x16c>
 800372e:	231d      	movs	r3, #29
 8003730:	e006      	b.n	8003740 <HAL_RTC_GetTime+0x16c>
 8003732:	7032      	strb	r2, [r6, #0]
 8003734:	e7aa      	b.n	800368c <HAL_RTC_GetTime+0xb8>
 8003736:	2b1e      	cmp	r3, #30
 8003738:	d9d8      	bls.n	80036ec <HAL_RTC_GetTime+0x118>
 800373a:	2301      	movs	r3, #1
 800373c:	461c      	mov	r4, r3
 800373e:	3001      	adds	r0, #1
 8003740:	f108 0801 	add.w	r8, r8, #1
 8003744:	e798      	b.n	8003678 <HAL_RTC_GetTime+0xa4>
 8003746:	bf00      	nop
 8003748:	0001517f 	.word	0x0001517f
 800374c:	00015180 	.word	0x00015180

08003750 <HAL_RTC_SetDate>:
 8003750:	b570      	push	{r4, r5, r6, lr}
 8003752:	460d      	mov	r5, r1
 8003754:	4604      	mov	r4, r0
 8003756:	b350      	cbz	r0, 80037ae <HAL_RTC_SetDate+0x5e>
 8003758:	b349      	cbz	r1, 80037ae <HAL_RTC_SetDate+0x5e>
 800375a:	7c03      	ldrb	r3, [r0, #16]
 800375c:	2002      	movs	r0, #2
 800375e:	2b01      	cmp	r3, #1
 8003760:	d048      	beq.n	80037f4 <HAL_RTC_SetDate+0xa4>
 8003762:	2301      	movs	r3, #1
 8003764:	7460      	strb	r0, [r4, #17]
 8003766:	7423      	strb	r3, [r4, #16]
 8003768:	78c8      	ldrb	r0, [r1, #3]
 800376a:	bb12      	cbnz	r2, 80037b2 <HAL_RTC_SetDate+0x62>
 800376c:	73e0      	strb	r0, [r4, #15]
 800376e:	784b      	ldrb	r3, [r1, #1]
 8003770:	7363      	strb	r3, [r4, #13]
 8003772:	788b      	ldrb	r3, [r1, #2]
 8003774:	73a3      	strb	r3, [r4, #14]
 8003776:	7ba2      	ldrb	r2, [r4, #14]
 8003778:	7b61      	ldrb	r1, [r4, #13]
 800377a:	7be0      	ldrb	r0, [r4, #15]
 800377c:	f7ff fe52 	bl	8003424 <RTC_WeekDayNum>
 8003780:	7320      	strb	r0, [r4, #12]
 8003782:	7028      	strb	r0, [r5, #0]
 8003784:	4620      	mov	r0, r4
 8003786:	f7ff fe21 	bl	80033cc <RTC_ReadTimeCounter>
 800378a:	4b1b      	ldr	r3, [pc, #108]	; (80037f8 <HAL_RTC_SetDate+0xa8>)
 800378c:	4298      	cmp	r0, r3
 800378e:	d92d      	bls.n	80037ec <HAL_RTC_SetDate+0x9c>
 8003790:	4d1a      	ldr	r5, [pc, #104]	; (80037fc <HAL_RTC_SetDate+0xac>)
 8003792:	fbb0 f1f5 	udiv	r1, r0, r5
 8003796:	fb05 0511 	mls	r5, r5, r1, r0
 800379a:	4620      	mov	r0, r4
 800379c:	4629      	mov	r1, r5
 800379e:	f7ff fea2 	bl	80034e6 <RTC_WriteTimeCounter>
 80037a2:	4606      	mov	r6, r0
 80037a4:	b188      	cbz	r0, 80037ca <HAL_RTC_SetDate+0x7a>
 80037a6:	2304      	movs	r3, #4
 80037a8:	7463      	strb	r3, [r4, #17]
 80037aa:	2300      	movs	r3, #0
 80037ac:	7423      	strb	r3, [r4, #16]
 80037ae:	2001      	movs	r0, #1
 80037b0:	e020      	b.n	80037f4 <HAL_RTC_SetDate+0xa4>
 80037b2:	f7ff fe2f 	bl	8003414 <RTC_Bcd2ToByte>
 80037b6:	73e0      	strb	r0, [r4, #15]
 80037b8:	7848      	ldrb	r0, [r1, #1]
 80037ba:	f7ff fe2b 	bl	8003414 <RTC_Bcd2ToByte>
 80037be:	7360      	strb	r0, [r4, #13]
 80037c0:	7888      	ldrb	r0, [r1, #2]
 80037c2:	f7ff fe27 	bl	8003414 <RTC_Bcd2ToByte>
 80037c6:	73a0      	strb	r0, [r4, #14]
 80037c8:	e7d5      	b.n	8003776 <HAL_RTC_SetDate+0x26>
 80037ca:	4620      	mov	r0, r4
 80037cc:	f7ff fe10 	bl	80033f0 <RTC_ReadAlarmCounter>
 80037d0:	4285      	cmp	r5, r0
 80037d2:	d90b      	bls.n	80037ec <HAL_RTC_SetDate+0x9c>
 80037d4:	f500 31a8 	add.w	r1, r0, #86016	; 0x15000
 80037d8:	f501 71c0 	add.w	r1, r1, #384	; 0x180
 80037dc:	4620      	mov	r0, r4
 80037de:	f7ff fe96 	bl	800350e <RTC_WriteAlarmCounter>
 80037e2:	b118      	cbz	r0, 80037ec <HAL_RTC_SetDate+0x9c>
 80037e4:	2304      	movs	r3, #4
 80037e6:	7426      	strb	r6, [r4, #16]
 80037e8:	7463      	strb	r3, [r4, #17]
 80037ea:	e7e0      	b.n	80037ae <HAL_RTC_SetDate+0x5e>
 80037ec:	2301      	movs	r3, #1
 80037ee:	2000      	movs	r0, #0
 80037f0:	7463      	strb	r3, [r4, #17]
 80037f2:	7420      	strb	r0, [r4, #16]
 80037f4:	bd70      	pop	{r4, r5, r6, pc}
 80037f6:	bf00      	nop
 80037f8:	00015f8f 	.word	0x00015f8f
 80037fc:	00015180 	.word	0x00015180

08003800 <HAL_RTC_SetAlarm_IT>:
 8003800:	e92d 43f7 	stmdb	sp!, {r0, r1, r2, r4, r5, r6, r7, r8, r9, lr}
 8003804:	4691      	mov	r9, r2
 8003806:	2200      	movs	r2, #0
 8003808:	460f      	mov	r7, r1
 800380a:	4605      	mov	r5, r0
 800380c:	f8ad 2004 	strh.w	r2, [sp, #4]
 8003810:	f88d 2006 	strb.w	r2, [sp, #6]
 8003814:	b918      	cbnz	r0, 800381e <HAL_RTC_SetAlarm_IT+0x1e>
 8003816:	2001      	movs	r0, #1
 8003818:	b003      	add	sp, #12
 800381a:	e8bd 83f0 	ldmia.w	sp!, {r4, r5, r6, r7, r8, r9, pc}
 800381e:	2900      	cmp	r1, #0
 8003820:	d0f9      	beq.n	8003816 <HAL_RTC_SetAlarm_IT+0x16>
 8003822:	7c03      	ldrb	r3, [r0, #16]
 8003824:	2b01      	cmp	r3, #1
 8003826:	f04f 0302 	mov.w	r3, #2
 800382a:	d051      	beq.n	80038d0 <HAL_RTC_SetAlarm_IT+0xd0>
 800382c:	2101      	movs	r1, #1
 800382e:	7443      	strb	r3, [r0, #17]
 8003830:	7401      	strb	r1, [r0, #16]
 8003832:	a901      	add	r1, sp, #4
 8003834:	f7ff fece 	bl	80035d4 <HAL_RTC_GetTime>
 8003838:	2800      	cmp	r0, #0
 800383a:	d1ec      	bne.n	8003816 <HAL_RTC_SetAlarm_IT+0x16>
 800383c:	213c      	movs	r1, #60	; 0x3c
 800383e:	f44f 6861 	mov.w	r8, #3600	; 0xe10
 8003842:	f89d 6005 	ldrb.w	r6, [sp, #5]
 8003846:	f89d 3004 	ldrb.w	r3, [sp, #4]
 800384a:	434e      	muls	r6, r1
 800384c:	fb08 6603 	mla	r6, r8, r3, r6
 8003850:	f89d 3006 	ldrb.w	r3, [sp, #6]
 8003854:	7838      	ldrb	r0, [r7, #0]
 8003856:	787c      	ldrb	r4, [r7, #1]
 8003858:	441e      	add	r6, r3
 800385a:	78bf      	ldrb	r7, [r7, #2]
 800385c:	f1b9 0f00 	cmp.w	r9, #0
 8003860:	d112      	bne.n	8003888 <HAL_RTC_SetAlarm_IT+0x88>
 8003862:	434c      	muls	r4, r1
 8003864:	fb08 4400 	mla	r4, r8, r0, r4
 8003868:	19e1      	adds	r1, r4, r7
 800386a:	42b1      	cmp	r1, r6
 800386c:	bf3c      	itt	cc
 800386e:	f501 31a8 	addcc.w	r1, r1, #86016	; 0x15000
 8003872:	f501 71c0 	addcc.w	r1, r1, #384	; 0x180
 8003876:	4628      	mov	r0, r5
 8003878:	f7ff fe49 	bl	800350e <RTC_WriteAlarmCounter>
 800387c:	b190      	cbz	r0, 80038a4 <HAL_RTC_SetAlarm_IT+0xa4>
 800387e:	2304      	movs	r3, #4
 8003880:	746b      	strb	r3, [r5, #17]
 8003882:	2300      	movs	r3, #0
 8003884:	742b      	strb	r3, [r5, #16]
 8003886:	e7c6      	b.n	8003816 <HAL_RTC_SetAlarm_IT+0x16>
 8003888:	f7ff fdc4 	bl	8003414 <RTC_Bcd2ToByte>
 800388c:	4681      	mov	r9, r0
 800388e:	4620      	mov	r0, r4
 8003890:	f7ff fdc0 	bl	8003414 <RTC_Bcd2ToByte>
 8003894:	4341      	muls	r1, r0
 8003896:	4638      	mov	r0, r7
 8003898:	f7ff fdbc 	bl	8003414 <RTC_Bcd2ToByte>
 800389c:	fb08 1109 	mla	r1, r8, r9, r1
 80038a0:	4401      	add	r1, r0
 80038a2:	e7e2      	b.n	800386a <HAL_RTC_SetAlarm_IT+0x6a>
 80038a4:	682b      	ldr	r3, [r5, #0]
 80038a6:	685a      	ldr	r2, [r3, #4]
 80038a8:	f022 0202 	bic.w	r2, r2, #2
 80038ac:	605a      	str	r2, [r3, #4]
 80038ae:	681a      	ldr	r2, [r3, #0]
 80038b0:	f042 0202 	orr.w	r2, r2, #2
 80038b4:	601a      	str	r2, [r3, #0]
 80038b6:	4b07      	ldr	r3, [pc, #28]	; (80038d4 <HAL_RTC_SetAlarm_IT+0xd4>)
 80038b8:	681a      	ldr	r2, [r3, #0]
 80038ba:	f442 3200 	orr.w	r2, r2, #131072	; 0x20000
 80038be:	601a      	str	r2, [r3, #0]
 80038c0:	689a      	ldr	r2, [r3, #8]
 80038c2:	f442 3200 	orr.w	r2, r2, #131072	; 0x20000
 80038c6:	609a      	str	r2, [r3, #8]
 80038c8:	2301      	movs	r3, #1
 80038ca:	7428      	strb	r0, [r5, #16]
 80038cc:	746b      	strb	r3, [r5, #17]
 80038ce:	e7a3      	b.n	8003818 <HAL_RTC_SetAlarm_IT+0x18>
 80038d0:	4618      	mov	r0, r3
 80038d2:	e7a1      	b.n	8003818 <HAL_RTC_SetAlarm_IT+0x18>
 80038d4:	40010400 	.word	0x40010400

080038d8 <HAL_RTC_AlarmAEventCallback>:
 80038d8:	4770      	bx	lr
	...

080038dc <HAL_RTC_AlarmIRQHandler>:
 80038dc:	6803      	ldr	r3, [r0, #0]
 80038de:	b510      	push	{r4, lr}
 80038e0:	681a      	ldr	r2, [r3, #0]
 80038e2:	4604      	mov	r4, r0
 80038e4:	0792      	lsls	r2, r2, #30
 80038e6:	d509      	bpl.n	80038fc <HAL_RTC_AlarmIRQHandler+0x20>
 80038e8:	685b      	ldr	r3, [r3, #4]
 80038ea:	079b      	lsls	r3, r3, #30
 80038ec:	d506      	bpl.n	80038fc <HAL_RTC_AlarmIRQHandler+0x20>
 80038ee:	f7ff fff3 	bl	80038d8 <HAL_RTC_AlarmAEventCallback>
 80038f2:	6822      	ldr	r2, [r4, #0]
 80038f4:	6853      	ldr	r3, [r2, #4]
 80038f6:	f023 0302 	bic.w	r3, r3, #2
 80038fa:	6053      	str	r3, [r2, #4]
 80038fc:	f44f 3200 	mov.w	r2, #131072	; 0x20000
 8003900:	4b02      	ldr	r3, [pc, #8]	; (800390c <HAL_RTC_AlarmIRQHandler+0x30>)
 8003902:	615a      	str	r2, [r3, #20]
 8003904:	2301      	movs	r3, #1
 8003906:	7463      	strb	r3, [r4, #17]
 8003908:	bd10      	pop	{r4, pc}
 800390a:	bf00      	nop
 800390c:	40010400 	.word	0x40010400

08003910 <HAL_RTC_WaitForSynchro>:
 8003910:	b538      	push	{r3, r4, r5, lr}
 8003912:	4604      	mov	r4, r0
 8003914:	b1a8      	cbz	r0, 8003942 <HAL_RTC_WaitForSynchro+0x32>
 8003916:	6802      	ldr	r2, [r0, #0]
 8003918:	6853      	ldr	r3, [r2, #4]
 800391a:	f023 0308 	bic.w	r3, r3, #8
 800391e:	6053      	str	r3, [r2, #4]
 8003920:	f7fd fe3e 	bl	80015a0 <HAL_GetTick>
 8003924:	4605      	mov	r5, r0
 8003926:	6823      	ldr	r3, [r4, #0]
 8003928:	685b      	ldr	r3, [r3, #4]
 800392a:	071b      	lsls	r3, r3, #28
 800392c:	d501      	bpl.n	8003932 <HAL_RTC_WaitForSynchro+0x22>
 800392e:	2000      	movs	r0, #0
 8003930:	bd38      	pop	{r3, r4, r5, pc}
 8003932:	f7fd fe35 	bl	80015a0 <HAL_GetTick>
 8003936:	1b40      	subs	r0, r0, r5
 8003938:	f5b0 7f7a 	cmp.w	r0, #1000	; 0x3e8
 800393c:	d9f3      	bls.n	8003926 <HAL_RTC_WaitForSynchro+0x16>
 800393e:	2003      	movs	r0, #3
 8003940:	e7f6      	b.n	8003930 <HAL_RTC_WaitForSynchro+0x20>
 8003942:	2001      	movs	r0, #1
 8003944:	e7f4      	b.n	8003930 <HAL_RTC_WaitForSynchro+0x20>
	...

08003948 <HAL_RTC_Init>:
 8003948:	b510      	push	{r4, lr}
 800394a:	4604      	mov	r4, r0
 800394c:	b170      	cbz	r0, 800396c <HAL_RTC_Init+0x24>
 800394e:	7c43      	ldrb	r3, [r0, #17]
 8003950:	f003 02ff 	and.w	r2, r3, #255	; 0xff
 8003954:	b913      	cbnz	r3, 800395c <HAL_RTC_Init+0x14>
 8003956:	7402      	strb	r2, [r0, #16]
 8003958:	f7fd fc3e 	bl	80011d8 <HAL_RTC_MspInit>
 800395c:	2302      	movs	r3, #2
 800395e:	4620      	mov	r0, r4
 8003960:	7463      	strb	r3, [r4, #17]
 8003962:	f7ff ffd5 	bl	8003910 <HAL_RTC_WaitForSynchro>
 8003966:	b118      	cbz	r0, 8003970 <HAL_RTC_Init+0x28>
 8003968:	2304      	movs	r3, #4
 800396a:	7463      	strb	r3, [r4, #17]
 800396c:	2001      	movs	r0, #1
 800396e:	e02f      	b.n	80039d0 <HAL_RTC_Init+0x88>
 8003970:	4620      	mov	r0, r4
 8003972:	f7ff fd89 	bl	8003488 <RTC_EnterInitMode>
 8003976:	2800      	cmp	r0, #0
 8003978:	d1f6      	bne.n	8003968 <HAL_RTC_Init+0x20>
 800397a:	6822      	ldr	r2, [r4, #0]
 800397c:	68a0      	ldr	r0, [r4, #8]
 800397e:	6853      	ldr	r3, [r2, #4]
 8003980:	f023 0307 	bic.w	r3, r3, #7
 8003984:	6053      	str	r3, [r2, #4]
 8003986:	4a13      	ldr	r2, [pc, #76]	; (80039d4 <HAL_RTC_Init+0x8c>)
 8003988:	b118      	cbz	r0, 8003992 <HAL_RTC_Init+0x4a>
 800398a:	6b11      	ldr	r1, [r2, #48]	; 0x30
 800398c:	f021 0101 	bic.w	r1, r1, #1
 8003990:	6311      	str	r1, [r2, #48]	; 0x30
 8003992:	6ad3      	ldr	r3, [r2, #44]	; 0x2c
 8003994:	f423 7360 	bic.w	r3, r3, #896	; 0x380
 8003998:	4303      	orrs	r3, r0
 800399a:	62d3      	str	r3, [r2, #44]	; 0x2c
 800399c:	6860      	ldr	r0, [r4, #4]
 800399e:	1c43      	adds	r3, r0, #1
 80039a0:	d105      	bne.n	80039ae <HAL_RTC_Init+0x66>
 80039a2:	2001      	movs	r0, #1
 80039a4:	f7ff fcb4 	bl	8003310 <HAL_RCCEx_GetPeriphCLKFreq>
 80039a8:	2800      	cmp	r0, #0
 80039aa:	d0dd      	beq.n	8003968 <HAL_RTC_Init+0x20>
 80039ac:	3801      	subs	r0, #1
 80039ae:	6823      	ldr	r3, [r4, #0]
 80039b0:	f3c0 4203 	ubfx	r2, r0, #16, #4
 80039b4:	b280      	uxth	r0, r0
 80039b6:	609a      	str	r2, [r3, #8]
 80039b8:	60d8      	str	r0, [r3, #12]
 80039ba:	4620      	mov	r0, r4
 80039bc:	f7ff fd7b 	bl	80034b6 <RTC_ExitInitMode>
 80039c0:	2301      	movs	r3, #1
 80039c2:	b110      	cbz	r0, 80039ca <HAL_RTC_Init+0x82>
 80039c4:	2204      	movs	r2, #4
 80039c6:	7462      	strb	r2, [r4, #17]
 80039c8:	e7d0      	b.n	800396c <HAL_RTC_Init+0x24>
 80039ca:	7363      	strb	r3, [r4, #13]
 80039cc:	81e3      	strh	r3, [r4, #14]
 80039ce:	7463      	strb	r3, [r4, #17]
 80039d0:	bd10      	pop	{r4, pc}
 80039d2:	bf00      	nop
 80039d4:	40006c00 	.word	0x40006c00

080039d8 <HAL_RTCEx_RTCEventCallback>:
 80039d8:	4770      	bx	lr

080039da <HAL_RTCEx_RTCEventErrorCallback>:
 80039da:	4770      	bx	lr

080039dc <HAL_RTCEx_RTCIRQHandler>:
 80039dc:	6803      	ldr	r3, [r0, #0]
 80039de:	b510      	push	{r4, lr}
 80039e0:	681a      	ldr	r2, [r3, #0]
 80039e2:	4604      	mov	r4, r0
 80039e4:	07d1      	lsls	r1, r2, #31
 80039e6:	d512      	bpl.n	8003a0e <HAL_RTCEx_RTCIRQHandler+0x32>
 80039e8:	685a      	ldr	r2, [r3, #4]
 80039ea:	07d2      	lsls	r2, r2, #31
 80039ec:	d50f      	bpl.n	8003a0e <HAL_RTCEx_RTCIRQHandler+0x32>
 80039ee:	685b      	ldr	r3, [r3, #4]
 80039f0:	075b      	lsls	r3, r3, #29
 80039f2:	d50d      	bpl.n	8003a10 <HAL_RTCEx_RTCIRQHandler+0x34>
 80039f4:	f7ff fff1 	bl	80039da <HAL_RTCEx_RTCEventErrorCallback>
 80039f8:	f06f 0204 	mvn.w	r2, #4
 80039fc:	6823      	ldr	r3, [r4, #0]
 80039fe:	605a      	str	r2, [r3, #4]
 8003a00:	2304      	movs	r3, #4
 8003a02:	6822      	ldr	r2, [r4, #0]
 8003a04:	7463      	strb	r3, [r4, #17]
 8003a06:	6853      	ldr	r3, [r2, #4]
 8003a08:	f023 0301 	bic.w	r3, r3, #1
 8003a0c:	6053      	str	r3, [r2, #4]
 8003a0e:	bd10      	pop	{r4, pc}
 8003a10:	f7ff ffe2 	bl	80039d8 <HAL_RTCEx_RTCEventCallback>
 8003a14:	2301      	movs	r3, #1
 8003a16:	e7f4      	b.n	8003a02 <HAL_RTCEx_RTCIRQHandler+0x26>

08003a18 <UART_EndRxTransfer>:
 8003a18:	6802      	ldr	r2, [r0, #0]
 8003a1a:	f102 030c 	add.w	r3, r2, #12
 8003a1e:	e853 3f00 	ldrex	r3, [r3]
 8003a22:	f423 7390 	bic.w	r3, r3, #288	; 0x120
 8003a26:	320c      	adds	r2, #12
 8003a28:	e842 3100 	strex	r1, r3, [r2]
 8003a2c:	6802      	ldr	r2, [r0, #0]
 8003a2e:	2900      	cmp	r1, #0
 8003a30:	d1f2      	bne.n	8003a18 <UART_EndRxTransfer>
 8003a32:	f102 0314 	add.w	r3, r2, #20
 8003a36:	e853 3f00 	ldrex	r3, [r3]
 8003a3a:	f023 0301 	bic.w	r3, r3, #1
 8003a3e:	f102 0c14 	add.w	ip, r2, #20
 8003a42:	e84c 3100 	strex	r1, r3, [ip]
 8003a46:	2900      	cmp	r1, #0
 8003a48:	d1f3      	bne.n	8003a32 <UART_EndRxTransfer+0x1a>
 8003a4a:	6b03      	ldr	r3, [r0, #48]	; 0x30
 8003a4c:	2b01      	cmp	r3, #1
 8003a4e:	d10b      	bne.n	8003a68 <UART_EndRxTransfer+0x50>
 8003a50:	f102 030c 	add.w	r3, r2, #12
 8003a54:	e853 3f00 	ldrex	r3, [r3]
 8003a58:	f023 0310 	bic.w	r3, r3, #16
 8003a5c:	f102 0c0c 	add.w	ip, r2, #12
 8003a60:	e84c 3100 	strex	r1, r3, [ip]
 8003a64:	2900      	cmp	r1, #0
 8003a66:	d1f3      	bne.n	8003a50 <UART_EndRxTransfer+0x38>
 8003a68:	2320      	movs	r3, #32
 8003a6a:	f880 3042 	strb.w	r3, [r0, #66]	; 0x42
 8003a6e:	2300      	movs	r3, #0
 8003a70:	6303      	str	r3, [r0, #48]	; 0x30
 8003a72:	4770      	bx	lr

08003a74 <UART_SetConfig>:
 8003a74:	b510      	push	{r4, lr}
 8003a76:	4604      	mov	r4, r0
 8003a78:	6803      	ldr	r3, [r0, #0]
 8003a7a:	68c1      	ldr	r1, [r0, #12]
 8003a7c:	691a      	ldr	r2, [r3, #16]
 8003a7e:	f422 5240 	bic.w	r2, r2, #12288	; 0x3000
 8003a82:	430a      	orrs	r2, r1
 8003a84:	611a      	str	r2, [r3, #16]
 8003a86:	6882      	ldr	r2, [r0, #8]
 8003a88:	6900      	ldr	r0, [r0, #16]
 8003a8a:	68d9      	ldr	r1, [r3, #12]
 8003a8c:	4302      	orrs	r2, r0
 8003a8e:	6960      	ldr	r0, [r4, #20]
 8003a90:	f421 51b0 	bic.w	r1, r1, #5632	; 0x1600
 8003a94:	f021 010c 	bic.w	r1, r1, #12
 8003a98:	4302      	orrs	r2, r0
 8003a9a:	430a      	orrs	r2, r1
 8003a9c:	60da      	str	r2, [r3, #12]
 8003a9e:	695a      	ldr	r2, [r3, #20]
 8003aa0:	69a1      	ldr	r1, [r4, #24]
 8003aa2:	f422 7240 	bic.w	r2, r2, #768	; 0x300
 8003aa6:	430a      	orrs	r2, r1
 8003aa8:	615a      	str	r2, [r3, #20]
 8003aaa:	4a0e      	ldr	r2, [pc, #56]	; (8003ae4 <UART_SetConfig+0x70>)
 8003aac:	4293      	cmp	r3, r2
 8003aae:	d115      	bne.n	8003adc <UART_SetConfig+0x68>
 8003ab0:	f7ff fba4 	bl	80031fc <HAL_RCC_GetPCLK2Freq>
 8003ab4:	2319      	movs	r3, #25
 8003ab6:	4343      	muls	r3, r0
 8003ab8:	6862      	ldr	r2, [r4, #4]
 8003aba:	6820      	ldr	r0, [r4, #0]
 8003abc:	0092      	lsls	r2, r2, #2
 8003abe:	fbb3 f3f2 	udiv	r3, r3, r2
 8003ac2:	2264      	movs	r2, #100	; 0x64
 8003ac4:	fbb3 f1f2 	udiv	r1, r3, r2
 8003ac8:	fb02 3311 	mls	r3, r2, r1, r3
 8003acc:	011b      	lsls	r3, r3, #4
 8003ace:	3332      	adds	r3, #50	; 0x32
 8003ad0:	fbb3 f3f2 	udiv	r3, r3, r2
 8003ad4:	eb03 1301 	add.w	r3, r3, r1, lsl #4
 8003ad8:	6083      	str	r3, [r0, #8]
 8003ada:	bd10      	pop	{r4, pc}
 8003adc:	f7ff fb7e 	bl	80031dc <HAL_RCC_GetPCLK1Freq>
 8003ae0:	e7e8      	b.n	8003ab4 <UART_SetConfig+0x40>
 8003ae2:	bf00      	nop
 8003ae4:	40013800 	.word	0x40013800

08003ae8 <UART_WaitOnFlagUntilTimeout.constprop.0>:
 8003ae8:	b5f8      	push	{r3, r4, r5, r6, r7, lr}
 8003aea:	4604      	mov	r4, r0
 8003aec:	460e      	mov	r6, r1
 8003aee:	4617      	mov	r7, r2
 8003af0:	461d      	mov	r5, r3
 8003af2:	6822      	ldr	r2, [r4, #0]
 8003af4:	6813      	ldr	r3, [r2, #0]
 8003af6:	ea36 0303 	bics.w	r3, r6, r3
 8003afa:	d101      	bne.n	8003b00 <UART_WaitOnFlagUntilTimeout.constprop.0+0x18>
 8003afc:	2000      	movs	r0, #0
 8003afe:	e028      	b.n	8003b52 <UART_WaitOnFlagUntilTimeout.constprop.0+0x6a>
 8003b00:	1c6b      	adds	r3, r5, #1
 8003b02:	d0f7      	beq.n	8003af4 <UART_WaitOnFlagUntilTimeout.constprop.0+0xc>
 8003b04:	b125      	cbz	r5, 8003b10 <UART_WaitOnFlagUntilTimeout.constprop.0+0x28>
 8003b06:	f7fd fd4b 	bl	80015a0 <HAL_GetTick>
 8003b0a:	1bc0      	subs	r0, r0, r7
 8003b0c:	4285      	cmp	r5, r0
 8003b0e:	d2f0      	bcs.n	8003af2 <UART_WaitOnFlagUntilTimeout.constprop.0+0xa>
 8003b10:	6822      	ldr	r2, [r4, #0]
 8003b12:	f102 030c 	add.w	r3, r2, #12
 8003b16:	e853 3f00 	ldrex	r3, [r3]
 8003b1a:	f423 73d0 	bic.w	r3, r3, #416	; 0x1a0
 8003b1e:	320c      	adds	r2, #12
 8003b20:	e842 3000 	strex	r0, r3, [r2]
 8003b24:	6821      	ldr	r1, [r4, #0]
 8003b26:	2800      	cmp	r0, #0
 8003b28:	d1f2      	bne.n	8003b10 <UART_WaitOnFlagUntilTimeout.constprop.0+0x28>
 8003b2a:	f101 0314 	add.w	r3, r1, #20
 8003b2e:	e853 3f00 	ldrex	r3, [r3]
 8003b32:	f023 0301 	bic.w	r3, r3, #1
 8003b36:	f101 0014 	add.w	r0, r1, #20
 8003b3a:	e840 3200 	strex	r2, r3, [r0]
 8003b3e:	2a00      	cmp	r2, #0
 8003b40:	d1f3      	bne.n	8003b2a <UART_WaitOnFlagUntilTimeout.constprop.0+0x42>
 8003b42:	2320      	movs	r3, #32
 8003b44:	2003      	movs	r0, #3
 8003b46:	f884 3041 	strb.w	r3, [r4, #65]	; 0x41
 8003b4a:	f884 2040 	strb.w	r2, [r4, #64]	; 0x40
 8003b4e:	f884 3042 	strb.w	r3, [r4, #66]	; 0x42
 8003b52:	bdf8      	pop	{r3, r4, r5, r6, r7, pc}

08003b54 <HAL_UART_Init>:
 8003b54:	b510      	push	{r4, lr}
 8003b56:	4604      	mov	r4, r0
 8003b58:	b348      	cbz	r0, 8003bae <HAL_UART_Init+0x5a>
 8003b5a:	f890 3041 	ldrb.w	r3, [r0, #65]	; 0x41
 8003b5e:	f003 02ff 	and.w	r2, r3, #255	; 0xff
 8003b62:	b91b      	cbnz	r3, 8003b6c <HAL_UART_Init+0x18>
 8003b64:	f880 2040 	strb.w	r2, [r0, #64]	; 0x40
 8003b68:	f7fd fc6e 	bl	8001448 <HAL_UART_MspInit>
 8003b6c:	2324      	movs	r3, #36	; 0x24
 8003b6e:	6822      	ldr	r2, [r4, #0]
 8003b70:	f884 3041 	strb.w	r3, [r4, #65]	; 0x41
 8003b74:	68d3      	ldr	r3, [r2, #12]
 8003b76:	4620      	mov	r0, r4
 8003b78:	f423 5300 	bic.w	r3, r3, #8192	; 0x2000
 8003b7c:	60d3      	str	r3, [r2, #12]
 8003b7e:	f7ff ff79 	bl	8003a74 <UART_SetConfig>
 8003b82:	6823      	ldr	r3, [r4, #0]
 8003b84:	2000      	movs	r0, #0
 8003b86:	691a      	ldr	r2, [r3, #16]
 8003b88:	f422 4290 	bic.w	r2, r2, #18432	; 0x4800
 8003b8c:	611a      	str	r2, [r3, #16]
 8003b8e:	695a      	ldr	r2, [r3, #20]
 8003b90:	f022 022a 	bic.w	r2, r2, #42	; 0x2a
 8003b94:	615a      	str	r2, [r3, #20]
 8003b96:	68da      	ldr	r2, [r3, #12]
 8003b98:	f442 5200 	orr.w	r2, r2, #8192	; 0x2000
 8003b9c:	60da      	str	r2, [r3, #12]
 8003b9e:	2320      	movs	r3, #32
 8003ba0:	6460      	str	r0, [r4, #68]	; 0x44
 8003ba2:	f884 3041 	strb.w	r3, [r4, #65]	; 0x41
 8003ba6:	f884 3042 	strb.w	r3, [r4, #66]	; 0x42
 8003baa:	6360      	str	r0, [r4, #52]	; 0x34
 8003bac:	bd10      	pop	{r4, pc}
 8003bae:	2001      	movs	r0, #1
 8003bb0:	e7fc      	b.n	8003bac <HAL_UART_Init+0x58>

08003bb2 <HAL_UART_Transmit>:
 8003bb2:	e92d 43f8 	stmdb	sp!, {r3, r4, r5, r6, r7, r8, r9, lr}
 8003bb6:	4699      	mov	r9, r3
 8003bb8:	f890 3041 	ldrb.w	r3, [r0, #65]	; 0x41
 8003bbc:	4604      	mov	r4, r0
 8003bbe:	2b20      	cmp	r3, #32
 8003bc0:	460e      	mov	r6, r1
 8003bc2:	4617      	mov	r7, r2
 8003bc4:	d13c      	bne.n	8003c40 <HAL_UART_Transmit+0x8e>
 8003bc6:	2900      	cmp	r1, #0
 8003bc8:	d03c      	beq.n	8003c44 <HAL_UART_Transmit+0x92>
 8003bca:	2a00      	cmp	r2, #0
 8003bcc:	d03a      	beq.n	8003c44 <HAL_UART_Transmit+0x92>
 8003bce:	2321      	movs	r3, #33	; 0x21
 8003bd0:	2500      	movs	r5, #0
 8003bd2:	6445      	str	r5, [r0, #68]	; 0x44
 8003bd4:	f880 3041 	strb.w	r3, [r0, #65]	; 0x41
 8003bd8:	f7fd fce2 	bl	80015a0 <HAL_GetTick>
 8003bdc:	68a3      	ldr	r3, [r4, #8]
 8003bde:	4680      	mov	r8, r0
 8003be0:	f5b3 5f80 	cmp.w	r3, #4096	; 0x1000
 8003be4:	84a7      	strh	r7, [r4, #36]	; 0x24
 8003be6:	84e7      	strh	r7, [r4, #38]	; 0x26
 8003be8:	d103      	bne.n	8003bf2 <HAL_UART_Transmit+0x40>
 8003bea:	6923      	ldr	r3, [r4, #16]
 8003bec:	b90b      	cbnz	r3, 8003bf2 <HAL_UART_Transmit+0x40>
 8003bee:	4635      	mov	r5, r6
 8003bf0:	461e      	mov	r6, r3
 8003bf2:	8ce3      	ldrh	r3, [r4, #38]	; 0x26
 8003bf4:	b29b      	uxth	r3, r3
 8003bf6:	b953      	cbnz	r3, 8003c0e <HAL_UART_Transmit+0x5c>
 8003bf8:	464b      	mov	r3, r9
 8003bfa:	4642      	mov	r2, r8
 8003bfc:	2140      	movs	r1, #64	; 0x40
 8003bfe:	4620      	mov	r0, r4
 8003c00:	f7ff ff72 	bl	8003ae8 <UART_WaitOnFlagUntilTimeout.constprop.0>
 8003c04:	b950      	cbnz	r0, 8003c1c <HAL_UART_Transmit+0x6a>
 8003c06:	2320      	movs	r3, #32
 8003c08:	f884 3041 	strb.w	r3, [r4, #65]	; 0x41
 8003c0c:	e007      	b.n	8003c1e <HAL_UART_Transmit+0x6c>
 8003c0e:	464b      	mov	r3, r9
 8003c10:	4642      	mov	r2, r8
 8003c12:	2180      	movs	r1, #128	; 0x80
 8003c14:	4620      	mov	r0, r4
 8003c16:	f7ff ff67 	bl	8003ae8 <UART_WaitOnFlagUntilTimeout.constprop.0>
 8003c1a:	b110      	cbz	r0, 8003c22 <HAL_UART_Transmit+0x70>
 8003c1c:	2003      	movs	r0, #3
 8003c1e:	e8bd 83f8 	ldmia.w	sp!, {r3, r4, r5, r6, r7, r8, r9, pc}
 8003c22:	6822      	ldr	r2, [r4, #0]
 8003c24:	b94e      	cbnz	r6, 8003c3a <HAL_UART_Transmit+0x88>
 8003c26:	f835 3b02 	ldrh.w	r3, [r5], #2
 8003c2a:	f3c3 0308 	ubfx	r3, r3, #0, #9
 8003c2e:	6053      	str	r3, [r2, #4]
 8003c30:	8ce1      	ldrh	r1, [r4, #38]	; 0x26
 8003c32:	3901      	subs	r1, #1
 8003c34:	b289      	uxth	r1, r1
 8003c36:	84e1      	strh	r1, [r4, #38]	; 0x26
 8003c38:	e7db      	b.n	8003bf2 <HAL_UART_Transmit+0x40>
 8003c3a:	f816 3b01 	ldrb.w	r3, [r6], #1
 8003c3e:	e7f6      	b.n	8003c2e <HAL_UART_Transmit+0x7c>
 8003c40:	2002      	movs	r0, #2
 8003c42:	e7ec      	b.n	8003c1e <HAL_UART_Transmit+0x6c>
 8003c44:	2001      	movs	r0, #1
 8003c46:	e7ea      	b.n	8003c1e <HAL_UART_Transmit+0x6c>

08003c48 <HAL_UART_TxCpltCallback>:
 8003c48:	4770      	bx	lr

08003c4a <HAL_UART_ErrorCallback>:
 8003c4a:	4770      	bx	lr

08003c4c <UART_DMAAbortOnError>:
 8003c4c:	b508      	push	{r3, lr}
 8003c4e:	2300      	movs	r3, #0
 8003c50:	6a40      	ldr	r0, [r0, #36]	; 0x24
 8003c52:	85c3      	strh	r3, [r0, #46]	; 0x2e
 8003c54:	84c3      	strh	r3, [r0, #38]	; 0x26
 8003c56:	f7ff fff8 	bl	8003c4a <HAL_UART_ErrorCallback>
 8003c5a:	bd08      	pop	{r3, pc}

08003c5c <HAL_UARTEx_RxEventCallback>:
 8003c5c:	4770      	bx	lr

08003c5e <UART_Receive_IT.part.0.isra.0>:
 8003c5e:	b507      	push	{r0, r1, r2, lr}
 8003c60:	6881      	ldr	r1, [r0, #8]
 8003c62:	6a83      	ldr	r3, [r0, #40]	; 0x28
 8003c64:	f5b1 5f80 	cmp.w	r1, #4096	; 0x1000
 8003c68:	6802      	ldr	r2, [r0, #0]
 8003c6a:	d13f      	bne.n	8003cec <UART_Receive_IT.part.0.isra.0+0x8e>
 8003c6c:	6901      	ldr	r1, [r0, #16]
 8003c6e:	2900      	cmp	r1, #0
 8003c70:	d13f      	bne.n	8003cf2 <UART_Receive_IT.part.0.isra.0+0x94>
 8003c72:	6852      	ldr	r2, [r2, #4]
 8003c74:	f3c2 0208 	ubfx	r2, r2, #0, #9
 8003c78:	f823 2b02 	strh.w	r2, [r3], #2
 8003c7c:	6283      	str	r3, [r0, #40]	; 0x28
 8003c7e:	8dc3      	ldrh	r3, [r0, #46]	; 0x2e
 8003c80:	3b01      	subs	r3, #1
 8003c82:	b29b      	uxth	r3, r3
 8003c84:	85c3      	strh	r3, [r0, #46]	; 0x2e
 8003c86:	2b00      	cmp	r3, #0
 8003c88:	d12d      	bne.n	8003ce6 <UART_Receive_IT.part.0.isra.0+0x88>
 8003c8a:	6802      	ldr	r2, [r0, #0]
 8003c8c:	68d1      	ldr	r1, [r2, #12]
 8003c8e:	f021 0120 	bic.w	r1, r1, #32
 8003c92:	60d1      	str	r1, [r2, #12]
 8003c94:	68d1      	ldr	r1, [r2, #12]
 8003c96:	f421 7180 	bic.w	r1, r1, #256	; 0x100
 8003c9a:	60d1      	str	r1, [r2, #12]
 8003c9c:	6951      	ldr	r1, [r2, #20]
 8003c9e:	f021 0101 	bic.w	r1, r1, #1
 8003ca2:	6151      	str	r1, [r2, #20]
 8003ca4:	2220      	movs	r2, #32
 8003ca6:	f880 2042 	strb.w	r2, [r0, #66]	; 0x42
 8003caa:	6343      	str	r3, [r0, #52]	; 0x34
 8003cac:	6b02      	ldr	r2, [r0, #48]	; 0x30
 8003cae:	2a01      	cmp	r2, #1
 8003cb0:	6802      	ldr	r2, [r0, #0]
 8003cb2:	d128      	bne.n	8003d06 <UART_Receive_IT.part.0.isra.0+0xa8>
 8003cb4:	6303      	str	r3, [r0, #48]	; 0x30
 8003cb6:	f102 030c 	add.w	r3, r2, #12
 8003cba:	e853 3f00 	ldrex	r3, [r3]
 8003cbe:	f023 0310 	bic.w	r3, r3, #16
 8003cc2:	f102 0c0c 	add.w	ip, r2, #12
 8003cc6:	e84c 3100 	strex	r1, r3, [ip]
 8003cca:	2900      	cmp	r1, #0
 8003ccc:	d1f3      	bne.n	8003cb6 <UART_Receive_IT.part.0.isra.0+0x58>
 8003cce:	6813      	ldr	r3, [r2, #0]
 8003cd0:	06db      	lsls	r3, r3, #27
 8003cd2:	d505      	bpl.n	8003ce0 <UART_Receive_IT.part.0.isra.0+0x82>
 8003cd4:	9101      	str	r1, [sp, #4]
 8003cd6:	6813      	ldr	r3, [r2, #0]
 8003cd8:	9301      	str	r3, [sp, #4]
 8003cda:	6853      	ldr	r3, [r2, #4]
 8003cdc:	9301      	str	r3, [sp, #4]
 8003cde:	9b01      	ldr	r3, [sp, #4]
 8003ce0:	8d81      	ldrh	r1, [r0, #44]	; 0x2c
 8003ce2:	f7ff ffbb 	bl	8003c5c <HAL_UARTEx_RxEventCallback>
 8003ce6:	b003      	add	sp, #12
 8003ce8:	f85d fb04 	ldr.w	pc, [sp], #4
 8003cec:	b939      	cbnz	r1, 8003cfe <UART_Receive_IT.part.0.isra.0+0xa0>
 8003cee:	6901      	ldr	r1, [r0, #16]
 8003cf0:	b929      	cbnz	r1, 8003cfe <UART_Receive_IT.part.0.isra.0+0xa0>
 8003cf2:	6852      	ldr	r2, [r2, #4]
 8003cf4:	b2d2      	uxtb	r2, r2
 8003cf6:	701a      	strb	r2, [r3, #0]
 8003cf8:	6a83      	ldr	r3, [r0, #40]	; 0x28
 8003cfa:	3301      	adds	r3, #1
 8003cfc:	e7be      	b.n	8003c7c <UART_Receive_IT.part.0.isra.0+0x1e>
 8003cfe:	6852      	ldr	r2, [r2, #4]
 8003d00:	f002 027f 	and.w	r2, r2, #127	; 0x7f
 8003d04:	e7f7      	b.n	8003cf6 <UART_Receive_IT.part.0.isra.0+0x98>
 8003d06:	f7fc ffab 	bl	8000c60 <HAL_UART_RxCpltCallback>
 8003d0a:	e7ec      	b.n	8003ce6 <UART_Receive_IT.part.0.isra.0+0x88>

08003d0c <HAL_UART_IRQHandler>:
 8003d0c:	6803      	ldr	r3, [r0, #0]
 8003d0e:	b537      	push	{r0, r1, r2, r4, r5, lr}
 8003d10:	681a      	ldr	r2, [r3, #0]
 8003d12:	4604      	mov	r4, r0
 8003d14:	f012 0f0f 	tst.w	r2, #15
 8003d18:	68d9      	ldr	r1, [r3, #12]
 8003d1a:	695d      	ldr	r5, [r3, #20]
 8003d1c:	d10c      	bne.n	8003d38 <HAL_UART_IRQHandler+0x2c>
 8003d1e:	0695      	lsls	r5, r2, #26
 8003d20:	d570      	bpl.n	8003e04 <HAL_UART_IRQHandler+0xf8>
 8003d22:	068d      	lsls	r5, r1, #26
 8003d24:	d56e      	bpl.n	8003e04 <HAL_UART_IRQHandler+0xf8>
 8003d26:	f890 3042 	ldrb.w	r3, [r0, #66]	; 0x42
 8003d2a:	2b22      	cmp	r3, #34	; 0x22
 8003d2c:	d164      	bne.n	8003df8 <HAL_UART_IRQHandler+0xec>
 8003d2e:	b003      	add	sp, #12
 8003d30:	e8bd 4030 	ldmia.w	sp!, {r4, r5, lr}
 8003d34:	f7ff bf93 	b.w	8003c5e <UART_Receive_IT.part.0.isra.0>
 8003d38:	f005 0001 	and.w	r0, r5, #1
 8003d3c:	f401 7590 	and.w	r5, r1, #288	; 0x120
 8003d40:	4305      	orrs	r5, r0
 8003d42:	d05f      	beq.n	8003e04 <HAL_UART_IRQHandler+0xf8>
 8003d44:	07d5      	lsls	r5, r2, #31
 8003d46:	d505      	bpl.n	8003d54 <HAL_UART_IRQHandler+0x48>
 8003d48:	05cb      	lsls	r3, r1, #23
 8003d4a:	bf42      	ittt	mi
 8003d4c:	6c63      	ldrmi	r3, [r4, #68]	; 0x44
 8003d4e:	f043 0301 	orrmi.w	r3, r3, #1
 8003d52:	6463      	strmi	r3, [r4, #68]	; 0x44
 8003d54:	0755      	lsls	r5, r2, #29
 8003d56:	d504      	bpl.n	8003d62 <HAL_UART_IRQHandler+0x56>
 8003d58:	b118      	cbz	r0, 8003d62 <HAL_UART_IRQHandler+0x56>
 8003d5a:	6c63      	ldr	r3, [r4, #68]	; 0x44
 8003d5c:	f043 0302 	orr.w	r3, r3, #2
 8003d60:	6463      	str	r3, [r4, #68]	; 0x44
 8003d62:	0793      	lsls	r3, r2, #30
 8003d64:	d504      	bpl.n	8003d70 <HAL_UART_IRQHandler+0x64>
 8003d66:	b118      	cbz	r0, 8003d70 <HAL_UART_IRQHandler+0x64>
 8003d68:	6c63      	ldr	r3, [r4, #68]	; 0x44
 8003d6a:	f043 0304 	orr.w	r3, r3, #4
 8003d6e:	6463      	str	r3, [r4, #68]	; 0x44
 8003d70:	0715      	lsls	r5, r2, #28
 8003d72:	d507      	bpl.n	8003d84 <HAL_UART_IRQHandler+0x78>
 8003d74:	f001 0320 	and.w	r3, r1, #32
 8003d78:	4303      	orrs	r3, r0
 8003d7a:	bf1e      	ittt	ne
 8003d7c:	6c63      	ldrne	r3, [r4, #68]	; 0x44
 8003d7e:	f043 0308 	orrne.w	r3, r3, #8
 8003d82:	6463      	strne	r3, [r4, #68]	; 0x44
 8003d84:	6c63      	ldr	r3, [r4, #68]	; 0x44
 8003d86:	2b00      	cmp	r3, #0
 8003d88:	d036      	beq.n	8003df8 <HAL_UART_IRQHandler+0xec>
 8003d8a:	0690      	lsls	r0, r2, #26
 8003d8c:	d508      	bpl.n	8003da0 <HAL_UART_IRQHandler+0x94>
 8003d8e:	068a      	lsls	r2, r1, #26
 8003d90:	d506      	bpl.n	8003da0 <HAL_UART_IRQHandler+0x94>
 8003d92:	f894 3042 	ldrb.w	r3, [r4, #66]	; 0x42
 8003d96:	2b22      	cmp	r3, #34	; 0x22
 8003d98:	d102      	bne.n	8003da0 <HAL_UART_IRQHandler+0x94>
 8003d9a:	4620      	mov	r0, r4
 8003d9c:	f7ff ff5f 	bl	8003c5e <UART_Receive_IT.part.0.isra.0>
 8003da0:	6823      	ldr	r3, [r4, #0]
 8003da2:	4620      	mov	r0, r4
 8003da4:	695b      	ldr	r3, [r3, #20]
 8003da6:	6c65      	ldr	r5, [r4, #68]	; 0x44
 8003da8:	f003 0340 	and.w	r3, r3, #64	; 0x40
 8003dac:	f005 0508 	and.w	r5, r5, #8
 8003db0:	431d      	orrs	r5, r3
 8003db2:	d023      	beq.n	8003dfc <HAL_UART_IRQHandler+0xf0>
 8003db4:	f7ff fe30 	bl	8003a18 <UART_EndRxTransfer>
 8003db8:	6822      	ldr	r2, [r4, #0]
 8003dba:	6953      	ldr	r3, [r2, #20]
 8003dbc:	065b      	lsls	r3, r3, #25
 8003dbe:	d518      	bpl.n	8003df2 <HAL_UART_IRQHandler+0xe6>
 8003dc0:	f102 0314 	add.w	r3, r2, #20
 8003dc4:	e853 3f00 	ldrex	r3, [r3]
 8003dc8:	f023 0340 	bic.w	r3, r3, #64	; 0x40
 8003dcc:	f102 0014 	add.w	r0, r2, #20
 8003dd0:	e840 3100 	strex	r1, r3, [r0]
 8003dd4:	2900      	cmp	r1, #0
 8003dd6:	d1f3      	bne.n	8003dc0 <HAL_UART_IRQHandler+0xb4>
 8003dd8:	6be0      	ldr	r0, [r4, #60]	; 0x3c
 8003dda:	b150      	cbz	r0, 8003df2 <HAL_UART_IRQHandler+0xe6>
 8003ddc:	4b73      	ldr	r3, [pc, #460]	; (8003fac <HAL_UART_IRQHandler+0x2a0>)
 8003dde:	6343      	str	r3, [r0, #52]	; 0x34
 8003de0:	f7fd fc7e 	bl	80016e0 <HAL_DMA_Abort_IT>
 8003de4:	b140      	cbz	r0, 8003df8 <HAL_UART_IRQHandler+0xec>
 8003de6:	6be0      	ldr	r0, [r4, #60]	; 0x3c
 8003de8:	6b43      	ldr	r3, [r0, #52]	; 0x34
 8003dea:	b003      	add	sp, #12
 8003dec:	e8bd 4030 	ldmia.w	sp!, {r4, r5, lr}
 8003df0:	4718      	bx	r3
 8003df2:	4620      	mov	r0, r4
 8003df4:	f7ff ff29 	bl	8003c4a <HAL_UART_ErrorCallback>
 8003df8:	b003      	add	sp, #12
 8003dfa:	bd30      	pop	{r4, r5, pc}
 8003dfc:	f7ff ff25 	bl	8003c4a <HAL_UART_ErrorCallback>
 8003e00:	6465      	str	r5, [r4, #68]	; 0x44
 8003e02:	e7f9      	b.n	8003df8 <HAL_UART_IRQHandler+0xec>
 8003e04:	6b20      	ldr	r0, [r4, #48]	; 0x30
 8003e06:	2801      	cmp	r0, #1
 8003e08:	f040 8094 	bne.w	8003f34 <HAL_UART_IRQHandler+0x228>
 8003e0c:	06d5      	lsls	r5, r2, #27
 8003e0e:	f140 8091 	bpl.w	8003f34 <HAL_UART_IRQHandler+0x228>
 8003e12:	06c8      	lsls	r0, r1, #27
 8003e14:	f140 808e 	bpl.w	8003f34 <HAL_UART_IRQHandler+0x228>
 8003e18:	2200      	movs	r2, #0
 8003e1a:	9201      	str	r2, [sp, #4]
 8003e1c:	681a      	ldr	r2, [r3, #0]
 8003e1e:	9201      	str	r2, [sp, #4]
 8003e20:	685a      	ldr	r2, [r3, #4]
 8003e22:	9201      	str	r2, [sp, #4]
 8003e24:	9a01      	ldr	r2, [sp, #4]
 8003e26:	695a      	ldr	r2, [r3, #20]
 8003e28:	0655      	lsls	r5, r2, #25
 8003e2a:	d54d      	bpl.n	8003ec8 <HAL_UART_IRQHandler+0x1bc>
 8003e2c:	6be1      	ldr	r1, [r4, #60]	; 0x3c
 8003e2e:	680a      	ldr	r2, [r1, #0]
 8003e30:	6852      	ldr	r2, [r2, #4]
 8003e32:	b292      	uxth	r2, r2
 8003e34:	2a00      	cmp	r2, #0
 8003e36:	d0df      	beq.n	8003df8 <HAL_UART_IRQHandler+0xec>
 8003e38:	8da0      	ldrh	r0, [r4, #44]	; 0x2c
 8003e3a:	4290      	cmp	r0, r2
 8003e3c:	d9dc      	bls.n	8003df8 <HAL_UART_IRQHandler+0xec>
 8003e3e:	85e2      	strh	r2, [r4, #46]	; 0x2e
 8003e40:	698a      	ldr	r2, [r1, #24]
 8003e42:	2a20      	cmp	r2, #32
 8003e44:	d036      	beq.n	8003eb4 <HAL_UART_IRQHandler+0x1a8>
 8003e46:	f103 020c 	add.w	r2, r3, #12
 8003e4a:	e852 2f00 	ldrex	r2, [r2]
 8003e4e:	f422 7280 	bic.w	r2, r2, #256	; 0x100
 8003e52:	f103 000c 	add.w	r0, r3, #12
 8003e56:	e840 2100 	strex	r1, r2, [r0]
 8003e5a:	2900      	cmp	r1, #0
 8003e5c:	d1f3      	bne.n	8003e46 <HAL_UART_IRQHandler+0x13a>
 8003e5e:	f103 0214 	add.w	r2, r3, #20
 8003e62:	e852 2f00 	ldrex	r2, [r2]
 8003e66:	f022 0201 	bic.w	r2, r2, #1
 8003e6a:	f103 0014 	add.w	r0, r3, #20
 8003e6e:	e840 2100 	strex	r1, r2, [r0]
 8003e72:	2900      	cmp	r1, #0
 8003e74:	d1f3      	bne.n	8003e5e <HAL_UART_IRQHandler+0x152>
 8003e76:	f103 0214 	add.w	r2, r3, #20
 8003e7a:	e852 2f00 	ldrex	r2, [r2]
 8003e7e:	f022 0240 	bic.w	r2, r2, #64	; 0x40
 8003e82:	f103 0014 	add.w	r0, r3, #20
 8003e86:	e840 2100 	strex	r1, r2, [r0]
 8003e8a:	2900      	cmp	r1, #0
 8003e8c:	d1f3      	bne.n	8003e76 <HAL_UART_IRQHandler+0x16a>
 8003e8e:	2220      	movs	r2, #32
 8003e90:	f884 2042 	strb.w	r2, [r4, #66]	; 0x42
 8003e94:	6321      	str	r1, [r4, #48]	; 0x30
 8003e96:	f103 020c 	add.w	r2, r3, #12
 8003e9a:	e852 2f00 	ldrex	r2, [r2]
 8003e9e:	f022 0210 	bic.w	r2, r2, #16
 8003ea2:	f103 000c 	add.w	r0, r3, #12
 8003ea6:	e840 2100 	strex	r1, r2, [r0]
 8003eaa:	2900      	cmp	r1, #0
 8003eac:	d1f3      	bne.n	8003e96 <HAL_UART_IRQHandler+0x18a>
 8003eae:	6be0      	ldr	r0, [r4, #60]	; 0x3c
 8003eb0:	f7fd fbf4 	bl	800169c <HAL_DMA_Abort>
 8003eb4:	2302      	movs	r3, #2
 8003eb6:	6363      	str	r3, [r4, #52]	; 0x34
 8003eb8:	8de3      	ldrh	r3, [r4, #46]	; 0x2e
 8003eba:	8da1      	ldrh	r1, [r4, #44]	; 0x2c
 8003ebc:	1ac9      	subs	r1, r1, r3
 8003ebe:	b289      	uxth	r1, r1
 8003ec0:	4620      	mov	r0, r4
 8003ec2:	f7ff fecb 	bl	8003c5c <HAL_UARTEx_RxEventCallback>
 8003ec6:	e797      	b.n	8003df8 <HAL_UART_IRQHandler+0xec>
 8003ec8:	8de1      	ldrh	r1, [r4, #46]	; 0x2e
 8003eca:	b28a      	uxth	r2, r1
 8003ecc:	8de1      	ldrh	r1, [r4, #46]	; 0x2e
 8003ece:	b289      	uxth	r1, r1
 8003ed0:	2900      	cmp	r1, #0
 8003ed2:	d091      	beq.n	8003df8 <HAL_UART_IRQHandler+0xec>
 8003ed4:	8da1      	ldrh	r1, [r4, #44]	; 0x2c
 8003ed6:	1a89      	subs	r1, r1, r2
 8003ed8:	b289      	uxth	r1, r1
 8003eda:	2900      	cmp	r1, #0
 8003edc:	d08c      	beq.n	8003df8 <HAL_UART_IRQHandler+0xec>
 8003ede:	f103 020c 	add.w	r2, r3, #12
 8003ee2:	e852 2f00 	ldrex	r2, [r2]
 8003ee6:	f422 7290 	bic.w	r2, r2, #288	; 0x120
 8003eea:	f103 050c 	add.w	r5, r3, #12
 8003eee:	e845 2000 	strex	r0, r2, [r5]
 8003ef2:	2800      	cmp	r0, #0
 8003ef4:	d1f3      	bne.n	8003ede <HAL_UART_IRQHandler+0x1d2>
 8003ef6:	f103 0214 	add.w	r2, r3, #20
 8003efa:	e852 2f00 	ldrex	r2, [r2]
 8003efe:	f022 0201 	bic.w	r2, r2, #1
 8003f02:	f103 0514 	add.w	r5, r3, #20
 8003f06:	e845 2000 	strex	r0, r2, [r5]
 8003f0a:	2800      	cmp	r0, #0
 8003f0c:	d1f3      	bne.n	8003ef6 <HAL_UART_IRQHandler+0x1ea>
 8003f0e:	2220      	movs	r2, #32
 8003f10:	f884 2042 	strb.w	r2, [r4, #66]	; 0x42
 8003f14:	6320      	str	r0, [r4, #48]	; 0x30
 8003f16:	f103 020c 	add.w	r2, r3, #12
 8003f1a:	e852 2f00 	ldrex	r2, [r2]
 8003f1e:	f022 0210 	bic.w	r2, r2, #16
 8003f22:	f103 050c 	add.w	r5, r3, #12
 8003f26:	e845 2000 	strex	r0, r2, [r5]
 8003f2a:	2800      	cmp	r0, #0
 8003f2c:	d1f3      	bne.n	8003f16 <HAL_UART_IRQHandler+0x20a>
 8003f2e:	2302      	movs	r3, #2
 8003f30:	6363      	str	r3, [r4, #52]	; 0x34
 8003f32:	e7c5      	b.n	8003ec0 <HAL_UART_IRQHandler+0x1b4>
 8003f34:	0610      	lsls	r0, r2, #24
 8003f36:	d528      	bpl.n	8003f8a <HAL_UART_IRQHandler+0x27e>
 8003f38:	060d      	lsls	r5, r1, #24
 8003f3a:	d526      	bpl.n	8003f8a <HAL_UART_IRQHandler+0x27e>
 8003f3c:	f894 2041 	ldrb.w	r2, [r4, #65]	; 0x41
 8003f40:	2a21      	cmp	r2, #33	; 0x21
 8003f42:	f47f af59 	bne.w	8003df8 <HAL_UART_IRQHandler+0xec>
 8003f46:	68a1      	ldr	r1, [r4, #8]
 8003f48:	6a22      	ldr	r2, [r4, #32]
 8003f4a:	f5b1 5f80 	cmp.w	r1, #4096	; 0x1000
 8003f4e:	d117      	bne.n	8003f80 <HAL_UART_IRQHandler+0x274>
 8003f50:	6921      	ldr	r1, [r4, #16]
 8003f52:	b9a9      	cbnz	r1, 8003f80 <HAL_UART_IRQHandler+0x274>
 8003f54:	f832 1b02 	ldrh.w	r1, [r2], #2
 8003f58:	f3c1 0108 	ubfx	r1, r1, #0, #9
 8003f5c:	6059      	str	r1, [r3, #4]
 8003f5e:	6222      	str	r2, [r4, #32]
 8003f60:	8ce2      	ldrh	r2, [r4, #38]	; 0x26
 8003f62:	3a01      	subs	r2, #1
 8003f64:	b292      	uxth	r2, r2
 8003f66:	84e2      	strh	r2, [r4, #38]	; 0x26
 8003f68:	2a00      	cmp	r2, #0
 8003f6a:	f47f af45 	bne.w	8003df8 <HAL_UART_IRQHandler+0xec>
 8003f6e:	68da      	ldr	r2, [r3, #12]
 8003f70:	f022 0280 	bic.w	r2, r2, #128	; 0x80
 8003f74:	60da      	str	r2, [r3, #12]
 8003f76:	68da      	ldr	r2, [r3, #12]
 8003f78:	f042 0240 	orr.w	r2, r2, #64	; 0x40
 8003f7c:	60da      	str	r2, [r3, #12]
 8003f7e:	e73b      	b.n	8003df8 <HAL_UART_IRQHandler+0xec>
 8003f80:	1c51      	adds	r1, r2, #1
 8003f82:	6221      	str	r1, [r4, #32]
 8003f84:	7812      	ldrb	r2, [r2, #0]
 8003f86:	605a      	str	r2, [r3, #4]
 8003f88:	e7ea      	b.n	8003f60 <HAL_UART_IRQHandler+0x254>
 8003f8a:	0650      	lsls	r0, r2, #25
 8003f8c:	f57f af34 	bpl.w	8003df8 <HAL_UART_IRQHandler+0xec>
 8003f90:	064a      	lsls	r2, r1, #25
 8003f92:	f57f af31 	bpl.w	8003df8 <HAL_UART_IRQHandler+0xec>
 8003f96:	68da      	ldr	r2, [r3, #12]
 8003f98:	4620      	mov	r0, r4
 8003f9a:	f022 0240 	bic.w	r2, r2, #64	; 0x40
 8003f9e:	60da      	str	r2, [r3, #12]
 8003fa0:	2320      	movs	r3, #32
 8003fa2:	f884 3041 	strb.w	r3, [r4, #65]	; 0x41
 8003fa6:	f7ff fe4f 	bl	8003c48 <HAL_UART_TxCpltCallback>
 8003faa:	e725      	b.n	8003df8 <HAL_UART_IRQHandler+0xec>
 8003fac:	08003c4d 	.word	0x08003c4d

08003fb0 <UART_Start_Receive_IT>:
 8003fb0:	2300      	movs	r3, #0
 8003fb2:	85c2      	strh	r2, [r0, #46]	; 0x2e
 8003fb4:	6443      	str	r3, [r0, #68]	; 0x44
 8003fb6:	2322      	movs	r3, #34	; 0x22
 8003fb8:	8582      	strh	r2, [r0, #44]	; 0x2c
 8003fba:	6902      	ldr	r2, [r0, #16]
 8003fbc:	f880 3042 	strb.w	r3, [r0, #66]	; 0x42
 8003fc0:	6281      	str	r1, [r0, #40]	; 0x28
 8003fc2:	6803      	ldr	r3, [r0, #0]
 8003fc4:	b11a      	cbz	r2, 8003fce <UART_Start_Receive_IT+0x1e>
 8003fc6:	68da      	ldr	r2, [r3, #12]
 8003fc8:	f442 7280 	orr.w	r2, r2, #256	; 0x100
 8003fcc:	60da      	str	r2, [r3, #12]
 8003fce:	695a      	ldr	r2, [r3, #20]
 8003fd0:	2000      	movs	r0, #0
 8003fd2:	f042 0201 	orr.w	r2, r2, #1
 8003fd6:	615a      	str	r2, [r3, #20]
 8003fd8:	68da      	ldr	r2, [r3, #12]
 8003fda:	f042 0220 	orr.w	r2, r2, #32
 8003fde:	60da      	str	r2, [r3, #12]
 8003fe0:	4770      	bx	lr

08003fe2 <HAL_UART_Receive_IT>:
 8003fe2:	b470      	push	{r4, r5, r6}
 8003fe4:	f890 6042 	ldrb.w	r6, [r0, #66]	; 0x42
 8003fe8:	2e20      	cmp	r6, #32
 8003fea:	d106      	bne.n	8003ffa <HAL_UART_Receive_IT+0x18>
 8003fec:	b141      	cbz	r1, 8004000 <HAL_UART_Receive_IT+0x1e>
 8003fee:	b13a      	cbz	r2, 8004000 <HAL_UART_Receive_IT+0x1e>
 8003ff0:	2400      	movs	r4, #0
 8003ff2:	6304      	str	r4, [r0, #48]	; 0x30
 8003ff4:	bc70      	pop	{r4, r5, r6}
 8003ff6:	f7ff bfdb 	b.w	8003fb0 <UART_Start_Receive_IT>
 8003ffa:	2002      	movs	r0, #2
 8003ffc:	bc70      	pop	{r4, r5, r6}
 8003ffe:	4770      	bx	lr
 8004000:	2001      	movs	r0, #1
 8004002:	e7fb      	b.n	8003ffc <HAL_UART_Receive_IT+0x1a>

08004004 <USB_CoreInit>:
 8004004:	b084      	sub	sp, #16
 8004006:	a801      	add	r0, sp, #4
 8004008:	e880 000e 	stmia.w	r0, {r1, r2, r3}
 800400c:	b004      	add	sp, #16
 800400e:	2000      	movs	r0, #0
 8004010:	4770      	bx	lr

08004012 <USB_EnableGlobalInt>:
 8004012:	4603      	mov	r3, r0
 8004014:	f44f 423f 	mov.w	r2, #48896	; 0xbf00
 8004018:	2000      	movs	r0, #0
 800401a:	f8a3 0044 	strh.w	r0, [r3, #68]	; 0x44
 800401e:	f8a3 2040 	strh.w	r2, [r3, #64]	; 0x40
 8004022:	4770      	bx	lr

08004024 <USB_DisableGlobalInt>:
 8004024:	f8b0 3040 	ldrh.w	r3, [r0, #64]	; 0x40
 8004028:	f423 537c 	bic.w	r3, r3, #16128	; 0x3f00
 800402c:	045b      	lsls	r3, r3, #17
 800402e:	0c5b      	lsrs	r3, r3, #17
 8004030:	f8a0 3040 	strh.w	r3, [r0, #64]	; 0x40
 8004034:	2000      	movs	r0, #0
 8004036:	4770      	bx	lr

08004038 <USB_SetCurrentMode>:
 8004038:	2000      	movs	r0, #0
 800403a:	4770      	bx	lr

0800403c <USB_DevInit>:
 800403c:	b084      	sub	sp, #16
 800403e:	b510      	push	{r4, lr}
 8004040:	4604      	mov	r4, r0
 8004042:	a803      	add	r0, sp, #12
 8004044:	e880 000e 	stmia.w	r0, {r1, r2, r3}
 8004048:	2000      	movs	r0, #0
 800404a:	2301      	movs	r3, #1
 800404c:	f8a4 3040 	strh.w	r3, [r4, #64]	; 0x40
 8004050:	f8a4 0040 	strh.w	r0, [r4, #64]	; 0x40
 8004054:	f8a4 0044 	strh.w	r0, [r4, #68]	; 0x44
 8004058:	f8a4 0050 	strh.w	r0, [r4, #80]	; 0x50
 800405c:	e8bd 4010 	ldmia.w	sp!, {r4, lr}
 8004060:	b004      	add	sp, #16
 8004062:	4770      	bx	lr

08004064 <USB_ActivateEndpoint>:
 8004064:	b5f0      	push	{r4, r5, r6, r7, lr}
 8004066:	780a      	ldrb	r2, [r1, #0]
 8004068:	78ce      	ldrb	r6, [r1, #3]
 800406a:	f830 4022 	ldrh.w	r4, [r0, r2, lsl #2]
 800406e:	4603      	mov	r3, r0
 8004070:	f424 44ec 	bic.w	r4, r4, #30208	; 0x7600
 8004074:	f024 0470 	bic.w	r4, r4, #112	; 0x70
 8004078:	0424      	lsls	r4, r4, #16
 800407a:	0c24      	lsrs	r4, r4, #16
 800407c:	2e03      	cmp	r6, #3
 800407e:	d84c      	bhi.n	800411a <USB_ActivateEndpoint+0xb6>
 8004080:	e8df f006 	tbb	[pc, r6]
 8004084:	44464802 	.word	0x44464802
 8004088:	4630      	mov	r0, r6
 800408a:	f444 7400 	orr.w	r4, r4, #512	; 0x200
 800408e:	f248 0780 	movw	r7, #32896	; 0x8080
 8004092:	433c      	orrs	r4, r7
 8004094:	f823 4022 	strh.w	r4, [r3, r2, lsl #2]
 8004098:	f833 4022 	ldrh.w	r4, [r3, r2, lsl #2]
 800409c:	f8df c27c 	ldr.w	ip, [pc, #636]	; 800431c <USB_ActivateEndpoint+0x2b8>
 80040a0:	b2a4      	uxth	r4, r4
 80040a2:	ea04 040c 	and.w	r4, r4, ip
 80040a6:	4314      	orrs	r4, r2
 80040a8:	433c      	orrs	r4, r7
 80040aa:	f823 4022 	strh.w	r4, [r3, r2, lsl #2]
 80040ae:	7b0c      	ldrb	r4, [r1, #12]
 80040b0:	eb03 1e02 	add.w	lr, r3, r2, lsl #4
 80040b4:	2c00      	cmp	r4, #0
 80040b6:	f040 808b 	bne.w	80041d0 <USB_ActivateEndpoint+0x16c>
 80040ba:	88cd      	ldrh	r5, [r1, #6]
 80040bc:	784c      	ldrb	r4, [r1, #1]
 80040be:	086d      	lsrs	r5, r5, #1
 80040c0:	006d      	lsls	r5, r5, #1
 80040c2:	b364      	cbz	r4, 800411e <USB_ActivateEndpoint+0xba>
 80040c4:	f8b3 4050 	ldrh.w	r4, [r3, #80]	; 0x50
 80040c8:	b2a4      	uxth	r4, r4
 80040ca:	4474      	add	r4, lr
 80040cc:	f8a4 5400 	strh.w	r5, [r4, #1024]	; 0x400
 80040d0:	f833 1022 	ldrh.w	r1, [r3, r2, lsl #2]
 80040d4:	064f      	lsls	r7, r1, #25
 80040d6:	d50a      	bpl.n	80040ee <USB_ActivateEndpoint+0x8a>
 80040d8:	f833 5022 	ldrh.w	r5, [r3, r2, lsl #2]
 80040dc:	b2ad      	uxth	r5, r5
 80040de:	ea05 050c 	and.w	r5, r5, ip
 80040e2:	f445 4500 	orr.w	r5, r5, #32768	; 0x8000
 80040e6:	f045 05c0 	orr.w	r5, r5, #192	; 0xc0
 80040ea:	f823 5022 	strh.w	r5, [r3, r2, lsl #2]
 80040ee:	f833 1022 	ldrh.w	r1, [r3, r2, lsl #2]
 80040f2:	4c8b      	ldr	r4, [pc, #556]	; (8004320 <USB_ActivateEndpoint+0x2bc>)
 80040f4:	b289      	uxth	r1, r1
 80040f6:	2e01      	cmp	r6, #1
 80040f8:	ea01 0104 	and.w	r1, r1, r4
 80040fc:	d001      	beq.n	8004102 <USB_ActivateEndpoint+0x9e>
 80040fe:	f081 0120 	eor.w	r1, r1, #32
 8004102:	f441 4100 	orr.w	r1, r1, #32768	; 0x8000
 8004106:	f041 0180 	orr.w	r1, r1, #128	; 0x80
 800410a:	e0bf      	b.n	800428c <USB_ActivateEndpoint+0x228>
 800410c:	f444 64c0 	orr.w	r4, r4, #1536	; 0x600
 8004110:	2000      	movs	r0, #0
 8004112:	e7bc      	b.n	800408e <USB_ActivateEndpoint+0x2a>
 8004114:	f444 6480 	orr.w	r4, r4, #1024	; 0x400
 8004118:	e7fa      	b.n	8004110 <USB_ActivateEndpoint+0xac>
 800411a:	2001      	movs	r0, #1
 800411c:	e7b7      	b.n	800408e <USB_ActivateEndpoint+0x2a>
 800411e:	f8b3 4050 	ldrh.w	r4, [r3, #80]	; 0x50
 8004122:	b2a4      	uxth	r4, r4
 8004124:	4474      	add	r4, lr
 8004126:	f8a4 5408 	strh.w	r5, [r4, #1032]	; 0x408
 800412a:	f8b3 4050 	ldrh.w	r4, [r3, #80]	; 0x50
 800412e:	b2a4      	uxth	r4, r4
 8004130:	4474      	add	r4, lr
 8004132:	f8b4 540c 	ldrh.w	r5, [r4, #1036]	; 0x40c
 8004136:	f3c5 0509 	ubfx	r5, r5, #0, #10
 800413a:	f8a4 540c 	strh.w	r5, [r4, #1036]	; 0x40c
 800413e:	690d      	ldr	r5, [r1, #16]
 8004140:	2d3e      	cmp	r5, #62	; 0x3e
 8004142:	d92f      	bls.n	80041a4 <USB_ActivateEndpoint+0x140>
 8004144:	f8b4 140c 	ldrh.w	r1, [r4, #1036]	; 0x40c
 8004148:	096e      	lsrs	r6, r5, #5
 800414a:	06ed      	lsls	r5, r5, #27
 800414c:	bf08      	it	eq
 800414e:	f106 36ff 	addeq.w	r6, r6, #4294967295
 8004152:	b289      	uxth	r1, r1
 8004154:	ea41 2186 	orr.w	r1, r1, r6, lsl #10
 8004158:	ea6f 4141 	mvn.w	r1, r1, lsl #17
 800415c:	ea6f 4151 	mvn.w	r1, r1, lsr #17
 8004160:	b289      	uxth	r1, r1
 8004162:	f8a4 140c 	strh.w	r1, [r4, #1036]	; 0x40c
 8004166:	f833 1022 	ldrh.w	r1, [r3, r2, lsl #2]
 800416a:	044f      	lsls	r7, r1, #17
 800416c:	d50d      	bpl.n	800418a <USB_ActivateEndpoint+0x126>
 800416e:	f833 1022 	ldrh.w	r1, [r3, r2, lsl #2]
 8004172:	f421 41e0 	bic.w	r1, r1, #28672	; 0x7000
 8004176:	f021 0170 	bic.w	r1, r1, #112	; 0x70
 800417a:	0409      	lsls	r1, r1, #16
 800417c:	0c09      	lsrs	r1, r1, #16
 800417e:	f441 4140 	orr.w	r1, r1, #49152	; 0xc000
 8004182:	f041 0180 	orr.w	r1, r1, #128	; 0x80
 8004186:	f823 1022 	strh.w	r1, [r3, r2, lsl #2]
 800418a:	4c66      	ldr	r4, [pc, #408]	; (8004324 <USB_ActivateEndpoint+0x2c0>)
 800418c:	b9ca      	cbnz	r2, 80041c2 <USB_ActivateEndpoint+0x15e>
 800418e:	8819      	ldrh	r1, [r3, #0]
 8004190:	b289      	uxth	r1, r1
 8004192:	4021      	ands	r1, r4
 8004194:	f481 5140 	eor.w	r1, r1, #12288	; 0x3000
 8004198:	f441 4100 	orr.w	r1, r1, #32768	; 0x8000
 800419c:	f041 0180 	orr.w	r1, r1, #128	; 0x80
 80041a0:	8019      	strh	r1, [r3, #0]
 80041a2:	bdf0      	pop	{r4, r5, r6, r7, pc}
 80041a4:	b915      	cbnz	r5, 80041ac <USB_ActivateEndpoint+0x148>
 80041a6:	f8b4 140c 	ldrh.w	r1, [r4, #1036]	; 0x40c
 80041aa:	e7d5      	b.n	8004158 <USB_ActivateEndpoint+0xf4>
 80041ac:	07e9      	lsls	r1, r5, #31
 80041ae:	f8b4 140c 	ldrh.w	r1, [r4, #1036]	; 0x40c
 80041b2:	ea4f 0655 	mov.w	r6, r5, lsr #1
 80041b6:	bf48      	it	mi
 80041b8:	3601      	addmi	r6, #1
 80041ba:	b289      	uxth	r1, r1
 80041bc:	ea41 2186 	orr.w	r1, r1, r6, lsl #10
 80041c0:	e7ce      	b.n	8004160 <USB_ActivateEndpoint+0xfc>
 80041c2:	f833 1022 	ldrh.w	r1, [r3, r2, lsl #2]
 80041c6:	b289      	uxth	r1, r1
 80041c8:	4021      	ands	r1, r4
 80041ca:	f481 5100 	eor.w	r1, r1, #8192	; 0x2000
 80041ce:	e798      	b.n	8004102 <USB_ActivateEndpoint+0x9e>
 80041d0:	2e02      	cmp	r6, #2
 80041d2:	f833 5022 	ldrh.w	r5, [r3, r2, lsl #2]
 80041d6:	d15c      	bne.n	8004292 <USB_ActivateEndpoint+0x22e>
 80041d8:	b2ad      	uxth	r5, r5
 80041da:	ea05 050c 	and.w	r5, r5, ip
 80041de:	f445 4501 	orr.w	r5, r5, #33024	; 0x8100
 80041e2:	f045 0580 	orr.w	r5, r5, #128	; 0x80
 80041e6:	f823 5022 	strh.w	r5, [r3, r2, lsl #2]
 80041ea:	f8b3 4050 	ldrh.w	r4, [r3, #80]	; 0x50
 80041ee:	890d      	ldrh	r5, [r1, #8]
 80041f0:	b2a4      	uxth	r4, r4
 80041f2:	086d      	lsrs	r5, r5, #1
 80041f4:	4474      	add	r4, lr
 80041f6:	006d      	lsls	r5, r5, #1
 80041f8:	f8a4 5400 	strh.w	r5, [r4, #1024]	; 0x400
 80041fc:	894d      	ldrh	r5, [r1, #10]
 80041fe:	f8b3 4050 	ldrh.w	r4, [r3, #80]	; 0x50
 8004202:	086d      	lsrs	r5, r5, #1
 8004204:	b2a4      	uxth	r4, r4
 8004206:	4474      	add	r4, lr
 8004208:	006d      	lsls	r5, r5, #1
 800420a:	f8a4 5408 	strh.w	r5, [r4, #1032]	; 0x408
 800420e:	7849      	ldrb	r1, [r1, #1]
 8004210:	2900      	cmp	r1, #0
 8004212:	d146      	bne.n	80042a2 <USB_ActivateEndpoint+0x23e>
 8004214:	f833 1022 	ldrh.w	r1, [r3, r2, lsl #2]
 8004218:	044e      	lsls	r6, r1, #17
 800421a:	d50d      	bpl.n	8004238 <USB_ActivateEndpoint+0x1d4>
 800421c:	f833 1022 	ldrh.w	r1, [r3, r2, lsl #2]
 8004220:	f421 41e0 	bic.w	r1, r1, #28672	; 0x7000
 8004224:	f021 0170 	bic.w	r1, r1, #112	; 0x70
 8004228:	0409      	lsls	r1, r1, #16
 800422a:	0c09      	lsrs	r1, r1, #16
 800422c:	f441 4140 	orr.w	r1, r1, #49152	; 0xc000
 8004230:	f041 0180 	orr.w	r1, r1, #128	; 0x80
 8004234:	f823 1022 	strh.w	r1, [r3, r2, lsl #2]
 8004238:	f833 1022 	ldrh.w	r1, [r3, r2, lsl #2]
 800423c:	064d      	lsls	r5, r1, #25
 800423e:	d50d      	bpl.n	800425c <USB_ActivateEndpoint+0x1f8>
 8004240:	f833 1022 	ldrh.w	r1, [r3, r2, lsl #2]
 8004244:	f421 41e0 	bic.w	r1, r1, #28672	; 0x7000
 8004248:	f021 0170 	bic.w	r1, r1, #112	; 0x70
 800424c:	0409      	lsls	r1, r1, #16
 800424e:	0c09      	lsrs	r1, r1, #16
 8004250:	f441 4100 	orr.w	r1, r1, #32768	; 0x8000
 8004254:	f041 01c0 	orr.w	r1, r1, #192	; 0xc0
 8004258:	f823 1022 	strh.w	r1, [r3, r2, lsl #2]
 800425c:	f248 0480 	movw	r4, #32896	; 0x8080
 8004260:	f833 1022 	ldrh.w	r1, [r3, r2, lsl #2]
 8004264:	f421 4180 	bic.w	r1, r1, #16384	; 0x4000
 8004268:	f021 0170 	bic.w	r1, r1, #112	; 0x70
 800426c:	0409      	lsls	r1, r1, #16
 800426e:	0c09      	lsrs	r1, r1, #16
 8004270:	f481 5140 	eor.w	r1, r1, #12288	; 0x3000
 8004274:	4321      	orrs	r1, r4
 8004276:	f823 1022 	strh.w	r1, [r3, r2, lsl #2]
 800427a:	f833 1022 	ldrh.w	r1, [r3, r2, lsl #2]
 800427e:	f421 41e0 	bic.w	r1, r1, #28672	; 0x7000
 8004282:	f021 0140 	bic.w	r1, r1, #64	; 0x40
 8004286:	0409      	lsls	r1, r1, #16
 8004288:	0c09      	lsrs	r1, r1, #16
 800428a:	4321      	orrs	r1, r4
 800428c:	f823 1022 	strh.w	r1, [r3, r2, lsl #2]
 8004290:	e787      	b.n	80041a2 <USB_ActivateEndpoint+0x13e>
 8004292:	f425 45e2 	bic.w	r5, r5, #28928	; 0x7100
 8004296:	f025 0570 	bic.w	r5, r5, #112	; 0x70
 800429a:	042d      	lsls	r5, r5, #16
 800429c:	0c2d      	lsrs	r5, r5, #16
 800429e:	433d      	orrs	r5, r7
 80042a0:	e7a1      	b.n	80041e6 <USB_ActivateEndpoint+0x182>
 80042a2:	f833 1022 	ldrh.w	r1, [r3, r2, lsl #2]
 80042a6:	044c      	lsls	r4, r1, #17
 80042a8:	d50d      	bpl.n	80042c6 <USB_ActivateEndpoint+0x262>
 80042aa:	f833 1022 	ldrh.w	r1, [r3, r2, lsl #2]
 80042ae:	f421 41e0 	bic.w	r1, r1, #28672	; 0x7000
 80042b2:	f021 0170 	bic.w	r1, r1, #112	; 0x70
 80042b6:	0409      	lsls	r1, r1, #16
 80042b8:	0c09      	lsrs	r1, r1, #16
 80042ba:	f441 4140 	orr.w	r1, r1, #49152	; 0xc000
 80042be:	f041 0180 	orr.w	r1, r1, #128	; 0x80
 80042c2:	f823 1022 	strh.w	r1, [r3, r2, lsl #2]
 80042c6:	f833 1022 	ldrh.w	r1, [r3, r2, lsl #2]
 80042ca:	0649      	lsls	r1, r1, #25
 80042cc:	d50d      	bpl.n	80042ea <USB_ActivateEndpoint+0x286>
 80042ce:	f833 1022 	ldrh.w	r1, [r3, r2, lsl #2]
 80042d2:	f421 41e0 	bic.w	r1, r1, #28672	; 0x7000
 80042d6:	f021 0170 	bic.w	r1, r1, #112	; 0x70
 80042da:	0409      	lsls	r1, r1, #16
 80042dc:	0c09      	lsrs	r1, r1, #16
 80042de:	f441 4100 	orr.w	r1, r1, #32768	; 0x8000
 80042e2:	f041 01c0 	orr.w	r1, r1, #192	; 0xc0
 80042e6:	f823 1022 	strh.w	r1, [r3, r2, lsl #2]
 80042ea:	f833 1022 	ldrh.w	r1, [r3, r2, lsl #2]
 80042ee:	4c0c      	ldr	r4, [pc, #48]	; (8004320 <USB_ActivateEndpoint+0x2bc>)
 80042f0:	b289      	uxth	r1, r1
 80042f2:	4021      	ands	r1, r4
 80042f4:	2e01      	cmp	r6, #1
 80042f6:	bf18      	it	ne
 80042f8:	f081 0120 	eorne.w	r1, r1, #32
 80042fc:	f441 4100 	orr.w	r1, r1, #32768	; 0x8000
 8004300:	f041 0180 	orr.w	r1, r1, #128	; 0x80
 8004304:	f823 1022 	strh.w	r1, [r3, r2, lsl #2]
 8004308:	f833 1022 	ldrh.w	r1, [r3, r2, lsl #2]
 800430c:	f421 4180 	bic.w	r1, r1, #16384	; 0x4000
 8004310:	f021 0170 	bic.w	r1, r1, #112	; 0x70
 8004314:	0409      	lsls	r1, r1, #16
 8004316:	0c09      	lsrs	r1, r1, #16
 8004318:	e6f3      	b.n	8004102 <USB_ActivateEndpoint+0x9e>
 800431a:	bf00      	nop
 800431c:	ffff8f8f 	.word	0xffff8f8f
 8004320:	ffff8fbf 	.word	0xffff8fbf
 8004324:	ffffbf8f 	.word	0xffffbf8f

08004328 <USB_DeactivateEndpoint>:
 8004328:	784a      	ldrb	r2, [r1, #1]
 800432a:	780b      	ldrb	r3, [r1, #0]
 800432c:	7b09      	ldrb	r1, [r1, #12]
 800432e:	bbd9      	cbnz	r1, 80043a8 <USB_DeactivateEndpoint+0x80>
 8004330:	b30a      	cbz	r2, 8004376 <USB_DeactivateEndpoint+0x4e>
 8004332:	f830 2023 	ldrh.w	r2, [r0, r3, lsl #2]
 8004336:	0651      	lsls	r1, r2, #25
 8004338:	d50d      	bpl.n	8004356 <USB_DeactivateEndpoint+0x2e>
 800433a:	f830 2023 	ldrh.w	r2, [r0, r3, lsl #2]
 800433e:	f422 42e0 	bic.w	r2, r2, #28672	; 0x7000
 8004342:	f022 0270 	bic.w	r2, r2, #112	; 0x70
 8004346:	0412      	lsls	r2, r2, #16
 8004348:	0c12      	lsrs	r2, r2, #16
 800434a:	f442 4200 	orr.w	r2, r2, #32768	; 0x8000
 800434e:	f042 02c0 	orr.w	r2, r2, #192	; 0xc0
 8004352:	f820 2023 	strh.w	r2, [r0, r3, lsl #2]
 8004356:	f830 2023 	ldrh.w	r2, [r0, r3, lsl #2]
 800435a:	f422 42e0 	bic.w	r2, r2, #28672	; 0x7000
 800435e:	f022 0240 	bic.w	r2, r2, #64	; 0x40
 8004362:	0412      	lsls	r2, r2, #16
 8004364:	0c12      	lsrs	r2, r2, #16
 8004366:	f442 4200 	orr.w	r2, r2, #32768	; 0x8000
 800436a:	f042 0280 	orr.w	r2, r2, #128	; 0x80
 800436e:	f820 2023 	strh.w	r2, [r0, r3, lsl #2]
 8004372:	2000      	movs	r0, #0
 8004374:	4770      	bx	lr
 8004376:	f830 2023 	ldrh.w	r2, [r0, r3, lsl #2]
 800437a:	0452      	lsls	r2, r2, #17
 800437c:	d50d      	bpl.n	800439a <USB_DeactivateEndpoint+0x72>
 800437e:	f830 2023 	ldrh.w	r2, [r0, r3, lsl #2]
 8004382:	f422 42e0 	bic.w	r2, r2, #28672	; 0x7000
 8004386:	f022 0270 	bic.w	r2, r2, #112	; 0x70
 800438a:	0412      	lsls	r2, r2, #16
 800438c:	0c12      	lsrs	r2, r2, #16
 800438e:	f442 4240 	orr.w	r2, r2, #49152	; 0xc000
 8004392:	f042 0280 	orr.w	r2, r2, #128	; 0x80
 8004396:	f820 2023 	strh.w	r2, [r0, r3, lsl #2]
 800439a:	f830 2023 	ldrh.w	r2, [r0, r3, lsl #2]
 800439e:	f422 4280 	bic.w	r2, r2, #16384	; 0x4000
 80043a2:	f022 0270 	bic.w	r2, r2, #112	; 0x70
 80043a6:	e7dc      	b.n	8004362 <USB_DeactivateEndpoint+0x3a>
 80043a8:	2a00      	cmp	r2, #0
 80043aa:	d148      	bne.n	800443e <USB_DeactivateEndpoint+0x116>
 80043ac:	f830 2023 	ldrh.w	r2, [r0, r3, lsl #2]
 80043b0:	0451      	lsls	r1, r2, #17
 80043b2:	d50d      	bpl.n	80043d0 <USB_DeactivateEndpoint+0xa8>
 80043b4:	f830 2023 	ldrh.w	r2, [r0, r3, lsl #2]
 80043b8:	f422 42e0 	bic.w	r2, r2, #28672	; 0x7000
 80043bc:	f022 0270 	bic.w	r2, r2, #112	; 0x70
 80043c0:	0412      	lsls	r2, r2, #16
 80043c2:	0c12      	lsrs	r2, r2, #16
 80043c4:	f442 4240 	orr.w	r2, r2, #49152	; 0xc000
 80043c8:	f042 0280 	orr.w	r2, r2, #128	; 0x80
 80043cc:	f820 2023 	strh.w	r2, [r0, r3, lsl #2]
 80043d0:	f830 2023 	ldrh.w	r2, [r0, r3, lsl #2]
 80043d4:	0652      	lsls	r2, r2, #25
 80043d6:	d50d      	bpl.n	80043f4 <USB_DeactivateEndpoint+0xcc>
 80043d8:	f830 2023 	ldrh.w	r2, [r0, r3, lsl #2]
 80043dc:	f422 42e0 	bic.w	r2, r2, #28672	; 0x7000
 80043e0:	f022 0270 	bic.w	r2, r2, #112	; 0x70
 80043e4:	0412      	lsls	r2, r2, #16
 80043e6:	0c12      	lsrs	r2, r2, #16
 80043e8:	f442 4200 	orr.w	r2, r2, #32768	; 0x8000
 80043ec:	f042 02c0 	orr.w	r2, r2, #192	; 0xc0
 80043f0:	f820 2023 	strh.w	r2, [r0, r3, lsl #2]
 80043f4:	f248 0180 	movw	r1, #32896	; 0x8080
 80043f8:	f830 2023 	ldrh.w	r2, [r0, r3, lsl #2]
 80043fc:	f422 42e0 	bic.w	r2, r2, #28672	; 0x7000
 8004400:	f022 0270 	bic.w	r2, r2, #112	; 0x70
 8004404:	0412      	lsls	r2, r2, #16
 8004406:	0c12      	lsrs	r2, r2, #16
 8004408:	f442 4200 	orr.w	r2, r2, #32768	; 0x8000
 800440c:	f042 02c0 	orr.w	r2, r2, #192	; 0xc0
 8004410:	f820 2023 	strh.w	r2, [r0, r3, lsl #2]
 8004414:	f830 2023 	ldrh.w	r2, [r0, r3, lsl #2]
 8004418:	f422 4280 	bic.w	r2, r2, #16384	; 0x4000
 800441c:	f022 0270 	bic.w	r2, r2, #112	; 0x70
 8004420:	0412      	lsls	r2, r2, #16
 8004422:	0c12      	lsrs	r2, r2, #16
 8004424:	430a      	orrs	r2, r1
 8004426:	f820 2023 	strh.w	r2, [r0, r3, lsl #2]
 800442a:	f830 2023 	ldrh.w	r2, [r0, r3, lsl #2]
 800442e:	f422 42e0 	bic.w	r2, r2, #28672	; 0x7000
 8004432:	f022 0240 	bic.w	r2, r2, #64	; 0x40
 8004436:	0412      	lsls	r2, r2, #16
 8004438:	0c12      	lsrs	r2, r2, #16
 800443a:	430a      	orrs	r2, r1
 800443c:	e797      	b.n	800436e <USB_DeactivateEndpoint+0x46>
 800443e:	f830 2023 	ldrh.w	r2, [r0, r3, lsl #2]
 8004442:	0451      	lsls	r1, r2, #17
 8004444:	d50d      	bpl.n	8004462 <USB_DeactivateEndpoint+0x13a>
 8004446:	f830 2023 	ldrh.w	r2, [r0, r3, lsl #2]
 800444a:	f422 42e0 	bic.w	r2, r2, #28672	; 0x7000
 800444e:	f022 0270 	bic.w	r2, r2, #112	; 0x70
 8004452:	0412      	lsls	r2, r2, #16
 8004454:	0c12      	lsrs	r2, r2, #16
 8004456:	f442 4240 	orr.w	r2, r2, #49152	; 0xc000
 800445a:	f042 0280 	orr.w	r2, r2, #128	; 0x80
 800445e:	f820 2023 	strh.w	r2, [r0, r3, lsl #2]
 8004462:	f830 2023 	ldrh.w	r2, [r0, r3, lsl #2]
 8004466:	0652      	lsls	r2, r2, #25
 8004468:	d50d      	bpl.n	8004486 <USB_DeactivateEndpoint+0x15e>
 800446a:	f830 2023 	ldrh.w	r2, [r0, r3, lsl #2]
 800446e:	f422 42e0 	bic.w	r2, r2, #28672	; 0x7000
 8004472:	f022 0270 	bic.w	r2, r2, #112	; 0x70
 8004476:	0412      	lsls	r2, r2, #16
 8004478:	0c12      	lsrs	r2, r2, #16
 800447a:	f442 4200 	orr.w	r2, r2, #32768	; 0x8000
 800447e:	f042 02c0 	orr.w	r2, r2, #192	; 0xc0
 8004482:	f820 2023 	strh.w	r2, [r0, r3, lsl #2]
 8004486:	f248 0180 	movw	r1, #32896	; 0x8080
 800448a:	f830 2023 	ldrh.w	r2, [r0, r3, lsl #2]
 800448e:	f422 42e0 	bic.w	r2, r2, #28672	; 0x7000
 8004492:	f022 0270 	bic.w	r2, r2, #112	; 0x70
 8004496:	0412      	lsls	r2, r2, #16
 8004498:	0c12      	lsrs	r2, r2, #16
 800449a:	f442 4240 	orr.w	r2, r2, #49152	; 0xc000
 800449e:	f042 0280 	orr.w	r2, r2, #128	; 0x80
 80044a2:	f820 2023 	strh.w	r2, [r0, r3, lsl #2]
 80044a6:	f830 2023 	ldrh.w	r2, [r0, r3, lsl #2]
 80044aa:	f422 42e0 	bic.w	r2, r2, #28672	; 0x7000
 80044ae:	f022 0240 	bic.w	r2, r2, #64	; 0x40
 80044b2:	0412      	lsls	r2, r2, #16
 80044b4:	0c12      	lsrs	r2, r2, #16
 80044b6:	430a      	orrs	r2, r1
 80044b8:	f820 2023 	strh.w	r2, [r0, r3, lsl #2]
 80044bc:	f830 2023 	ldrh.w	r2, [r0, r3, lsl #2]
 80044c0:	f422 4280 	bic.w	r2, r2, #16384	; 0x4000
 80044c4:	f022 0270 	bic.w	r2, r2, #112	; 0x70
 80044c8:	e7b5      	b.n	8004436 <USB_DeactivateEndpoint+0x10e>

080044ca <USB_EPSetStall>:
 80044ca:	784b      	ldrb	r3, [r1, #1]
 80044cc:	780a      	ldrb	r2, [r1, #0]
 80044ce:	b18b      	cbz	r3, 80044f4 <USB_EPSetStall+0x2a>
 80044d0:	f830 3022 	ldrh.w	r3, [r0, r2, lsl #2]
 80044d4:	f423 43e0 	bic.w	r3, r3, #28672	; 0x7000
 80044d8:	f023 0340 	bic.w	r3, r3, #64	; 0x40
 80044dc:	041b      	lsls	r3, r3, #16
 80044de:	0c1b      	lsrs	r3, r3, #16
 80044e0:	f083 0310 	eor.w	r3, r3, #16
 80044e4:	f443 4300 	orr.w	r3, r3, #32768	; 0x8000
 80044e8:	f043 0380 	orr.w	r3, r3, #128	; 0x80
 80044ec:	f820 3022 	strh.w	r3, [r0, r2, lsl #2]
 80044f0:	2000      	movs	r0, #0
 80044f2:	4770      	bx	lr
 80044f4:	f830 3022 	ldrh.w	r3, [r0, r2, lsl #2]
 80044f8:	f423 4380 	bic.w	r3, r3, #16384	; 0x4000
 80044fc:	f023 0370 	bic.w	r3, r3, #112	; 0x70
 8004500:	041b      	lsls	r3, r3, #16
 8004502:	0c1b      	lsrs	r3, r3, #16
 8004504:	f483 5380 	eor.w	r3, r3, #4096	; 0x1000
 8004508:	e7ec      	b.n	80044e4 <USB_EPSetStall+0x1a>

0800450a <USB_EPClearStall>:
 800450a:	7b0b      	ldrb	r3, [r1, #12]
 800450c:	bb3b      	cbnz	r3, 800455e <USB_EPClearStall+0x54>
 800450e:	784b      	ldrb	r3, [r1, #1]
 8004510:	780a      	ldrb	r2, [r1, #0]
 8004512:	b333      	cbz	r3, 8004562 <USB_EPClearStall+0x58>
 8004514:	f830 3022 	ldrh.w	r3, [r0, r2, lsl #2]
 8004518:	065b      	lsls	r3, r3, #25
 800451a:	d50d      	bpl.n	8004538 <USB_EPClearStall+0x2e>
 800451c:	f830 3022 	ldrh.w	r3, [r0, r2, lsl #2]
 8004520:	f423 43e0 	bic.w	r3, r3, #28672	; 0x7000
 8004524:	f023 0370 	bic.w	r3, r3, #112	; 0x70
 8004528:	041b      	lsls	r3, r3, #16
 800452a:	0c1b      	lsrs	r3, r3, #16
 800452c:	f443 4300 	orr.w	r3, r3, #32768	; 0x8000
 8004530:	f043 03c0 	orr.w	r3, r3, #192	; 0xc0
 8004534:	f820 3022 	strh.w	r3, [r0, r2, lsl #2]
 8004538:	78cb      	ldrb	r3, [r1, #3]
 800453a:	2b01      	cmp	r3, #1
 800453c:	d00f      	beq.n	800455e <USB_EPClearStall+0x54>
 800453e:	f830 3022 	ldrh.w	r3, [r0, r2, lsl #2]
 8004542:	f423 43e0 	bic.w	r3, r3, #28672	; 0x7000
 8004546:	f023 0340 	bic.w	r3, r3, #64	; 0x40
 800454a:	041b      	lsls	r3, r3, #16
 800454c:	0c1b      	lsrs	r3, r3, #16
 800454e:	f083 0320 	eor.w	r3, r3, #32
 8004552:	f443 4300 	orr.w	r3, r3, #32768	; 0x8000
 8004556:	f043 0380 	orr.w	r3, r3, #128	; 0x80
 800455a:	f820 3022 	strh.w	r3, [r0, r2, lsl #2]
 800455e:	2000      	movs	r0, #0
 8004560:	4770      	bx	lr
 8004562:	f830 3022 	ldrh.w	r3, [r0, r2, lsl #2]
 8004566:	045b      	lsls	r3, r3, #17
 8004568:	d50d      	bpl.n	8004586 <USB_EPClearStall+0x7c>
 800456a:	f830 3022 	ldrh.w	r3, [r0, r2, lsl #2]
 800456e:	f423 43e0 	bic.w	r3, r3, #28672	; 0x7000
 8004572:	f023 0370 	bic.w	r3, r3, #112	; 0x70
 8004576:	041b      	lsls	r3, r3, #16
 8004578:	0c1b      	lsrs	r3, r3, #16
 800457a:	f443 4340 	orr.w	r3, r3, #49152	; 0xc000
 800457e:	f043 0380 	orr.w	r3, r3, #128	; 0x80
 8004582:	f820 3022 	strh.w	r3, [r0, r2, lsl #2]
 8004586:	f830 3022 	ldrh.w	r3, [r0, r2, lsl #2]
 800458a:	f423 4380 	bic.w	r3, r3, #16384	; 0x4000
 800458e:	f023 0370 	bic.w	r3, r3, #112	; 0x70
 8004592:	041b      	lsls	r3, r3, #16
 8004594:	0c1b      	lsrs	r3, r3, #16
 8004596:	f483 5340 	eor.w	r3, r3, #12288	; 0x3000
 800459a:	e7da      	b.n	8004552 <USB_EPClearStall+0x48>

0800459c <USB_SetDevAddress>:
 800459c:	b911      	cbnz	r1, 80045a4 <USB_SetDevAddress+0x8>
 800459e:	2380      	movs	r3, #128	; 0x80
 80045a0:	f8a0 304c 	strh.w	r3, [r0, #76]	; 0x4c
 80045a4:	2000      	movs	r0, #0
 80045a6:	4770      	bx	lr

080045a8 <USB_DevConnect>:
 80045a8:	2000      	movs	r0, #0
 80045aa:	4770      	bx	lr

080045ac <USB_DevDisconnect>:
 80045ac:	2000      	movs	r0, #0
 80045ae:	4770      	bx	lr

080045b0 <USB_ReadInterrupts>:
 80045b0:	f8b0 0044 	ldrh.w	r0, [r0, #68]	; 0x44
 80045b4:	b280      	uxth	r0, r0
 80045b6:	4770      	bx	lr

080045b8 <USB_EP0_OutStart>:
 80045b8:	2000      	movs	r0, #0
 80045ba:	4770      	bx	lr

080045bc <USB_WritePMA>:
 80045bc:	eb00 0242 	add.w	r2, r0, r2, lsl #1
 80045c0:	3301      	adds	r3, #1
 80045c2:	f502 6280 	add.w	r2, r2, #1024	; 0x400
 80045c6:	085b      	lsrs	r3, r3, #1
 80045c8:	eb02 0383 	add.w	r3, r2, r3, lsl #2
 80045cc:	4293      	cmp	r3, r2
 80045ce:	d100      	bne.n	80045d2 <USB_WritePMA+0x16>
 80045d0:	4770      	bx	lr
 80045d2:	f831 0b02 	ldrh.w	r0, [r1], #2
 80045d6:	f822 0b04 	strh.w	r0, [r2], #4
 80045da:	e7f7      	b.n	80045cc <USB_WritePMA+0x10>

080045dc <USB_EPStartXfer>:
 80045dc:	e92d 41f0 	stmdb	sp!, {r4, r5, r6, r7, r8, lr}
 80045e0:	460c      	mov	r4, r1
 80045e2:	7849      	ldrb	r1, [r1, #1]
 80045e4:	4605      	mov	r5, r0
 80045e6:	2901      	cmp	r1, #1
 80045e8:	7b22      	ldrb	r2, [r4, #12]
 80045ea:	f040 811e 	bne.w	800482a <USB_EPStartXfer+0x24e>
 80045ee:	f8d4 e010 	ldr.w	lr, [r4, #16]
 80045f2:	69a6      	ldr	r6, [r4, #24]
 80045f4:	6961      	ldr	r1, [r4, #20]
 80045f6:	4576      	cmp	r6, lr
 80045f8:	bf28      	it	cs
 80045fa:	4676      	movcs	r6, lr
 80045fc:	bb0a      	cbnz	r2, 8004642 <USB_EPStartXfer+0x66>
 80045fe:	b2b6      	uxth	r6, r6
 8004600:	88e2      	ldrh	r2, [r4, #6]
 8004602:	4633      	mov	r3, r6
 8004604:	f7ff ffda 	bl	80045bc <USB_WritePMA>
 8004608:	f8b5 2050 	ldrh.w	r2, [r5, #80]	; 0x50
 800460c:	7821      	ldrb	r1, [r4, #0]
 800460e:	b290      	uxth	r0, r2
 8004610:	f205 4204 	addw	r2, r5, #1028	; 0x404
 8004614:	0109      	lsls	r1, r1, #4
 8004616:	4402      	add	r2, r0
 8004618:	528e      	strh	r6, [r1, r2]
 800461a:	7822      	ldrb	r2, [r4, #0]
 800461c:	f835 3022 	ldrh.w	r3, [r5, r2, lsl #2]
 8004620:	f423 43e0 	bic.w	r3, r3, #28672	; 0x7000
 8004624:	f023 0340 	bic.w	r3, r3, #64	; 0x40
 8004628:	041b      	lsls	r3, r3, #16
 800462a:	0c1b      	lsrs	r3, r3, #16
 800462c:	f083 0330 	eor.w	r3, r3, #48	; 0x30
 8004630:	2000      	movs	r0, #0
 8004632:	f443 4300 	orr.w	r3, r3, #32768	; 0x8000
 8004636:	f043 0380 	orr.w	r3, r3, #128	; 0x80
 800463a:	f825 3022 	strh.w	r3, [r5, r2, lsl #2]
 800463e:	e8bd 81f0 	ldmia.w	sp!, {r4, r5, r6, r7, r8, pc}
 8004642:	78e2      	ldrb	r2, [r4, #3]
 8004644:	7827      	ldrb	r7, [r4, #0]
 8004646:	2a02      	cmp	r2, #2
 8004648:	6a23      	ldr	r3, [r4, #32]
 800464a:	ea4f 1c07 	mov.w	ip, r7, lsl #4
 800464e:	f040 80d6 	bne.w	80047fe <USB_EPStartXfer+0x222>
 8004652:	459e      	cmp	lr, r3
 8004654:	f830 2027 	ldrh.w	r2, [r0, r7, lsl #2]
 8004658:	f080 80ba 	bcs.w	80047d0 <USB_EPStartXfer+0x1f4>
 800465c:	f422 42e0 	bic.w	r2, r2, #28672	; 0x7000
 8004660:	f022 0270 	bic.w	r2, r2, #112	; 0x70
 8004664:	0412      	lsls	r2, r2, #16
 8004666:	0c12      	lsrs	r2, r2, #16
 8004668:	f442 4201 	orr.w	r2, r2, #33024	; 0x8100
 800466c:	f042 0280 	orr.w	r2, r2, #128	; 0x80
 8004670:	f820 2027 	strh.w	r2, [r0, r7, lsl #2]
 8004674:	f830 8027 	ldrh.w	r8, [r0, r7, lsl #2]
 8004678:	f8b0 2050 	ldrh.w	r2, [r0, #80]	; 0x50
 800467c:	1b9b      	subs	r3, r3, r6
 800467e:	f018 0840 	ands.w	r8, r8, #64	; 0x40
 8004682:	6223      	str	r3, [r4, #32]
 8004684:	b297      	uxth	r7, r2
 8004686:	b2b3      	uxth	r3, r6
 8004688:	d052      	beq.n	8004730 <USB_EPStartXfer+0x154>
 800468a:	f200 420c 	addw	r2, r0, #1036	; 0x40c
 800468e:	443a      	add	r2, r7
 8004690:	f822 300c 	strh.w	r3, [r2, ip]
 8004694:	8962      	ldrh	r2, [r4, #10]
 8004696:	f7ff ff91 	bl	80045bc <USB_WritePMA>
 800469a:	6a27      	ldr	r7, [r4, #32]
 800469c:	6923      	ldr	r3, [r4, #16]
 800469e:	6961      	ldr	r1, [r4, #20]
 80046a0:	429f      	cmp	r7, r3
 80046a2:	bf8a      	itet	hi
 80046a4:	1bbb      	subhi	r3, r7, r6
 80046a6:	2300      	movls	r3, #0
 80046a8:	4637      	movhi	r7, r6
 80046aa:	7862      	ldrb	r2, [r4, #1]
 80046ac:	4431      	add	r1, r6
 80046ae:	6223      	str	r3, [r4, #32]
 80046b0:	6161      	str	r1, [r4, #20]
 80046b2:	b2bb      	uxth	r3, r7
 80046b4:	bb82      	cbnz	r2, 8004718 <USB_EPStartXfer+0x13c>
 80046b6:	f8b5 0050 	ldrh.w	r0, [r5, #80]	; 0x50
 80046ba:	7826      	ldrb	r6, [r4, #0]
 80046bc:	b282      	uxth	r2, r0
 80046be:	f205 4004 	addw	r0, r5, #1028	; 0x404
 80046c2:	0136      	lsls	r6, r6, #4
 80046c4:	4410      	add	r0, r2
 80046c6:	5a32      	ldrh	r2, [r6, r0]
 80046c8:	2f3e      	cmp	r7, #62	; 0x3e
 80046ca:	f3c2 0209 	ubfx	r2, r2, #0, #10
 80046ce:	5232      	strh	r2, [r6, r0]
 80046d0:	d914      	bls.n	80046fc <USB_EPStartXfer+0x120>
 80046d2:	06fa      	lsls	r2, r7, #27
 80046d4:	5a32      	ldrh	r2, [r6, r0]
 80046d6:	ea4f 1c57 	mov.w	ip, r7, lsr #5
 80046da:	bf08      	it	eq
 80046dc:	f10c 3cff 	addeq.w	ip, ip, #4294967295
 80046e0:	b292      	uxth	r2, r2
 80046e2:	ea42 228c 	orr.w	r2, r2, ip, lsl #10
 80046e6:	ea6f 4242 	mvn.w	r2, r2, lsl #17
 80046ea:	ea6f 4252 	mvn.w	r2, r2, lsr #17
 80046ee:	b292      	uxth	r2, r2
 80046f0:	5232      	strh	r2, [r6, r0]
 80046f2:	8922      	ldrh	r2, [r4, #8]
 80046f4:	4628      	mov	r0, r5
 80046f6:	f7ff ff61 	bl	80045bc <USB_WritePMA>
 80046fa:	e78e      	b.n	800461a <USB_EPStartXfer+0x3e>
 80046fc:	b90f      	cbnz	r7, 8004702 <USB_EPStartXfer+0x126>
 80046fe:	5a32      	ldrh	r2, [r6, r0]
 8004700:	e7f1      	b.n	80046e6 <USB_EPStartXfer+0x10a>
 8004702:	5a32      	ldrh	r2, [r6, r0]
 8004704:	ea4f 0c57 	mov.w	ip, r7, lsr #1
 8004708:	07ff      	lsls	r7, r7, #31
 800470a:	bf48      	it	mi
 800470c:	f10c 0c01 	addmi.w	ip, ip, #1
 8004710:	b292      	uxth	r2, r2
 8004712:	ea42 228c 	orr.w	r2, r2, ip, lsl #10
 8004716:	e7ea      	b.n	80046ee <USB_EPStartXfer+0x112>
 8004718:	2a01      	cmp	r2, #1
 800471a:	d1ea      	bne.n	80046f2 <USB_EPStartXfer+0x116>
 800471c:	f8b5 2050 	ldrh.w	r2, [r5, #80]	; 0x50
 8004720:	7820      	ldrb	r0, [r4, #0]
 8004722:	b296      	uxth	r6, r2
 8004724:	f205 4204 	addw	r2, r5, #1028	; 0x404
 8004728:	0100      	lsls	r0, r0, #4
 800472a:	4432      	add	r2, r6
 800472c:	5283      	strh	r3, [r0, r2]
 800472e:	e7e0      	b.n	80046f2 <USB_EPStartXfer+0x116>
 8004730:	f200 4204 	addw	r2, r0, #1028	; 0x404
 8004734:	443a      	add	r2, r7
 8004736:	f822 300c 	strh.w	r3, [r2, ip]
 800473a:	8922      	ldrh	r2, [r4, #8]
 800473c:	f7ff ff3e 	bl	80045bc <USB_WritePMA>
 8004740:	6a27      	ldr	r7, [r4, #32]
 8004742:	6923      	ldr	r3, [r4, #16]
 8004744:	6961      	ldr	r1, [r4, #20]
 8004746:	429f      	cmp	r7, r3
 8004748:	bf8a      	itet	hi
 800474a:	1bbb      	subhi	r3, r7, r6
 800474c:	4643      	movls	r3, r8
 800474e:	4637      	movhi	r7, r6
 8004750:	7862      	ldrb	r2, [r4, #1]
 8004752:	4431      	add	r1, r6
 8004754:	6223      	str	r3, [r4, #32]
 8004756:	6161      	str	r1, [r4, #20]
 8004758:	b2bb      	uxth	r3, r7
 800475a:	bb6a      	cbnz	r2, 80047b8 <USB_EPStartXfer+0x1dc>
 800475c:	f8b5 0050 	ldrh.w	r0, [r5, #80]	; 0x50
 8004760:	7826      	ldrb	r6, [r4, #0]
 8004762:	b282      	uxth	r2, r0
 8004764:	f205 400c 	addw	r0, r5, #1036	; 0x40c
 8004768:	0136      	lsls	r6, r6, #4
 800476a:	4410      	add	r0, r2
 800476c:	5a32      	ldrh	r2, [r6, r0]
 800476e:	2f3e      	cmp	r7, #62	; 0x3e
 8004770:	f3c2 0209 	ubfx	r2, r2, #0, #10
 8004774:	5232      	strh	r2, [r6, r0]
 8004776:	d911      	bls.n	800479c <USB_EPStartXfer+0x1c0>
 8004778:	06fa      	lsls	r2, r7, #27
 800477a:	5a32      	ldrh	r2, [r6, r0]
 800477c:	ea4f 1c57 	mov.w	ip, r7, lsr #5
 8004780:	bf08      	it	eq
 8004782:	f10c 3cff 	addeq.w	ip, ip, #4294967295
 8004786:	b292      	uxth	r2, r2
 8004788:	ea42 228c 	orr.w	r2, r2, ip, lsl #10
 800478c:	ea6f 4242 	mvn.w	r2, r2, lsl #17
 8004790:	ea6f 4252 	mvn.w	r2, r2, lsr #17
 8004794:	b292      	uxth	r2, r2
 8004796:	5232      	strh	r2, [r6, r0]
 8004798:	8962      	ldrh	r2, [r4, #10]
 800479a:	e7ab      	b.n	80046f4 <USB_EPStartXfer+0x118>
 800479c:	b90f      	cbnz	r7, 80047a2 <USB_EPStartXfer+0x1c6>
 800479e:	5a32      	ldrh	r2, [r6, r0]
 80047a0:	e7f4      	b.n	800478c <USB_EPStartXfer+0x1b0>
 80047a2:	5a32      	ldrh	r2, [r6, r0]
 80047a4:	ea4f 0c57 	mov.w	ip, r7, lsr #1
 80047a8:	07ff      	lsls	r7, r7, #31
 80047aa:	bf48      	it	mi
 80047ac:	f10c 0c01 	addmi.w	ip, ip, #1
 80047b0:	b292      	uxth	r2, r2
 80047b2:	ea42 228c 	orr.w	r2, r2, ip, lsl #10
 80047b6:	e7ed      	b.n	8004794 <USB_EPStartXfer+0x1b8>
 80047b8:	2a01      	cmp	r2, #1
 80047ba:	d1ed      	bne.n	8004798 <USB_EPStartXfer+0x1bc>
 80047bc:	f8b5 2050 	ldrh.w	r2, [r5, #80]	; 0x50
 80047c0:	7820      	ldrb	r0, [r4, #0]
 80047c2:	b296      	uxth	r6, r2
 80047c4:	f205 420c 	addw	r2, r5, #1036	; 0x40c
 80047c8:	0100      	lsls	r0, r0, #4
 80047ca:	4432      	add	r2, r6
 80047cc:	5283      	strh	r3, [r0, r2]
 80047ce:	e7e3      	b.n	8004798 <USB_EPStartXfer+0x1bc>
 80047d0:	f422 42e2 	bic.w	r2, r2, #28928	; 0x7100
 80047d4:	f022 0270 	bic.w	r2, r2, #112	; 0x70
 80047d8:	0412      	lsls	r2, r2, #16
 80047da:	0c12      	lsrs	r2, r2, #16
 80047dc:	f442 4200 	orr.w	r2, r2, #32768	; 0x8000
 80047e0:	f042 0280 	orr.w	r2, r2, #128	; 0x80
 80047e4:	f820 2027 	strh.w	r2, [r0, r7, lsl #2]
 80047e8:	f8b0 2050 	ldrh.w	r2, [r0, #80]	; 0x50
 80047ec:	b29b      	uxth	r3, r3
 80047ee:	b296      	uxth	r6, r2
 80047f0:	f200 4204 	addw	r2, r0, #1028	; 0x404
 80047f4:	4432      	add	r2, r6
 80047f6:	f822 300c 	strh.w	r3, [r2, ip]
 80047fa:	8922      	ldrh	r2, [r4, #8]
 80047fc:	e77b      	b.n	80046f6 <USB_EPStartXfer+0x11a>
 80047fe:	f830 2027 	ldrh.w	r2, [r0, r7, lsl #2]
 8004802:	1b9b      	subs	r3, r3, r6
 8004804:	f012 0f40 	tst.w	r2, #64	; 0x40
 8004808:	f8b0 2050 	ldrh.w	r2, [r0, #80]	; 0x50
 800480c:	6223      	str	r3, [r4, #32]
 800480e:	b2b3      	uxth	r3, r6
 8004810:	b296      	uxth	r6, r2
 8004812:	d006      	beq.n	8004822 <USB_EPStartXfer+0x246>
 8004814:	f200 420c 	addw	r2, r0, #1036	; 0x40c
 8004818:	4432      	add	r2, r6
 800481a:	f822 300c 	strh.w	r3, [r2, ip]
 800481e:	8962      	ldrh	r2, [r4, #10]
 8004820:	e769      	b.n	80046f6 <USB_EPStartXfer+0x11a>
 8004822:	f200 4204 	addw	r2, r0, #1028	; 0x404
 8004826:	4432      	add	r2, r6
 8004828:	e7e5      	b.n	80047f6 <USB_EPStartXfer+0x21a>
 800482a:	2a00      	cmp	r2, #0
 800482c:	d131      	bne.n	8004892 <USB_EPStartXfer+0x2b6>
 800482e:	69a0      	ldr	r0, [r4, #24]
 8004830:	6923      	ldr	r3, [r4, #16]
 8004832:	7821      	ldrb	r1, [r4, #0]
 8004834:	4298      	cmp	r0, r3
 8004836:	bf84      	itt	hi
 8004838:	1ac2      	subhi	r2, r0, r3
 800483a:	4618      	movhi	r0, r3
 800483c:	61a2      	str	r2, [r4, #24]
 800483e:	f8b5 2050 	ldrh.w	r2, [r5, #80]	; 0x50
 8004842:	0109      	lsls	r1, r1, #4
 8004844:	b293      	uxth	r3, r2
 8004846:	f205 420c 	addw	r2, r5, #1036	; 0x40c
 800484a:	441a      	add	r2, r3
 800484c:	5a8b      	ldrh	r3, [r1, r2]
 800484e:	283e      	cmp	r0, #62	; 0x3e
 8004850:	f3c3 0309 	ubfx	r3, r3, #0, #10
 8004854:	528b      	strh	r3, [r1, r2]
 8004856:	d90d      	bls.n	8004874 <USB_EPStartXfer+0x298>
 8004858:	5a8b      	ldrh	r3, [r1, r2]
 800485a:	0946      	lsrs	r6, r0, #5
 800485c:	06c0      	lsls	r0, r0, #27
 800485e:	bf08      	it	eq
 8004860:	f106 36ff 	addeq.w	r6, r6, #4294967295
 8004864:	b29b      	uxth	r3, r3
 8004866:	ea43 2386 	orr.w	r3, r3, r6, lsl #10
 800486a:	ea6f 4343 	mvn.w	r3, r3, lsl #17
 800486e:	ea6f 4353 	mvn.w	r3, r3, lsr #17
 8004872:	e00b      	b.n	800488c <USB_EPStartXfer+0x2b0>
 8004874:	b908      	cbnz	r0, 800487a <USB_EPStartXfer+0x29e>
 8004876:	5a53      	ldrh	r3, [r2, r1]
 8004878:	e7f7      	b.n	800486a <USB_EPStartXfer+0x28e>
 800487a:	07c3      	lsls	r3, r0, #31
 800487c:	5a8b      	ldrh	r3, [r1, r2]
 800487e:	ea4f 0650 	mov.w	r6, r0, lsr #1
 8004882:	bf48      	it	mi
 8004884:	3601      	addmi	r6, #1
 8004886:	b29b      	uxth	r3, r3
 8004888:	ea43 2386 	orr.w	r3, r3, r6, lsl #10
 800488c:	b29b      	uxth	r3, r3
 800488e:	5253      	strh	r3, [r2, r1]
 8004890:	e06a      	b.n	8004968 <USB_EPStartXfer+0x38c>
 8004892:	78e3      	ldrb	r3, [r4, #3]
 8004894:	2b02      	cmp	r3, #2
 8004896:	d17c      	bne.n	8004992 <USB_EPStartXfer+0x3b6>
 8004898:	2900      	cmp	r1, #0
 800489a:	d14b      	bne.n	8004934 <USB_EPStartXfer+0x358>
 800489c:	f8b0 1050 	ldrh.w	r1, [r0, #80]	; 0x50
 80048a0:	7820      	ldrb	r0, [r4, #0]
 80048a2:	b28b      	uxth	r3, r1
 80048a4:	f205 4104 	addw	r1, r5, #1028	; 0x404
 80048a8:	0100      	lsls	r0, r0, #4
 80048aa:	4419      	add	r1, r3
 80048ac:	5a43      	ldrh	r3, [r0, r1]
 80048ae:	f3c3 0309 	ubfx	r3, r3, #0, #10
 80048b2:	5243      	strh	r3, [r0, r1]
 80048b4:	6923      	ldr	r3, [r4, #16]
 80048b6:	2b3e      	cmp	r3, #62	; 0x3e
 80048b8:	d920      	bls.n	80048fc <USB_EPStartXfer+0x320>
 80048ba:	5a42      	ldrh	r2, [r0, r1]
 80048bc:	095e      	lsrs	r6, r3, #5
 80048be:	06df      	lsls	r7, r3, #27
 80048c0:	bf08      	it	eq
 80048c2:	f106 36ff 	addeq.w	r6, r6, #4294967295
 80048c6:	b292      	uxth	r2, r2
 80048c8:	ea42 2286 	orr.w	r2, r2, r6, lsl #10
 80048cc:	ea6f 4242 	mvn.w	r2, r2, lsl #17
 80048d0:	ea6f 4252 	mvn.w	r2, r2, lsr #17
 80048d4:	b292      	uxth	r2, r2
 80048d6:	5242      	strh	r2, [r0, r1]
 80048d8:	f8b5 1050 	ldrh.w	r1, [r5, #80]	; 0x50
 80048dc:	7822      	ldrb	r2, [r4, #0]
 80048de:	f205 400c 	addw	r0, r5, #1036	; 0x40c
 80048e2:	b289      	uxth	r1, r1
 80048e4:	0112      	lsls	r2, r2, #4
 80048e6:	4401      	add	r1, r0
 80048e8:	5a50      	ldrh	r0, [r2, r1]
 80048ea:	2b3e      	cmp	r3, #62	; 0x3e
 80048ec:	f3c0 0009 	ubfx	r0, r0, #0, #10
 80048f0:	5250      	strh	r0, [r2, r1]
 80048f2:	d810      	bhi.n	8004916 <USB_EPStartXfer+0x33a>
 80048f4:	2b00      	cmp	r3, #0
 80048f6:	d143      	bne.n	8004980 <USB_EPStartXfer+0x3a4>
 80048f8:	5a53      	ldrh	r3, [r2, r1]
 80048fa:	e015      	b.n	8004928 <USB_EPStartXfer+0x34c>
 80048fc:	b90b      	cbnz	r3, 8004902 <USB_EPStartXfer+0x326>
 80048fe:	5a42      	ldrh	r2, [r0, r1]
 8004900:	e7e4      	b.n	80048cc <USB_EPStartXfer+0x2f0>
 8004902:	07da      	lsls	r2, r3, #31
 8004904:	5a42      	ldrh	r2, [r0, r1]
 8004906:	ea4f 0653 	mov.w	r6, r3, lsr #1
 800490a:	bf48      	it	mi
 800490c:	3601      	addmi	r6, #1
 800490e:	b292      	uxth	r2, r2
 8004910:	ea42 2286 	orr.w	r2, r2, r6, lsl #10
 8004914:	e7de      	b.n	80048d4 <USB_EPStartXfer+0x2f8>
 8004916:	0958      	lsrs	r0, r3, #5
 8004918:	06df      	lsls	r7, r3, #27
 800491a:	5a53      	ldrh	r3, [r2, r1]
 800491c:	bf08      	it	eq
 800491e:	f100 30ff 	addeq.w	r0, r0, #4294967295
 8004922:	b29b      	uxth	r3, r3
 8004924:	ea43 2380 	orr.w	r3, r3, r0, lsl #10
 8004928:	ea6f 4343 	mvn.w	r3, r3, lsl #17
 800492c:	ea6f 4353 	mvn.w	r3, r3, lsr #17
 8004930:	b29b      	uxth	r3, r3
 8004932:	5253      	strh	r3, [r2, r1]
 8004934:	69e3      	ldr	r3, [r4, #28]
 8004936:	b1bb      	cbz	r3, 8004968 <USB_EPStartXfer+0x38c>
 8004938:	f244 0340 	movw	r3, #16448	; 0x4040
 800493c:	7822      	ldrb	r2, [r4, #0]
 800493e:	f835 1022 	ldrh.w	r1, [r5, r2, lsl #2]
 8004942:	ea03 0001 	and.w	r0, r3, r1
 8004946:	438b      	bics	r3, r1
 8004948:	d000      	beq.n	800494c <USB_EPStartXfer+0x370>
 800494a:	b968      	cbnz	r0, 8004968 <USB_EPStartXfer+0x38c>
 800494c:	f835 3022 	ldrh.w	r3, [r5, r2, lsl #2]
 8004950:	f423 43e0 	bic.w	r3, r3, #28672	; 0x7000
 8004954:	f023 0370 	bic.w	r3, r3, #112	; 0x70
 8004958:	041b      	lsls	r3, r3, #16
 800495a:	0c1b      	lsrs	r3, r3, #16
 800495c:	f443 4300 	orr.w	r3, r3, #32768	; 0x8000
 8004960:	f043 03c0 	orr.w	r3, r3, #192	; 0xc0
 8004964:	f825 3022 	strh.w	r3, [r5, r2, lsl #2]
 8004968:	7822      	ldrb	r2, [r4, #0]
 800496a:	f835 3022 	ldrh.w	r3, [r5, r2, lsl #2]
 800496e:	f423 4380 	bic.w	r3, r3, #16384	; 0x4000
 8004972:	f023 0370 	bic.w	r3, r3, #112	; 0x70
 8004976:	041b      	lsls	r3, r3, #16
 8004978:	0c1b      	lsrs	r3, r3, #16
 800497a:	f483 5340 	eor.w	r3, r3, #12288	; 0x3000
 800497e:	e657      	b.n	8004630 <USB_EPStartXfer+0x54>
 8004980:	0858      	lsrs	r0, r3, #1
 8004982:	07de      	lsls	r6, r3, #31
 8004984:	5a53      	ldrh	r3, [r2, r1]
 8004986:	bf48      	it	mi
 8004988:	3001      	addmi	r0, #1
 800498a:	b29b      	uxth	r3, r3
 800498c:	ea43 2380 	orr.w	r3, r3, r0, lsl #10
 8004990:	e7ce      	b.n	8004930 <USB_EPStartXfer+0x354>
 8004992:	2b01      	cmp	r3, #1
 8004994:	d158      	bne.n	8004a48 <USB_EPStartXfer+0x46c>
 8004996:	69a3      	ldr	r3, [r4, #24]
 8004998:	6922      	ldr	r2, [r4, #16]
 800499a:	4293      	cmp	r3, r2
 800499c:	bf94      	ite	ls
 800499e:	2000      	movls	r0, #0
 80049a0:	1a98      	subhi	r0, r3, r2
 80049a2:	61a0      	str	r0, [r4, #24]
 80049a4:	bf88      	it	hi
 80049a6:	4613      	movhi	r3, r2
 80049a8:	2900      	cmp	r1, #0
 80049aa:	d1dd      	bne.n	8004968 <USB_EPStartXfer+0x38c>
 80049ac:	f8b5 1050 	ldrh.w	r1, [r5, #80]	; 0x50
 80049b0:	7820      	ldrb	r0, [r4, #0]
 80049b2:	b28a      	uxth	r2, r1
 80049b4:	f205 4104 	addw	r1, r5, #1028	; 0x404
 80049b8:	0100      	lsls	r0, r0, #4
 80049ba:	4411      	add	r1, r2
 80049bc:	5a42      	ldrh	r2, [r0, r1]
 80049be:	2b3e      	cmp	r3, #62	; 0x3e
 80049c0:	f3c2 0209 	ubfx	r2, r2, #0, #10
 80049c4:	5242      	strh	r2, [r0, r1]
 80049c6:	d929      	bls.n	8004a1c <USB_EPStartXfer+0x440>
 80049c8:	06da      	lsls	r2, r3, #27
 80049ca:	5a42      	ldrh	r2, [r0, r1]
 80049cc:	ea4f 1653 	mov.w	r6, r3, lsr #5
 80049d0:	bf08      	it	eq
 80049d2:	f106 36ff 	addeq.w	r6, r6, #4294967295
 80049d6:	b292      	uxth	r2, r2
 80049d8:	ea42 2286 	orr.w	r2, r2, r6, lsl #10
 80049dc:	ea6f 4242 	mvn.w	r2, r2, lsl #17
 80049e0:	ea6f 4252 	mvn.w	r2, r2, lsr #17
 80049e4:	b292      	uxth	r2, r2
 80049e6:	5242      	strh	r2, [r0, r1]
 80049e8:	f8b5 1050 	ldrh.w	r1, [r5, #80]	; 0x50
 80049ec:	7822      	ldrb	r2, [r4, #0]
 80049ee:	f205 400c 	addw	r0, r5, #1036	; 0x40c
 80049f2:	b289      	uxth	r1, r1
 80049f4:	0112      	lsls	r2, r2, #4
 80049f6:	4401      	add	r1, r0
 80049f8:	5a50      	ldrh	r0, [r2, r1]
 80049fa:	2b3e      	cmp	r3, #62	; 0x3e
 80049fc:	f3c0 0009 	ubfx	r0, r0, #0, #10
 8004a00:	5250      	strh	r0, [r2, r1]
 8004a02:	d817      	bhi.n	8004a34 <USB_EPStartXfer+0x458>
 8004a04:	2b00      	cmp	r3, #0
 8004a06:	f43f af36 	beq.w	8004876 <USB_EPStartXfer+0x29a>
 8004a0a:	0858      	lsrs	r0, r3, #1
 8004a0c:	07db      	lsls	r3, r3, #31
 8004a0e:	5a53      	ldrh	r3, [r2, r1]
 8004a10:	bf48      	it	mi
 8004a12:	3001      	addmi	r0, #1
 8004a14:	b29b      	uxth	r3, r3
 8004a16:	ea43 2380 	orr.w	r3, r3, r0, lsl #10
 8004a1a:	e737      	b.n	800488c <USB_EPStartXfer+0x2b0>
 8004a1c:	b90b      	cbnz	r3, 8004a22 <USB_EPStartXfer+0x446>
 8004a1e:	5a42      	ldrh	r2, [r0, r1]
 8004a20:	e7dc      	b.n	80049dc <USB_EPStartXfer+0x400>
 8004a22:	5a42      	ldrh	r2, [r0, r1]
 8004a24:	085e      	lsrs	r6, r3, #1
 8004a26:	07df      	lsls	r7, r3, #31
 8004a28:	bf48      	it	mi
 8004a2a:	3601      	addmi	r6, #1
 8004a2c:	b292      	uxth	r2, r2
 8004a2e:	ea42 2286 	orr.w	r2, r2, r6, lsl #10
 8004a32:	e7d7      	b.n	80049e4 <USB_EPStartXfer+0x408>
 8004a34:	0958      	lsrs	r0, r3, #5
 8004a36:	06de      	lsls	r6, r3, #27
 8004a38:	5a53      	ldrh	r3, [r2, r1]
 8004a3a:	bf08      	it	eq
 8004a3c:	f100 30ff 	addeq.w	r0, r0, #4294967295
 8004a40:	b29b      	uxth	r3, r3
 8004a42:	ea43 2380 	orr.w	r3, r3, r0, lsl #10
 8004a46:	e710      	b.n	800486a <USB_EPStartXfer+0x28e>
 8004a48:	2001      	movs	r0, #1
 8004a4a:	e5f8      	b.n	800463e <USB_EPStartXfer+0x62>

08004a4c <USB_ReadPMA>:
 8004a4c:	eb00 0242 	add.w	r2, r0, r2, lsl #1
 8004a50:	b5f0      	push	{r4, r5, r6, r7, lr}
 8004a52:	f502 6280 	add.w	r2, r2, #1024	; 0x400
 8004a56:	085d      	lsrs	r5, r3, #1
 8004a58:	460c      	mov	r4, r1
 8004a5a:	4617      	mov	r7, r2
 8004a5c:	462e      	mov	r6, r5
 8004a5e:	3402      	adds	r4, #2
 8004a60:	b936      	cbnz	r6, 8004a70 <USB_ReadPMA+0x24>
 8004a62:	07db      	lsls	r3, r3, #31
 8004a64:	bf44      	itt	mi
 8004a66:	f832 3025 	ldrhmi.w	r3, [r2, r5, lsl #2]
 8004a6a:	f801 3015 	strbmi.w	r3, [r1, r5, lsl #1]
 8004a6e:	bdf0      	pop	{r4, r5, r6, r7, pc}
 8004a70:	f837 0b04 	ldrh.w	r0, [r7], #4
 8004a74:	3e01      	subs	r6, #1
 8004a76:	b280      	uxth	r0, r0
 8004a78:	f804 0c02 	strb.w	r0, [r4, #-2]
 8004a7c:	0a00      	lsrs	r0, r0, #8
 8004a7e:	f804 0c01 	strb.w	r0, [r4, #-1]
 8004a82:	e7ec      	b.n	8004a5e <USB_ReadPMA+0x12>

08004a84 <USBD_CDC_EP0_RxReady>:
 8004a84:	f8d0 32bc 	ldr.w	r3, [r0, #700]	; 0x2bc
 8004a88:	b510      	push	{r4, lr}
 8004a8a:	b16b      	cbz	r3, 8004aa8 <USBD_CDC_EP0_RxReady+0x24>
 8004a8c:	f8d0 42b8 	ldr.w	r4, [r0, #696]	; 0x2b8
 8004a90:	f894 0200 	ldrb.w	r0, [r4, #512]	; 0x200
 8004a94:	28ff      	cmp	r0, #255	; 0xff
 8004a96:	d007      	beq.n	8004aa8 <USBD_CDC_EP0_RxReady+0x24>
 8004a98:	689b      	ldr	r3, [r3, #8]
 8004a9a:	4621      	mov	r1, r4
 8004a9c:	f894 2201 	ldrb.w	r2, [r4, #513]	; 0x201
 8004aa0:	4798      	blx	r3
 8004aa2:	23ff      	movs	r3, #255	; 0xff
 8004aa4:	f884 3200 	strb.w	r3, [r4, #512]	; 0x200
 8004aa8:	2000      	movs	r0, #0
 8004aaa:	bd10      	pop	{r4, pc}

08004aac <USBD_CDC_GetFSCfgDesc>:
 8004aac:	2343      	movs	r3, #67	; 0x43
 8004aae:	8003      	strh	r3, [r0, #0]
 8004ab0:	4800      	ldr	r0, [pc, #0]	; (8004ab4 <USBD_CDC_GetFSCfgDesc+0x8>)
 8004ab2:	4770      	bx	lr
 8004ab4:	2000004c 	.word	0x2000004c

08004ab8 <USBD_CDC_GetHSCfgDesc>:
 8004ab8:	2343      	movs	r3, #67	; 0x43
 8004aba:	8003      	strh	r3, [r0, #0]
 8004abc:	4800      	ldr	r0, [pc, #0]	; (8004ac0 <USBD_CDC_GetHSCfgDesc+0x8>)
 8004abe:	4770      	bx	lr
 8004ac0:	20000090 	.word	0x20000090

08004ac4 <USBD_CDC_GetOtherSpeedCfgDesc>:
 8004ac4:	2343      	movs	r3, #67	; 0x43
 8004ac6:	8003      	strh	r3, [r0, #0]
 8004ac8:	4800      	ldr	r0, [pc, #0]	; (8004acc <USBD_CDC_GetOtherSpeedCfgDesc+0x8>)
 8004aca:	4770      	bx	lr
 8004acc:	200000e0 	.word	0x200000e0

08004ad0 <USBD_CDC_GetDeviceQualifierDescriptor>:
 8004ad0:	230a      	movs	r3, #10
 8004ad2:	8003      	strh	r3, [r0, #0]
 8004ad4:	4800      	ldr	r0, [pc, #0]	; (8004ad8 <USBD_CDC_GetDeviceQualifierDescriptor+0x8>)
 8004ad6:	4770      	bx	lr
 8004ad8:	200000d4 	.word	0x200000d4

08004adc <USBD_CDC_DataOut>:
 8004adc:	b538      	push	{r3, r4, r5, lr}
 8004ade:	4604      	mov	r4, r0
 8004ae0:	f8d0 52b8 	ldr.w	r5, [r0, #696]	; 0x2b8
 8004ae4:	f000 fef3 	bl	80058ce <USBD_LL_GetRxDataSize>
 8004ae8:	f8d4 32b8 	ldr.w	r3, [r4, #696]	; 0x2b8
 8004aec:	f8c5 020c 	str.w	r0, [r5, #524]	; 0x20c
 8004af0:	b14b      	cbz	r3, 8004b06 <USBD_CDC_DataOut+0x2a>
 8004af2:	f8d4 32bc 	ldr.w	r3, [r4, #700]	; 0x2bc
 8004af6:	f8d5 0204 	ldr.w	r0, [r5, #516]	; 0x204
 8004afa:	68db      	ldr	r3, [r3, #12]
 8004afc:	f505 7103 	add.w	r1, r5, #524	; 0x20c
 8004b00:	4798      	blx	r3
 8004b02:	2000      	movs	r0, #0
 8004b04:	bd38      	pop	{r3, r4, r5, pc}
 8004b06:	2002      	movs	r0, #2
 8004b08:	e7fc      	b.n	8004b04 <USBD_CDC_DataOut+0x28>

08004b0a <USBD_CDC_DataIn>:
 8004b0a:	b5f8      	push	{r3, r4, r5, r6, r7, lr}
 8004b0c:	f8d0 62b8 	ldr.w	r6, [r0, #696]	; 0x2b8
 8004b10:	b1d6      	cbz	r6, 8004b48 <USBD_CDC_DataIn+0x3e>
 8004b12:	2214      	movs	r2, #20
 8004b14:	fb02 0201 	mla	r2, r2, r1, r0
 8004b18:	69d4      	ldr	r4, [r2, #28]
 8004b1a:	b18c      	cbz	r4, 8004b40 <USBD_CDC_DataIn+0x36>
 8004b1c:	2728      	movs	r7, #40	; 0x28
 8004b1e:	f8d0 32c0 	ldr.w	r3, [r0, #704]	; 0x2c0
 8004b22:	fb07 3501 	mla	r5, r7, r1, r3
 8004b26:	6bab      	ldr	r3, [r5, #56]	; 0x38
 8004b28:	fbb4 f5f3 	udiv	r5, r4, r3
 8004b2c:	fb03 4415 	mls	r4, r3, r5, r4
 8004b30:	b934      	cbnz	r4, 8004b40 <USBD_CDC_DataIn+0x36>
 8004b32:	61d4      	str	r4, [r2, #28]
 8004b34:	4623      	mov	r3, r4
 8004b36:	4622      	mov	r2, r4
 8004b38:	f000 feb7 	bl	80058aa <USBD_LL_Transmit>
 8004b3c:	4620      	mov	r0, r4
 8004b3e:	bdf8      	pop	{r3, r4, r5, r6, r7, pc}
 8004b40:	2000      	movs	r0, #0
 8004b42:	f8c6 0214 	str.w	r0, [r6, #532]	; 0x214
 8004b46:	e7fa      	b.n	8004b3e <USBD_CDC_DataIn+0x34>
 8004b48:	2002      	movs	r0, #2
 8004b4a:	e7f8      	b.n	8004b3e <USBD_CDC_DataIn+0x34>

08004b4c <USBD_CDC_Setup>:
 8004b4c:	e92d 43f7 	stmdb	sp!, {r0, r1, r2, r4, r5, r6, r7, r8, r9, lr}
 8004b50:	f04f 0800 	mov.w	r8, #0
 8004b54:	780a      	ldrb	r2, [r1, #0]
 8004b56:	4605      	mov	r5, r0
 8004b58:	f012 0460 	ands.w	r4, r2, #96	; 0x60
 8004b5c:	460e      	mov	r6, r1
 8004b5e:	f8d0 72b8 	ldr.w	r7, [r0, #696]	; 0x2b8
 8004b62:	f88d 8005 	strb.w	r8, [sp, #5]
 8004b66:	f8ad 8006 	strh.w	r8, [sp, #6]
 8004b6a:	d028      	beq.n	8004bbe <USBD_CDC_Setup+0x72>
 8004b6c:	2c20      	cmp	r4, #32
 8004b6e:	d142      	bne.n	8004bf6 <USBD_CDC_Setup+0xaa>
 8004b70:	88cc      	ldrh	r4, [r1, #6]
 8004b72:	784b      	ldrb	r3, [r1, #1]
 8004b74:	b1e4      	cbz	r4, 8004bb0 <USBD_CDC_Setup+0x64>
 8004b76:	0612      	lsls	r2, r2, #24
 8004b78:	d511      	bpl.n	8004b9e <USBD_CDC_Setup+0x52>
 8004b7a:	f8d0 22bc 	ldr.w	r2, [r0, #700]	; 0x2bc
 8004b7e:	4639      	mov	r1, r7
 8004b80:	f8d2 9008 	ldr.w	r9, [r2, #8]
 8004b84:	4618      	mov	r0, r3
 8004b86:	4622      	mov	r2, r4
 8004b88:	47c8      	blx	r9
 8004b8a:	4639      	mov	r1, r7
 8004b8c:	4628      	mov	r0, r5
 8004b8e:	88f2      	ldrh	r2, [r6, #6]
 8004b90:	f000 fc4b 	bl	800542a <USBD_CtlSendData>
 8004b94:	4644      	mov	r4, r8
 8004b96:	4620      	mov	r0, r4
 8004b98:	b003      	add	sp, #12
 8004b9a:	e8bd 83f0 	ldmia.w	sp!, {r4, r5, r6, r7, r8, r9, pc}
 8004b9e:	4622      	mov	r2, r4
 8004ba0:	4639      	mov	r1, r7
 8004ba2:	f887 3200 	strb.w	r3, [r7, #512]	; 0x200
 8004ba6:	f887 4201 	strb.w	r4, [r7, #513]	; 0x201
 8004baa:	f000 fc53 	bl	8005454 <USBD_CtlPrepareRx>
 8004bae:	e7f1      	b.n	8004b94 <USBD_CDC_Setup+0x48>
 8004bb0:	f8d0 22bc 	ldr.w	r2, [r0, #700]	; 0x2bc
 8004bb4:	4618      	mov	r0, r3
 8004bb6:	6895      	ldr	r5, [r2, #8]
 8004bb8:	4622      	mov	r2, r4
 8004bba:	47a8      	blx	r5
 8004bbc:	e7eb      	b.n	8004b96 <USBD_CDC_Setup+0x4a>
 8004bbe:	784b      	ldrb	r3, [r1, #1]
 8004bc0:	2b0a      	cmp	r3, #10
 8004bc2:	d00c      	beq.n	8004bde <USBD_CDC_Setup+0x92>
 8004bc4:	2b0b      	cmp	r3, #11
 8004bc6:	d012      	beq.n	8004bee <USBD_CDC_Setup+0xa2>
 8004bc8:	b9ab      	cbnz	r3, 8004bf6 <USBD_CDC_Setup+0xaa>
 8004bca:	f890 329c 	ldrb.w	r3, [r0, #668]	; 0x29c
 8004bce:	2b03      	cmp	r3, #3
 8004bd0:	d111      	bne.n	8004bf6 <USBD_CDC_Setup+0xaa>
 8004bd2:	2202      	movs	r2, #2
 8004bd4:	f10d 0106 	add.w	r1, sp, #6
 8004bd8:	f000 fc27 	bl	800542a <USBD_CtlSendData>
 8004bdc:	e7db      	b.n	8004b96 <USBD_CDC_Setup+0x4a>
 8004bde:	f890 329c 	ldrb.w	r3, [r0, #668]	; 0x29c
 8004be2:	2b03      	cmp	r3, #3
 8004be4:	d107      	bne.n	8004bf6 <USBD_CDC_Setup+0xaa>
 8004be6:	2201      	movs	r2, #1
 8004be8:	f10d 0105 	add.w	r1, sp, #5
 8004bec:	e7f4      	b.n	8004bd8 <USBD_CDC_Setup+0x8c>
 8004bee:	f890 329c 	ldrb.w	r3, [r0, #668]	; 0x29c
 8004bf2:	2b03      	cmp	r3, #3
 8004bf4:	d0cf      	beq.n	8004b96 <USBD_CDC_Setup+0x4a>
 8004bf6:	4631      	mov	r1, r6
 8004bf8:	4628      	mov	r0, r5
 8004bfa:	f000 fbef 	bl	80053dc <USBD_CtlError>
 8004bfe:	2402      	movs	r4, #2
 8004c00:	e7c9      	b.n	8004b96 <USBD_CDC_Setup+0x4a>

08004c02 <USBD_CDC_DeInit>:
 8004c02:	b538      	push	{r3, r4, r5, lr}
 8004c04:	4604      	mov	r4, r0
 8004c06:	2500      	movs	r5, #0
 8004c08:	2181      	movs	r1, #129	; 0x81
 8004c0a:	f000 fe18 	bl	800583e <USBD_LL_CloseEP>
 8004c0e:	2101      	movs	r1, #1
 8004c10:	4620      	mov	r0, r4
 8004c12:	62e5      	str	r5, [r4, #44]	; 0x2c
 8004c14:	f000 fe13 	bl	800583e <USBD_LL_CloseEP>
 8004c18:	2182      	movs	r1, #130	; 0x82
 8004c1a:	4620      	mov	r0, r4
 8004c1c:	f8c4 516c 	str.w	r5, [r4, #364]	; 0x16c
 8004c20:	f000 fe0d 	bl	800583e <USBD_LL_CloseEP>
 8004c24:	f8d4 32b8 	ldr.w	r3, [r4, #696]	; 0x2b8
 8004c28:	6425      	str	r5, [r4, #64]	; 0x40
 8004c2a:	b14b      	cbz	r3, 8004c40 <USBD_CDC_DeInit+0x3e>
 8004c2c:	f8d4 32bc 	ldr.w	r3, [r4, #700]	; 0x2bc
 8004c30:	685b      	ldr	r3, [r3, #4]
 8004c32:	4798      	blx	r3
 8004c34:	f8d4 02b8 	ldr.w	r0, [r4, #696]	; 0x2b8
 8004c38:	f000 fe52 	bl	80058e0 <USBD_static_free>
 8004c3c:	f8c4 52b8 	str.w	r5, [r4, #696]	; 0x2b8
 8004c40:	2000      	movs	r0, #0
 8004c42:	bd38      	pop	{r3, r4, r5, pc}

08004c44 <USBD_CDC_Init>:
 8004c44:	e92d 41f0 	stmdb	sp!, {r4, r5, r6, r7, r8, lr}
 8004c48:	7c03      	ldrb	r3, [r0, #16]
 8004c4a:	4604      	mov	r4, r0
 8004c4c:	bbbb      	cbnz	r3, 8004cbe <USBD_CDC_Init+0x7a>
 8004c4e:	f44f 7300 	mov.w	r3, #512	; 0x200
 8004c52:	2202      	movs	r2, #2
 8004c54:	2181      	movs	r1, #129	; 0x81
 8004c56:	2501      	movs	r5, #1
 8004c58:	f000 fde5 	bl	8005826 <USBD_LL_OpenEP>
 8004c5c:	f44f 7300 	mov.w	r3, #512	; 0x200
 8004c60:	62e5      	str	r5, [r4, #44]	; 0x2c
 8004c62:	2701      	movs	r7, #1
 8004c64:	4629      	mov	r1, r5
 8004c66:	2202      	movs	r2, #2
 8004c68:	4620      	mov	r0, r4
 8004c6a:	f000 fddc 	bl	8005826 <USBD_LL_OpenEP>
 8004c6e:	2308      	movs	r3, #8
 8004c70:	2203      	movs	r2, #3
 8004c72:	2182      	movs	r1, #130	; 0x82
 8004c74:	f8c4 516c 	str.w	r5, [r4, #364]	; 0x16c
 8004c78:	4620      	mov	r0, r4
 8004c7a:	f000 fdd4 	bl	8005826 <USBD_LL_OpenEP>
 8004c7e:	f44f 7007 	mov.w	r0, #540	; 0x21c
 8004c82:	6427      	str	r7, [r4, #64]	; 0x40
 8004c84:	f000 fe28 	bl	80058d8 <USBD_static_malloc>
 8004c88:	4605      	mov	r5, r0
 8004c8a:	f8c4 02b8 	str.w	r0, [r4, #696]	; 0x2b8
 8004c8e:	b340      	cbz	r0, 8004ce2 <USBD_CDC_Init+0x9e>
 8004c90:	f04f 0800 	mov.w	r8, #0
 8004c94:	f8d4 32bc 	ldr.w	r3, [r4, #700]	; 0x2bc
 8004c98:	681b      	ldr	r3, [r3, #0]
 8004c9a:	4798      	blx	r3
 8004c9c:	f8c5 8214 	str.w	r8, [r5, #532]	; 0x214
 8004ca0:	f8c5 8218 	str.w	r8, [r5, #536]	; 0x218
 8004ca4:	7c26      	ldrb	r6, [r4, #16]
 8004ca6:	b99e      	cbnz	r6, 8004cd0 <USBD_CDC_Init+0x8c>
 8004ca8:	f44f 7300 	mov.w	r3, #512	; 0x200
 8004cac:	4639      	mov	r1, r7
 8004cae:	4620      	mov	r0, r4
 8004cb0:	f8d5 2204 	ldr.w	r2, [r5, #516]	; 0x204
 8004cb4:	f000 fe02 	bl	80058bc <USBD_LL_PrepareReceive>
 8004cb8:	4630      	mov	r0, r6
 8004cba:	e8bd 81f0 	ldmia.w	sp!, {r4, r5, r6, r7, r8, pc}
 8004cbe:	2501      	movs	r5, #1
 8004cc0:	2340      	movs	r3, #64	; 0x40
 8004cc2:	2202      	movs	r2, #2
 8004cc4:	2181      	movs	r1, #129	; 0x81
 8004cc6:	f000 fdae 	bl	8005826 <USBD_LL_OpenEP>
 8004cca:	2340      	movs	r3, #64	; 0x40
 8004ccc:	62e5      	str	r5, [r4, #44]	; 0x2c
 8004cce:	e7c8      	b.n	8004c62 <USBD_CDC_Init+0x1e>
 8004cd0:	2340      	movs	r3, #64	; 0x40
 8004cd2:	4639      	mov	r1, r7
 8004cd4:	4620      	mov	r0, r4
 8004cd6:	f8d5 2204 	ldr.w	r2, [r5, #516]	; 0x204
 8004cda:	f000 fdef 	bl	80058bc <USBD_LL_PrepareReceive>
 8004cde:	4646      	mov	r6, r8
 8004ce0:	e7ea      	b.n	8004cb8 <USBD_CDC_Init+0x74>
 8004ce2:	463e      	mov	r6, r7
 8004ce4:	e7e8      	b.n	8004cb8 <USBD_CDC_Init+0x74>

08004ce6 <USBD_CDC_RegisterInterface>:
 8004ce6:	b119      	cbz	r1, 8004cf0 <USBD_CDC_RegisterInterface+0xa>
 8004ce8:	f8c0 12bc 	str.w	r1, [r0, #700]	; 0x2bc
 8004cec:	2000      	movs	r0, #0
 8004cee:	4770      	bx	lr
 8004cf0:	2002      	movs	r0, #2
 8004cf2:	4770      	bx	lr

08004cf4 <USBD_CDC_SetTxBuffer>:
 8004cf4:	f8d0 32b8 	ldr.w	r3, [r0, #696]	; 0x2b8
 8004cf8:	2000      	movs	r0, #0
 8004cfa:	f8c3 1208 	str.w	r1, [r3, #520]	; 0x208
 8004cfe:	f8c3 2210 	str.w	r2, [r3, #528]	; 0x210
 8004d02:	4770      	bx	lr

08004d04 <USBD_CDC_SetRxBuffer>:
 8004d04:	f8d0 32b8 	ldr.w	r3, [r0, #696]	; 0x2b8
 8004d08:	2000      	movs	r0, #0
 8004d0a:	f8c3 1204 	str.w	r1, [r3, #516]	; 0x204
 8004d0e:	4770      	bx	lr

08004d10 <USBD_CDC_TransmitPacket>:
 8004d10:	f8d0 22b8 	ldr.w	r2, [r0, #696]	; 0x2b8
 8004d14:	b510      	push	{r4, lr}
 8004d16:	b182      	cbz	r2, 8004d3a <USBD_CDC_TransmitPacket+0x2a>
 8004d18:	f8d2 4214 	ldr.w	r4, [r2, #532]	; 0x214
 8004d1c:	2301      	movs	r3, #1
 8004d1e:	b974      	cbnz	r4, 8004d3e <USBD_CDC_TransmitPacket+0x2e>
 8004d20:	f8c2 3214 	str.w	r3, [r2, #532]	; 0x214
 8004d24:	f8d2 3210 	ldr.w	r3, [r2, #528]	; 0x210
 8004d28:	2181      	movs	r1, #129	; 0x81
 8004d2a:	6303      	str	r3, [r0, #48]	; 0x30
 8004d2c:	f8d2 2208 	ldr.w	r2, [r2, #520]	; 0x208
 8004d30:	b29b      	uxth	r3, r3
 8004d32:	f000 fdba 	bl	80058aa <USBD_LL_Transmit>
 8004d36:	4620      	mov	r0, r4
 8004d38:	bd10      	pop	{r4, pc}
 8004d3a:	2002      	movs	r0, #2
 8004d3c:	e7fc      	b.n	8004d38 <USBD_CDC_TransmitPacket+0x28>
 8004d3e:	4618      	mov	r0, r3
 8004d40:	e7fa      	b.n	8004d38 <USBD_CDC_TransmitPacket+0x28>

08004d42 <USBD_CDC_ReceivePacket>:
 8004d42:	f8d0 22b8 	ldr.w	r2, [r0, #696]	; 0x2b8
 8004d46:	b510      	push	{r4, lr}
 8004d48:	b182      	cbz	r2, 8004d6c <USBD_CDC_ReceivePacket+0x2a>
 8004d4a:	7c04      	ldrb	r4, [r0, #16]
 8004d4c:	f8d2 2204 	ldr.w	r2, [r2, #516]	; 0x204
 8004d50:	b934      	cbnz	r4, 8004d60 <USBD_CDC_ReceivePacket+0x1e>
 8004d52:	f44f 7300 	mov.w	r3, #512	; 0x200
 8004d56:	2101      	movs	r1, #1
 8004d58:	f000 fdb0 	bl	80058bc <USBD_LL_PrepareReceive>
 8004d5c:	4620      	mov	r0, r4
 8004d5e:	bd10      	pop	{r4, pc}
 8004d60:	2340      	movs	r3, #64	; 0x40
 8004d62:	2101      	movs	r1, #1
 8004d64:	f000 fdaa 	bl	80058bc <USBD_LL_PrepareReceive>
 8004d68:	2400      	movs	r4, #0
 8004d6a:	e7f7      	b.n	8004d5c <USBD_CDC_ReceivePacket+0x1a>
 8004d6c:	2402      	movs	r4, #2
 8004d6e:	e7f5      	b.n	8004d5c <USBD_CDC_ReceivePacket+0x1a>

08004d70 <USBD_Init>:
 8004d70:	b508      	push	{r3, lr}
 8004d72:	b180      	cbz	r0, 8004d96 <USBD_Init+0x26>
 8004d74:	f8d0 32b4 	ldr.w	r3, [r0, #692]	; 0x2b4
 8004d78:	b113      	cbz	r3, 8004d80 <USBD_Init+0x10>
 8004d7a:	2300      	movs	r3, #0
 8004d7c:	f8c0 32b4 	str.w	r3, [r0, #692]	; 0x2b4
 8004d80:	b109      	cbz	r1, 8004d86 <USBD_Init+0x16>
 8004d82:	f8c0 12b0 	str.w	r1, [r0, #688]	; 0x2b0
 8004d86:	2301      	movs	r3, #1
 8004d88:	7002      	strb	r2, [r0, #0]
 8004d8a:	f880 329c 	strb.w	r3, [r0, #668]	; 0x29c
 8004d8e:	f000 fcff 	bl	8005790 <USBD_LL_Init>
 8004d92:	2000      	movs	r0, #0
 8004d94:	bd08      	pop	{r3, pc}
 8004d96:	2002      	movs	r0, #2
 8004d98:	e7fc      	b.n	8004d94 <USBD_Init+0x24>

08004d9a <USBD_RegisterClass>:
 8004d9a:	b119      	cbz	r1, 8004da4 <USBD_RegisterClass+0xa>
 8004d9c:	f8c0 12b4 	str.w	r1, [r0, #692]	; 0x2b4
 8004da0:	2000      	movs	r0, #0
 8004da2:	4770      	bx	lr
 8004da4:	2002      	movs	r0, #2
 8004da6:	4770      	bx	lr

08004da8 <USBD_Start>:
 8004da8:	b508      	push	{r3, lr}
 8004daa:	f000 fd33 	bl	8005814 <USBD_LL_Start>
 8004dae:	2000      	movs	r0, #0
 8004db0:	bd08      	pop	{r3, pc}

08004db2 <USBD_SetClassConfig>:
 8004db2:	b508      	push	{r3, lr}
 8004db4:	f8d0 32b4 	ldr.w	r3, [r0, #692]	; 0x2b4
 8004db8:	b90b      	cbnz	r3, 8004dbe <USBD_SetClassConfig+0xc>
 8004dba:	2002      	movs	r0, #2
 8004dbc:	bd08      	pop	{r3, pc}
 8004dbe:	681b      	ldr	r3, [r3, #0]
 8004dc0:	4798      	blx	r3
 8004dc2:	2800      	cmp	r0, #0
 8004dc4:	d0fa      	beq.n	8004dbc <USBD_SetClassConfig+0xa>
 8004dc6:	e7f8      	b.n	8004dba <USBD_SetClassConfig+0x8>

08004dc8 <USBD_ClrClassConfig>:
 8004dc8:	b508      	push	{r3, lr}
 8004dca:	f8d0 32b4 	ldr.w	r3, [r0, #692]	; 0x2b4
 8004dce:	685b      	ldr	r3, [r3, #4]
 8004dd0:	4798      	blx	r3
 8004dd2:	2000      	movs	r0, #0
 8004dd4:	bd08      	pop	{r3, pc}

08004dd6 <USBD_LL_SetupStage>:
 8004dd6:	b538      	push	{r3, r4, r5, lr}
 8004dd8:	f500 752a 	add.w	r5, r0, #680	; 0x2a8
 8004ddc:	4604      	mov	r4, r0
 8004dde:	4628      	mov	r0, r5
 8004de0:	f000 fae8 	bl	80053b4 <USBD_ParseSetupRequest>
 8004de4:	2301      	movs	r3, #1
 8004de6:	f894 12a8 	ldrb.w	r1, [r4, #680]	; 0x2a8
 8004dea:	f8c4 3294 	str.w	r3, [r4, #660]	; 0x294
 8004dee:	f8b4 32ae 	ldrh.w	r3, [r4, #686]	; 0x2ae
 8004df2:	f8c4 3298 	str.w	r3, [r4, #664]	; 0x298
 8004df6:	f001 031f 	and.w	r3, r1, #31
 8004dfa:	2b01      	cmp	r3, #1
 8004dfc:	d008      	beq.n	8004e10 <USBD_LL_SetupStage+0x3a>
 8004dfe:	2b02      	cmp	r3, #2
 8004e00:	d00b      	beq.n	8004e1a <USBD_LL_SetupStage+0x44>
 8004e02:	b97b      	cbnz	r3, 8004e24 <USBD_LL_SetupStage+0x4e>
 8004e04:	4629      	mov	r1, r5
 8004e06:	4620      	mov	r0, r4
 8004e08:	f000 f8fc 	bl	8005004 <USBD_StdDevReq>
 8004e0c:	2000      	movs	r0, #0
 8004e0e:	bd38      	pop	{r3, r4, r5, pc}
 8004e10:	4629      	mov	r1, r5
 8004e12:	4620      	mov	r0, r4
 8004e14:	f000 fa20 	bl	8005258 <USBD_StdItfReq>
 8004e18:	e7f8      	b.n	8004e0c <USBD_LL_SetupStage+0x36>
 8004e1a:	4629      	mov	r1, r5
 8004e1c:	4620      	mov	r0, r4
 8004e1e:	f000 fa3f 	bl	80052a0 <USBD_StdEPReq>
 8004e22:	e7f3      	b.n	8004e0c <USBD_LL_SetupStage+0x36>
 8004e24:	4620      	mov	r0, r4
 8004e26:	f001 0180 	and.w	r1, r1, #128	; 0x80
 8004e2a:	f000 fd11 	bl	8005850 <USBD_LL_StallEP>
 8004e2e:	e7ed      	b.n	8004e0c <USBD_LL_SetupStage+0x36>

08004e30 <USBD_LL_DataOutStage>:
 8004e30:	b5f8      	push	{r3, r4, r5, r6, r7, lr}
 8004e32:	4604      	mov	r4, r0
 8004e34:	4617      	mov	r7, r2
 8004e36:	460d      	mov	r5, r1
 8004e38:	bb39      	cbnz	r1, 8004e8a <USBD_LL_DataOutStage+0x5a>
 8004e3a:	f8d0 3294 	ldr.w	r3, [r0, #660]	; 0x294
 8004e3e:	2b03      	cmp	r3, #3
 8004e40:	d11c      	bne.n	8004e7c <USBD_LL_DataOutStage+0x4c>
 8004e42:	e9d0 6258 	ldrd	r6, r2, [r0, #352]	; 0x160
 8004e46:	4296      	cmp	r6, r2
 8004e48:	d90b      	bls.n	8004e62 <USBD_LL_DataOutStage+0x32>
 8004e4a:	1ab6      	subs	r6, r6, r2
 8004e4c:	42b2      	cmp	r2, r6
 8004e4e:	4639      	mov	r1, r7
 8004e50:	f8c0 6160 	str.w	r6, [r0, #352]	; 0x160
 8004e54:	bf8c      	ite	hi
 8004e56:	b2b2      	uxthhi	r2, r6
 8004e58:	b292      	uxthls	r2, r2
 8004e5a:	f000 fb08 	bl	800546e <USBD_CtlContinueRx>
 8004e5e:	4628      	mov	r0, r5
 8004e60:	bdf8      	pop	{r3, r4, r5, r6, r7, pc}
 8004e62:	f8d0 32b4 	ldr.w	r3, [r0, #692]	; 0x2b4
 8004e66:	691b      	ldr	r3, [r3, #16]
 8004e68:	b123      	cbz	r3, 8004e74 <USBD_LL_DataOutStage+0x44>
 8004e6a:	f890 229c 	ldrb.w	r2, [r0, #668]	; 0x29c
 8004e6e:	2a03      	cmp	r2, #3
 8004e70:	d100      	bne.n	8004e74 <USBD_LL_DataOutStage+0x44>
 8004e72:	4798      	blx	r3
 8004e74:	4620      	mov	r0, r4
 8004e76:	f000 fb02 	bl	800547e <USBD_CtlSendStatus>
 8004e7a:	e7f0      	b.n	8004e5e <USBD_LL_DataOutStage+0x2e>
 8004e7c:	2b05      	cmp	r3, #5
 8004e7e:	d1ee      	bne.n	8004e5e <USBD_LL_DataOutStage+0x2e>
 8004e80:	f8c4 1294 	str.w	r1, [r4, #660]	; 0x294
 8004e84:	f000 fce4 	bl	8005850 <USBD_LL_StallEP>
 8004e88:	e7e9      	b.n	8004e5e <USBD_LL_DataOutStage+0x2e>
 8004e8a:	f8d0 32b4 	ldr.w	r3, [r0, #692]	; 0x2b4
 8004e8e:	699b      	ldr	r3, [r3, #24]
 8004e90:	b133      	cbz	r3, 8004ea0 <USBD_LL_DataOutStage+0x70>
 8004e92:	f890 229c 	ldrb.w	r2, [r0, #668]	; 0x29c
 8004e96:	2a03      	cmp	r2, #3
 8004e98:	d102      	bne.n	8004ea0 <USBD_LL_DataOutStage+0x70>
 8004e9a:	4798      	blx	r3
 8004e9c:	2500      	movs	r5, #0
 8004e9e:	e7de      	b.n	8004e5e <USBD_LL_DataOutStage+0x2e>
 8004ea0:	2502      	movs	r5, #2
 8004ea2:	e7dc      	b.n	8004e5e <USBD_LL_DataOutStage+0x2e>

08004ea4 <USBD_LL_DataInStage>:
 8004ea4:	b5f8      	push	{r3, r4, r5, r6, r7, lr}
 8004ea6:	4604      	mov	r4, r0
 8004ea8:	4617      	mov	r7, r2
 8004eaa:	460d      	mov	r5, r1
 8004eac:	2900      	cmp	r1, #0
 8004eae:	d147      	bne.n	8004f40 <USBD_LL_DataInStage+0x9c>
 8004eb0:	f8d0 3294 	ldr.w	r3, [r0, #660]	; 0x294
 8004eb4:	2b02      	cmp	r3, #2
 8004eb6:	d13c      	bne.n	8004f32 <USBD_LL_DataInStage+0x8e>
 8004eb8:	e9d0 6308 	ldrd	r6, r3, [r0, #32]
 8004ebc:	429e      	cmp	r6, r3
 8004ebe:	d914      	bls.n	8004eea <USBD_LL_DataInStage+0x46>
 8004ec0:	1af3      	subs	r3, r6, r3
 8004ec2:	4639      	mov	r1, r7
 8004ec4:	6203      	str	r3, [r0, #32]
 8004ec6:	b29a      	uxth	r2, r3
 8004ec8:	f000 fabc 	bl	8005444 <USBD_CtlContinueSendData>
 8004ecc:	462b      	mov	r3, r5
 8004ece:	462a      	mov	r2, r5
 8004ed0:	4629      	mov	r1, r5
 8004ed2:	4620      	mov	r0, r4
 8004ed4:	f000 fcf2 	bl	80058bc <USBD_LL_PrepareReceive>
 8004ed8:	f894 32a0 	ldrb.w	r3, [r4, #672]	; 0x2a0
 8004edc:	2b01      	cmp	r3, #1
 8004ede:	d102      	bne.n	8004ee6 <USBD_LL_DataInStage+0x42>
 8004ee0:	2300      	movs	r3, #0
 8004ee2:	f884 32a0 	strb.w	r3, [r4, #672]	; 0x2a0
 8004ee6:	4628      	mov	r0, r5
 8004ee8:	bdf8      	pop	{r3, r4, r5, r6, r7, pc}
 8004eea:	69c2      	ldr	r2, [r0, #28]
 8004eec:	fbb2 f6f3 	udiv	r6, r2, r3
 8004ef0:	fb03 2616 	mls	r6, r3, r6, r2
 8004ef4:	b95e      	cbnz	r6, 8004f0e <USBD_LL_DataInStage+0x6a>
 8004ef6:	4293      	cmp	r3, r2
 8004ef8:	d809      	bhi.n	8004f0e <USBD_LL_DataInStage+0x6a>
 8004efa:	f8d0 3298 	ldr.w	r3, [r0, #664]	; 0x298
 8004efe:	429a      	cmp	r2, r3
 8004f00:	d205      	bcs.n	8004f0e <USBD_LL_DataInStage+0x6a>
 8004f02:	460a      	mov	r2, r1
 8004f04:	f000 fa9e 	bl	8005444 <USBD_CtlContinueSendData>
 8004f08:	f8c4 5298 	str.w	r5, [r4, #664]	; 0x298
 8004f0c:	e7de      	b.n	8004ecc <USBD_LL_DataInStage+0x28>
 8004f0e:	f8d4 32b4 	ldr.w	r3, [r4, #692]	; 0x2b4
 8004f12:	68db      	ldr	r3, [r3, #12]
 8004f14:	b12b      	cbz	r3, 8004f22 <USBD_LL_DataInStage+0x7e>
 8004f16:	f894 229c 	ldrb.w	r2, [r4, #668]	; 0x29c
 8004f1a:	2a03      	cmp	r2, #3
 8004f1c:	d101      	bne.n	8004f22 <USBD_LL_DataInStage+0x7e>
 8004f1e:	4620      	mov	r0, r4
 8004f20:	4798      	blx	r3
 8004f22:	2180      	movs	r1, #128	; 0x80
 8004f24:	4620      	mov	r0, r4
 8004f26:	f000 fc93 	bl	8005850 <USBD_LL_StallEP>
 8004f2a:	4620      	mov	r0, r4
 8004f2c:	f000 fab2 	bl	8005494 <USBD_CtlReceiveStatus>
 8004f30:	e7d2      	b.n	8004ed8 <USBD_LL_DataInStage+0x34>
 8004f32:	f033 0304 	bics.w	r3, r3, #4
 8004f36:	d1cf      	bne.n	8004ed8 <USBD_LL_DataInStage+0x34>
 8004f38:	2180      	movs	r1, #128	; 0x80
 8004f3a:	f000 fc89 	bl	8005850 <USBD_LL_StallEP>
 8004f3e:	e7cb      	b.n	8004ed8 <USBD_LL_DataInStage+0x34>
 8004f40:	f8d0 32b4 	ldr.w	r3, [r0, #692]	; 0x2b4
 8004f44:	695b      	ldr	r3, [r3, #20]
 8004f46:	b133      	cbz	r3, 8004f56 <USBD_LL_DataInStage+0xb2>
 8004f48:	f890 229c 	ldrb.w	r2, [r0, #668]	; 0x29c
 8004f4c:	2a03      	cmp	r2, #3
 8004f4e:	d102      	bne.n	8004f56 <USBD_LL_DataInStage+0xb2>
 8004f50:	4798      	blx	r3
 8004f52:	2500      	movs	r5, #0
 8004f54:	e7c7      	b.n	8004ee6 <USBD_LL_DataInStage+0x42>
 8004f56:	2502      	movs	r5, #2
 8004f58:	e7c5      	b.n	8004ee6 <USBD_LL_DataInStage+0x42>

08004f5a <USBD_LL_Reset>:
 8004f5a:	2200      	movs	r2, #0
 8004f5c:	b570      	push	{r4, r5, r6, lr}
 8004f5e:	4604      	mov	r4, r0
 8004f60:	2501      	movs	r5, #1
 8004f62:	2640      	movs	r6, #64	; 0x40
 8004f64:	4611      	mov	r1, r2
 8004f66:	2340      	movs	r3, #64	; 0x40
 8004f68:	f000 fc5d 	bl	8005826 <USBD_LL_OpenEP>
 8004f6c:	4633      	mov	r3, r6
 8004f6e:	2180      	movs	r1, #128	; 0x80
 8004f70:	2200      	movs	r2, #0
 8004f72:	4620      	mov	r0, r4
 8004f74:	f8c4 5158 	str.w	r5, [r4, #344]	; 0x158
 8004f78:	f8c4 6164 	str.w	r6, [r4, #356]	; 0x164
 8004f7c:	f000 fc53 	bl	8005826 <USBD_LL_OpenEP>
 8004f80:	2100      	movs	r1, #0
 8004f82:	f8d4 32b8 	ldr.w	r3, [r4, #696]	; 0x2b8
 8004f86:	61a5      	str	r5, [r4, #24]
 8004f88:	6266      	str	r6, [r4, #36]	; 0x24
 8004f8a:	f884 529c 	strb.w	r5, [r4, #668]	; 0x29c
 8004f8e:	f8c4 1294 	str.w	r1, [r4, #660]	; 0x294
 8004f92:	6061      	str	r1, [r4, #4]
 8004f94:	f8c4 12a4 	str.w	r1, [r4, #676]	; 0x2a4
 8004f98:	b123      	cbz	r3, 8004fa4 <USBD_LL_Reset+0x4a>
 8004f9a:	f8d4 32b4 	ldr.w	r3, [r4, #692]	; 0x2b4
 8004f9e:	4620      	mov	r0, r4
 8004fa0:	685b      	ldr	r3, [r3, #4]
 8004fa2:	4798      	blx	r3
 8004fa4:	2000      	movs	r0, #0
 8004fa6:	bd70      	pop	{r4, r5, r6, pc}

08004fa8 <USBD_LL_SetSpeed>:
 8004fa8:	7401      	strb	r1, [r0, #16]
 8004faa:	2000      	movs	r0, #0
 8004fac:	4770      	bx	lr

08004fae <USBD_LL_Suspend>:
 8004fae:	f890 329c 	ldrb.w	r3, [r0, #668]	; 0x29c
 8004fb2:	f880 329d 	strb.w	r3, [r0, #669]	; 0x29d
 8004fb6:	2304      	movs	r3, #4
 8004fb8:	f880 329c 	strb.w	r3, [r0, #668]	; 0x29c
 8004fbc:	2000      	movs	r0, #0
 8004fbe:	4770      	bx	lr

08004fc0 <USBD_LL_Resume>:
 8004fc0:	f890 329c 	ldrb.w	r3, [r0, #668]	; 0x29c
 8004fc4:	2b04      	cmp	r3, #4
 8004fc6:	bf04      	itt	eq
 8004fc8:	f890 329d 	ldrbeq.w	r3, [r0, #669]	; 0x29d
 8004fcc:	f880 329c 	strbeq.w	r3, [r0, #668]	; 0x29c
 8004fd0:	2000      	movs	r0, #0
 8004fd2:	4770      	bx	lr

08004fd4 <USBD_LL_SOF>:
 8004fd4:	b508      	push	{r3, lr}
 8004fd6:	f890 229c 	ldrb.w	r2, [r0, #668]	; 0x29c
 8004fda:	2a03      	cmp	r2, #3
 8004fdc:	d104      	bne.n	8004fe8 <USBD_LL_SOF+0x14>
 8004fde:	f8d0 32b4 	ldr.w	r3, [r0, #692]	; 0x2b4
 8004fe2:	69db      	ldr	r3, [r3, #28]
 8004fe4:	b103      	cbz	r3, 8004fe8 <USBD_LL_SOF+0x14>
 8004fe6:	4798      	blx	r3
 8004fe8:	2000      	movs	r0, #0
 8004fea:	bd08      	pop	{r3, pc}

08004fec <USBD_CtlError.constprop.0>:
 8004fec:	b510      	push	{r4, lr}
 8004fee:	4604      	mov	r4, r0
 8004ff0:	2180      	movs	r1, #128	; 0x80
 8004ff2:	f000 fc2d 	bl	8005850 <USBD_LL_StallEP>
 8004ff6:	4620      	mov	r0, r4
 8004ff8:	e8bd 4010 	ldmia.w	sp!, {r4, lr}
 8004ffc:	2100      	movs	r1, #0
 8004ffe:	f000 bc27 	b.w	8005850 <USBD_LL_StallEP>
	...

08005004 <USBD_StdDevReq>:
 8005004:	b537      	push	{r0, r1, r2, r4, r5, lr}
 8005006:	780b      	ldrb	r3, [r1, #0]
 8005008:	4604      	mov	r4, r0
 800500a:	f003 0360 	and.w	r3, r3, #96	; 0x60
 800500e:	2b20      	cmp	r3, #32
 8005010:	460d      	mov	r5, r1
 8005012:	d012      	beq.n	800503a <USBD_StdDevReq+0x36>
 8005014:	2b40      	cmp	r3, #64	; 0x40
 8005016:	d010      	beq.n	800503a <USBD_StdDevReq+0x36>
 8005018:	2b00      	cmp	r3, #0
 800501a:	d151      	bne.n	80050c0 <USBD_StdDevReq+0xbc>
 800501c:	784b      	ldrb	r3, [r1, #1]
 800501e:	2b09      	cmp	r3, #9
 8005020:	d84e      	bhi.n	80050c0 <USBD_StdDevReq+0xbc>
 8005022:	e8df f013 	tbh	[pc, r3, lsl #1]
 8005026:	00ee      	.short	0x00ee
 8005028:	004d010a 	.word	0x004d010a
 800502c:	004d0103 	.word	0x004d0103
 8005030:	00130087 	.word	0x00130087
 8005034:	00d6004d 	.word	0x00d6004d
 8005038:	00a3      	.short	0x00a3
 800503a:	f8d4 32b4 	ldr.w	r3, [r4, #692]	; 0x2b4
 800503e:	4629      	mov	r1, r5
 8005040:	4620      	mov	r0, r4
 8005042:	689b      	ldr	r3, [r3, #8]
 8005044:	4798      	blx	r3
 8005046:	2000      	movs	r0, #0
 8005048:	b003      	add	sp, #12
 800504a:	bd30      	pop	{r4, r5, pc}
 800504c:	2300      	movs	r3, #0
 800504e:	f8ad 3006 	strh.w	r3, [sp, #6]
 8005052:	884b      	ldrh	r3, [r1, #2]
 8005054:	0a1a      	lsrs	r2, r3, #8
 8005056:	3a01      	subs	r2, #1
 8005058:	2a06      	cmp	r2, #6
 800505a:	d831      	bhi.n	80050c0 <USBD_StdDevReq+0xbc>
 800505c:	e8df f002 	tbb	[pc, r2]
 8005060:	30231604 	.word	0x30231604
 8005064:	4830      	.short	0x4830
 8005066:	52          	.byte	0x52
 8005067:	00          	.byte	0x00
 8005068:	f8d0 32b0 	ldr.w	r3, [r0, #688]	; 0x2b0
 800506c:	681b      	ldr	r3, [r3, #0]
 800506e:	7c20      	ldrb	r0, [r4, #16]
 8005070:	f10d 0106 	add.w	r1, sp, #6
 8005074:	4798      	blx	r3
 8005076:	f8bd 2006 	ldrh.w	r2, [sp, #6]
 800507a:	2a00      	cmp	r2, #0
 800507c:	d056      	beq.n	800512c <USBD_StdDevReq+0x128>
 800507e:	88eb      	ldrh	r3, [r5, #6]
 8005080:	2b00      	cmp	r3, #0
 8005082:	d14a      	bne.n	800511a <USBD_StdDevReq+0x116>
 8005084:	4620      	mov	r0, r4
 8005086:	f000 f9fa 	bl	800547e <USBD_CtlSendStatus>
 800508a:	e7dc      	b.n	8005046 <USBD_StdDevReq+0x42>
 800508c:	7c02      	ldrb	r2, [r0, #16]
 800508e:	f8d0 32b4 	ldr.w	r3, [r0, #692]	; 0x2b4
 8005092:	b932      	cbnz	r2, 80050a2 <USBD_StdDevReq+0x9e>
 8005094:	6a9b      	ldr	r3, [r3, #40]	; 0x28
 8005096:	f10d 0006 	add.w	r0, sp, #6
 800509a:	4798      	blx	r3
 800509c:	2302      	movs	r3, #2
 800509e:	7043      	strb	r3, [r0, #1]
 80050a0:	e7e9      	b.n	8005076 <USBD_StdDevReq+0x72>
 80050a2:	6adb      	ldr	r3, [r3, #44]	; 0x2c
 80050a4:	e7f7      	b.n	8005096 <USBD_StdDevReq+0x92>
 80050a6:	b2db      	uxtb	r3, r3
 80050a8:	2b05      	cmp	r3, #5
 80050aa:	d809      	bhi.n	80050c0 <USBD_StdDevReq+0xbc>
 80050ac:	e8df f003 	tbb	[pc, r3]
 80050b0:	14100c03 	.word	0x14100c03
 80050b4:	1c18      	.short	0x1c18
 80050b6:	f8d0 32b0 	ldr.w	r3, [r0, #688]	; 0x2b0
 80050ba:	685b      	ldr	r3, [r3, #4]
 80050bc:	2b00      	cmp	r3, #0
 80050be:	d1d6      	bne.n	800506e <USBD_StdDevReq+0x6a>
 80050c0:	4620      	mov	r0, r4
 80050c2:	f7ff ff93 	bl	8004fec <USBD_CtlError.constprop.0>
 80050c6:	e7be      	b.n	8005046 <USBD_StdDevReq+0x42>
 80050c8:	f8d0 32b0 	ldr.w	r3, [r0, #688]	; 0x2b0
 80050cc:	689b      	ldr	r3, [r3, #8]
 80050ce:	e7f5      	b.n	80050bc <USBD_StdDevReq+0xb8>
 80050d0:	f8d0 32b0 	ldr.w	r3, [r0, #688]	; 0x2b0
 80050d4:	68db      	ldr	r3, [r3, #12]
 80050d6:	e7f1      	b.n	80050bc <USBD_StdDevReq+0xb8>
 80050d8:	f8d0 32b0 	ldr.w	r3, [r0, #688]	; 0x2b0
 80050dc:	691b      	ldr	r3, [r3, #16]
 80050de:	e7ed      	b.n	80050bc <USBD_StdDevReq+0xb8>
 80050e0:	f8d0 32b0 	ldr.w	r3, [r0, #688]	; 0x2b0
 80050e4:	695b      	ldr	r3, [r3, #20]
 80050e6:	e7e9      	b.n	80050bc <USBD_StdDevReq+0xb8>
 80050e8:	f8d0 32b0 	ldr.w	r3, [r0, #688]	; 0x2b0
 80050ec:	699b      	ldr	r3, [r3, #24]
 80050ee:	e7e5      	b.n	80050bc <USBD_StdDevReq+0xb8>
 80050f0:	7c03      	ldrb	r3, [r0, #16]
 80050f2:	2b00      	cmp	r3, #0
 80050f4:	d1e4      	bne.n	80050c0 <USBD_StdDevReq+0xbc>
 80050f6:	f8d0 32b4 	ldr.w	r3, [r0, #692]	; 0x2b4
 80050fa:	f10d 0006 	add.w	r0, sp, #6
 80050fe:	6b5b      	ldr	r3, [r3, #52]	; 0x34
 8005100:	4798      	blx	r3
 8005102:	e7b8      	b.n	8005076 <USBD_StdDevReq+0x72>
 8005104:	7c03      	ldrb	r3, [r0, #16]
 8005106:	2b00      	cmp	r3, #0
 8005108:	d1da      	bne.n	80050c0 <USBD_StdDevReq+0xbc>
 800510a:	f8d0 32b4 	ldr.w	r3, [r0, #692]	; 0x2b4
 800510e:	f10d 0006 	add.w	r0, sp, #6
 8005112:	6b1b      	ldr	r3, [r3, #48]	; 0x30
 8005114:	4798      	blx	r3
 8005116:	2307      	movs	r3, #7
 8005118:	e7c1      	b.n	800509e <USBD_StdDevReq+0x9a>
 800511a:	429a      	cmp	r2, r3
 800511c:	bf28      	it	cs
 800511e:	461a      	movcs	r2, r3
 8005120:	4601      	mov	r1, r0
 8005122:	4620      	mov	r0, r4
 8005124:	f8ad 2006 	strh.w	r2, [sp, #6]
 8005128:	f000 f97f 	bl	800542a <USBD_CtlSendData>
 800512c:	88eb      	ldrh	r3, [r5, #6]
 800512e:	2b00      	cmp	r3, #0
 8005130:	d189      	bne.n	8005046 <USBD_StdDevReq+0x42>
 8005132:	e7a7      	b.n	8005084 <USBD_StdDevReq+0x80>
 8005134:	888b      	ldrh	r3, [r1, #4]
 8005136:	2b00      	cmp	r3, #0
 8005138:	d1c2      	bne.n	80050c0 <USBD_StdDevReq+0xbc>
 800513a:	88cb      	ldrh	r3, [r1, #6]
 800513c:	2b00      	cmp	r3, #0
 800513e:	d1bf      	bne.n	80050c0 <USBD_StdDevReq+0xbc>
 8005140:	884d      	ldrh	r5, [r1, #2]
 8005142:	2d7f      	cmp	r5, #127	; 0x7f
 8005144:	d8bc      	bhi.n	80050c0 <USBD_StdDevReq+0xbc>
 8005146:	f890 329c 	ldrb.w	r3, [r0, #668]	; 0x29c
 800514a:	2b03      	cmp	r3, #3
 800514c:	d0b8      	beq.n	80050c0 <USBD_StdDevReq+0xbc>
 800514e:	b2e9      	uxtb	r1, r5
 8005150:	f880 129e 	strb.w	r1, [r0, #670]	; 0x29e
 8005154:	f000 fba0 	bl	8005898 <USBD_LL_SetUSBAddress>
 8005158:	4620      	mov	r0, r4
 800515a:	f000 f990 	bl	800547e <USBD_CtlSendStatus>
 800515e:	b11d      	cbz	r5, 8005168 <USBD_StdDevReq+0x164>
 8005160:	2302      	movs	r3, #2
 8005162:	f884 329c 	strb.w	r3, [r4, #668]	; 0x29c
 8005166:	e76e      	b.n	8005046 <USBD_StdDevReq+0x42>
 8005168:	2301      	movs	r3, #1
 800516a:	e7fa      	b.n	8005162 <USBD_StdDevReq+0x15e>
 800516c:	7889      	ldrb	r1, [r1, #2]
 800516e:	4d39      	ldr	r5, [pc, #228]	; (8005254 <USBD_StdDevReq+0x250>)
 8005170:	2901      	cmp	r1, #1
 8005172:	7029      	strb	r1, [r5, #0]
 8005174:	d8a4      	bhi.n	80050c0 <USBD_StdDevReq+0xbc>
 8005176:	f890 329c 	ldrb.w	r3, [r0, #668]	; 0x29c
 800517a:	2b02      	cmp	r3, #2
 800517c:	d008      	beq.n	8005190 <USBD_StdDevReq+0x18c>
 800517e:	2b03      	cmp	r3, #3
 8005180:	d015      	beq.n	80051ae <USBD_StdDevReq+0x1aa>
 8005182:	f7ff ff33 	bl	8004fec <USBD_CtlError.constprop.0>
 8005186:	4620      	mov	r0, r4
 8005188:	7829      	ldrb	r1, [r5, #0]
 800518a:	f7ff fe1d 	bl	8004dc8 <USBD_ClrClassConfig>
 800518e:	e75a      	b.n	8005046 <USBD_StdDevReq+0x42>
 8005190:	2900      	cmp	r1, #0
 8005192:	f43f af77 	beq.w	8005084 <USBD_StdDevReq+0x80>
 8005196:	2101      	movs	r1, #1
 8005198:	2303      	movs	r3, #3
 800519a:	6041      	str	r1, [r0, #4]
 800519c:	f880 329c 	strb.w	r3, [r0, #668]	; 0x29c
 80051a0:	4620      	mov	r0, r4
 80051a2:	f7ff fe06 	bl	8004db2 <USBD_SetClassConfig>
 80051a6:	2802      	cmp	r0, #2
 80051a8:	f47f af6c 	bne.w	8005084 <USBD_StdDevReq+0x80>
 80051ac:	e788      	b.n	80050c0 <USBD_StdDevReq+0xbc>
 80051ae:	b931      	cbnz	r1, 80051be <USBD_StdDevReq+0x1ba>
 80051b0:	2302      	movs	r3, #2
 80051b2:	6041      	str	r1, [r0, #4]
 80051b4:	f880 329c 	strb.w	r3, [r0, #668]	; 0x29c
 80051b8:	f7ff fe06 	bl	8004dc8 <USBD_ClrClassConfig>
 80051bc:	e762      	b.n	8005084 <USBD_StdDevReq+0x80>
 80051be:	6841      	ldr	r1, [r0, #4]
 80051c0:	2901      	cmp	r1, #1
 80051c2:	f43f af5f 	beq.w	8005084 <USBD_StdDevReq+0x80>
 80051c6:	b2c9      	uxtb	r1, r1
 80051c8:	f7ff fdfe 	bl	8004dc8 <USBD_ClrClassConfig>
 80051cc:	7829      	ldrb	r1, [r5, #0]
 80051ce:	6061      	str	r1, [r4, #4]
 80051d0:	e7e6      	b.n	80051a0 <USBD_StdDevReq+0x19c>
 80051d2:	88ca      	ldrh	r2, [r1, #6]
 80051d4:	2a01      	cmp	r2, #1
 80051d6:	f47f af73 	bne.w	80050c0 <USBD_StdDevReq+0xbc>
 80051da:	f890 329c 	ldrb.w	r3, [r0, #668]	; 0x29c
 80051de:	2b02      	cmp	r3, #2
 80051e0:	d80a      	bhi.n	80051f8 <USBD_StdDevReq+0x1f4>
 80051e2:	2b00      	cmp	r3, #0
 80051e4:	f43f af6c 	beq.w	80050c0 <USBD_StdDevReq+0xbc>
 80051e8:	4601      	mov	r1, r0
 80051ea:	2300      	movs	r3, #0
 80051ec:	f841 3f08 	str.w	r3, [r1, #8]!
 80051f0:	4620      	mov	r0, r4
 80051f2:	f000 f91a 	bl	800542a <USBD_CtlSendData>
 80051f6:	e726      	b.n	8005046 <USBD_StdDevReq+0x42>
 80051f8:	2b03      	cmp	r3, #3
 80051fa:	f47f af61 	bne.w	80050c0 <USBD_StdDevReq+0xbc>
 80051fe:	1d01      	adds	r1, r0, #4
 8005200:	e7f6      	b.n	80051f0 <USBD_StdDevReq+0x1ec>
 8005202:	f890 329c 	ldrb.w	r3, [r0, #668]	; 0x29c
 8005206:	3b01      	subs	r3, #1
 8005208:	2b02      	cmp	r3, #2
 800520a:	f63f af59 	bhi.w	80050c0 <USBD_StdDevReq+0xbc>
 800520e:	88cb      	ldrh	r3, [r1, #6]
 8005210:	2b02      	cmp	r3, #2
 8005212:	f47f af55 	bne.w	80050c0 <USBD_StdDevReq+0xbc>
 8005216:	2301      	movs	r3, #1
 8005218:	60c3      	str	r3, [r0, #12]
 800521a:	f8d0 32a4 	ldr.w	r3, [r0, #676]	; 0x2a4
 800521e:	b10b      	cbz	r3, 8005224 <USBD_StdDevReq+0x220>
 8005220:	2303      	movs	r3, #3
 8005222:	60c3      	str	r3, [r0, #12]
 8005224:	2202      	movs	r2, #2
 8005226:	f104 010c 	add.w	r1, r4, #12
 800522a:	e7e1      	b.n	80051f0 <USBD_StdDevReq+0x1ec>
 800522c:	884b      	ldrh	r3, [r1, #2]
 800522e:	2b01      	cmp	r3, #1
 8005230:	f47f af09 	bne.w	8005046 <USBD_StdDevReq+0x42>
 8005234:	f8c4 32a4 	str.w	r3, [r4, #676]	; 0x2a4
 8005238:	e724      	b.n	8005084 <USBD_StdDevReq+0x80>
 800523a:	f890 329c 	ldrb.w	r3, [r0, #668]	; 0x29c
 800523e:	3b01      	subs	r3, #1
 8005240:	2b02      	cmp	r3, #2
 8005242:	f63f af3d 	bhi.w	80050c0 <USBD_StdDevReq+0xbc>
 8005246:	884b      	ldrh	r3, [r1, #2]
 8005248:	2b01      	cmp	r3, #1
 800524a:	f47f aefc 	bne.w	8005046 <USBD_StdDevReq+0x42>
 800524e:	2300      	movs	r3, #0
 8005250:	e7f0      	b.n	8005234 <USBD_StdDevReq+0x230>
 8005252:	bf00      	nop
 8005254:	20000404 	.word	0x20000404

08005258 <USBD_StdItfReq>:
 8005258:	b538      	push	{r3, r4, r5, lr}
 800525a:	780b      	ldrb	r3, [r1, #0]
 800525c:	4604      	mov	r4, r0
 800525e:	f003 0260 	and.w	r2, r3, #96	; 0x60
 8005262:	2a40      	cmp	r2, #64	; 0x40
 8005264:	460d      	mov	r5, r1
 8005266:	d001      	beq.n	800526c <USBD_StdItfReq+0x14>
 8005268:	065b      	lsls	r3, r3, #25
 800526a:	d415      	bmi.n	8005298 <USBD_StdItfReq+0x40>
 800526c:	f894 329c 	ldrb.w	r3, [r4, #668]	; 0x29c
 8005270:	3b01      	subs	r3, #1
 8005272:	2b02      	cmp	r3, #2
 8005274:	d810      	bhi.n	8005298 <USBD_StdItfReq+0x40>
 8005276:	792b      	ldrb	r3, [r5, #4]
 8005278:	2b01      	cmp	r3, #1
 800527a:	d80d      	bhi.n	8005298 <USBD_StdItfReq+0x40>
 800527c:	f8d4 32b4 	ldr.w	r3, [r4, #692]	; 0x2b4
 8005280:	4629      	mov	r1, r5
 8005282:	689b      	ldr	r3, [r3, #8]
 8005284:	4620      	mov	r0, r4
 8005286:	4798      	blx	r3
 8005288:	88eb      	ldrh	r3, [r5, #6]
 800528a:	b91b      	cbnz	r3, 8005294 <USBD_StdItfReq+0x3c>
 800528c:	b910      	cbnz	r0, 8005294 <USBD_StdItfReq+0x3c>
 800528e:	4620      	mov	r0, r4
 8005290:	f000 f8f5 	bl	800547e <USBD_CtlSendStatus>
 8005294:	2000      	movs	r0, #0
 8005296:	bd38      	pop	{r3, r4, r5, pc}
 8005298:	4620      	mov	r0, r4
 800529a:	f7ff fea7 	bl	8004fec <USBD_CtlError.constprop.0>
 800529e:	e7f9      	b.n	8005294 <USBD_StdItfReq+0x3c>

080052a0 <USBD_StdEPReq>:
 80052a0:	b538      	push	{r3, r4, r5, lr}
 80052a2:	780a      	ldrb	r2, [r1, #0]
 80052a4:	4604      	mov	r4, r0
 80052a6:	f002 0260 	and.w	r2, r2, #96	; 0x60
 80052aa:	2a20      	cmp	r2, #32
 80052ac:	460b      	mov	r3, r1
 80052ae:	d027      	beq.n	8005300 <USBD_StdEPReq+0x60>
 80052b0:	2a40      	cmp	r2, #64	; 0x40
 80052b2:	d025      	beq.n	8005300 <USBD_StdEPReq+0x60>
 80052b4:	bb92      	cbnz	r2, 800531c <USBD_StdEPReq+0x7c>
 80052b6:	785a      	ldrb	r2, [r3, #1]
 80052b8:	888d      	ldrh	r5, [r1, #4]
 80052ba:	2a01      	cmp	r2, #1
 80052bc:	7909      	ldrb	r1, [r1, #4]
 80052be:	d03d      	beq.n	800533c <USBD_StdEPReq+0x9c>
 80052c0:	2a03      	cmp	r2, #3
 80052c2:	d025      	beq.n	8005310 <USBD_StdEPReq+0x70>
 80052c4:	bb52      	cbnz	r2, 800531c <USBD_StdEPReq+0x7c>
 80052c6:	f890 329c 	ldrb.w	r3, [r0, #668]	; 0x29c
 80052ca:	2b02      	cmp	r3, #2
 80052cc:	d04d      	beq.n	800536a <USBD_StdEPReq+0xca>
 80052ce:	2b03      	cmp	r3, #3
 80052d0:	d124      	bne.n	800531c <USBD_StdEPReq+0x7c>
 80052d2:	2214      	movs	r2, #20
 80052d4:	f001 030f 	and.w	r3, r1, #15
 80052d8:	f015 0f80 	tst.w	r5, #128	; 0x80
 80052dc:	fb02 0303 	mla	r3, r2, r3, r0
 80052e0:	d054      	beq.n	800538c <USBD_StdEPReq+0xec>
 80052e2:	699b      	ldr	r3, [r3, #24]
 80052e4:	b1d3      	cbz	r3, 800531c <USBD_StdEPReq+0x7c>
 80052e6:	2314      	movs	r3, #20
 80052e8:	f001 057f 	and.w	r5, r1, #127	; 0x7f
 80052ec:	fb05 3303 	mla	r3, r5, r3, r3
 80052f0:	18c5      	adds	r5, r0, r3
 80052f2:	f011 037f 	ands.w	r3, r1, #127	; 0x7f
 80052f6:	d155      	bne.n	80053a4 <USBD_StdEPReq+0x104>
 80052f8:	602b      	str	r3, [r5, #0]
 80052fa:	2202      	movs	r2, #2
 80052fc:	4629      	mov	r1, r5
 80052fe:	e041      	b.n	8005384 <USBD_StdEPReq+0xe4>
 8005300:	f8d4 22b4 	ldr.w	r2, [r4, #692]	; 0x2b4
 8005304:	4619      	mov	r1, r3
 8005306:	4620      	mov	r0, r4
 8005308:	6892      	ldr	r2, [r2, #8]
 800530a:	4790      	blx	r2
 800530c:	2000      	movs	r0, #0
 800530e:	bd38      	pop	{r3, r4, r5, pc}
 8005310:	f890 229c 	ldrb.w	r2, [r0, #668]	; 0x29c
 8005314:	2a02      	cmp	r2, #2
 8005316:	d01f      	beq.n	8005358 <USBD_StdEPReq+0xb8>
 8005318:	2a03      	cmp	r2, #3
 800531a:	d003      	beq.n	8005324 <USBD_StdEPReq+0x84>
 800531c:	4620      	mov	r0, r4
 800531e:	f7ff fe65 	bl	8004fec <USBD_CtlError.constprop.0>
 8005322:	e7f3      	b.n	800530c <USBD_StdEPReq+0x6c>
 8005324:	885a      	ldrh	r2, [r3, #2]
 8005326:	b92a      	cbnz	r2, 8005334 <USBD_StdEPReq+0x94>
 8005328:	064a      	lsls	r2, r1, #25
 800532a:	d003      	beq.n	8005334 <USBD_StdEPReq+0x94>
 800532c:	88db      	ldrh	r3, [r3, #6]
 800532e:	b90b      	cbnz	r3, 8005334 <USBD_StdEPReq+0x94>
 8005330:	f000 fa8e 	bl	8005850 <USBD_LL_StallEP>
 8005334:	4620      	mov	r0, r4
 8005336:	f000 f8a2 	bl	800547e <USBD_CtlSendStatus>
 800533a:	e7e7      	b.n	800530c <USBD_StdEPReq+0x6c>
 800533c:	f890 229c 	ldrb.w	r2, [r0, #668]	; 0x29c
 8005340:	2a02      	cmp	r2, #2
 8005342:	d009      	beq.n	8005358 <USBD_StdEPReq+0xb8>
 8005344:	2a03      	cmp	r2, #3
 8005346:	d1e9      	bne.n	800531c <USBD_StdEPReq+0x7c>
 8005348:	885b      	ldrh	r3, [r3, #2]
 800534a:	2b00      	cmp	r3, #0
 800534c:	d1de      	bne.n	800530c <USBD_StdEPReq+0x6c>
 800534e:	064d      	lsls	r5, r1, #25
 8005350:	d0f0      	beq.n	8005334 <USBD_StdEPReq+0x94>
 8005352:	f000 fa86 	bl	8005862 <USBD_LL_ClearStallEP>
 8005356:	e7ed      	b.n	8005334 <USBD_StdEPReq+0x94>
 8005358:	064b      	lsls	r3, r1, #25
 800535a:	d0df      	beq.n	800531c <USBD_StdEPReq+0x7c>
 800535c:	f000 fa78 	bl	8005850 <USBD_LL_StallEP>
 8005360:	2180      	movs	r1, #128	; 0x80
 8005362:	4620      	mov	r0, r4
 8005364:	f000 fa74 	bl	8005850 <USBD_LL_StallEP>
 8005368:	e7d0      	b.n	800530c <USBD_StdEPReq+0x6c>
 800536a:	064a      	lsls	r2, r1, #25
 800536c:	d1d6      	bne.n	800531c <USBD_StdEPReq+0x7c>
 800536e:	062b      	lsls	r3, r5, #24
 8005370:	f04f 0300 	mov.w	r3, #0
 8005374:	f04f 0202 	mov.w	r2, #2
 8005378:	bf4c      	ite	mi
 800537a:	f100 0114 	addmi.w	r1, r0, #20
 800537e:	f500 71aa 	addpl.w	r1, r0, #340	; 0x154
 8005382:	600b      	str	r3, [r1, #0]
 8005384:	4620      	mov	r0, r4
 8005386:	f000 f850 	bl	800542a <USBD_CtlSendData>
 800538a:	e7bf      	b.n	800530c <USBD_StdEPReq+0x6c>
 800538c:	f8d3 3158 	ldr.w	r3, [r3, #344]	; 0x158
 8005390:	2b00      	cmp	r3, #0
 8005392:	d0c3      	beq.n	800531c <USBD_StdEPReq+0x7c>
 8005394:	2314      	movs	r3, #20
 8005396:	f001 057f 	and.w	r5, r1, #127	; 0x7f
 800539a:	fb03 0505 	mla	r5, r3, r5, r0
 800539e:	f505 75aa 	add.w	r5, r5, #340	; 0x154
 80053a2:	e7a6      	b.n	80052f2 <USBD_StdEPReq+0x52>
 80053a4:	4620      	mov	r0, r4
 80053a6:	f000 fa65 	bl	8005874 <USBD_LL_IsStallEP>
 80053aa:	b108      	cbz	r0, 80053b0 <USBD_StdEPReq+0x110>
 80053ac:	2301      	movs	r3, #1
 80053ae:	e7a3      	b.n	80052f8 <USBD_StdEPReq+0x58>
 80053b0:	6028      	str	r0, [r5, #0]
 80053b2:	e7a2      	b.n	80052fa <USBD_StdEPReq+0x5a>

080053b4 <USBD_ParseSetupRequest>:
 80053b4:	780b      	ldrb	r3, [r1, #0]
 80053b6:	7003      	strb	r3, [r0, #0]
 80053b8:	784b      	ldrb	r3, [r1, #1]
 80053ba:	7043      	strb	r3, [r0, #1]
 80053bc:	78ca      	ldrb	r2, [r1, #3]
 80053be:	788b      	ldrb	r3, [r1, #2]
 80053c0:	eb03 2302 	add.w	r3, r3, r2, lsl #8
 80053c4:	8043      	strh	r3, [r0, #2]
 80053c6:	794a      	ldrb	r2, [r1, #5]
 80053c8:	790b      	ldrb	r3, [r1, #4]
 80053ca:	eb03 2302 	add.w	r3, r3, r2, lsl #8
 80053ce:	8083      	strh	r3, [r0, #4]
 80053d0:	79ca      	ldrb	r2, [r1, #7]
 80053d2:	798b      	ldrb	r3, [r1, #6]
 80053d4:	eb03 2302 	add.w	r3, r3, r2, lsl #8
 80053d8:	80c3      	strh	r3, [r0, #6]
 80053da:	4770      	bx	lr

080053dc <USBD_CtlError>:
 80053dc:	b510      	push	{r4, lr}
 80053de:	4604      	mov	r4, r0
 80053e0:	2180      	movs	r1, #128	; 0x80
 80053e2:	f000 fa35 	bl	8005850 <USBD_LL_StallEP>
 80053e6:	4620      	mov	r0, r4
 80053e8:	e8bd 4010 	ldmia.w	sp!, {r4, lr}
 80053ec:	2100      	movs	r1, #0
 80053ee:	f000 ba2f 	b.w	8005850 <USBD_LL_StallEP>

080053f2 <USBD_GetString>:
 80053f2:	b530      	push	{r4, r5, lr}
 80053f4:	b188      	cbz	r0, 800541a <USBD_GetString+0x28>
 80053f6:	2400      	movs	r4, #0
 80053f8:	3801      	subs	r0, #1
 80053fa:	4623      	mov	r3, r4
 80053fc:	3401      	adds	r4, #1
 80053fe:	5d05      	ldrb	r5, [r0, r4]
 8005400:	2d00      	cmp	r5, #0
 8005402:	d1fa      	bne.n	80053fa <USBD_GetString+0x8>
 8005404:	b2db      	uxtb	r3, r3
 8005406:	3301      	adds	r3, #1
 8005408:	005b      	lsls	r3, r3, #1
 800540a:	8013      	strh	r3, [r2, #0]
 800540c:	700b      	strb	r3, [r1, #0]
 800540e:	2303      	movs	r3, #3
 8005410:	704b      	strb	r3, [r1, #1]
 8005412:	2302      	movs	r3, #2
 8005414:	f810 4f01 	ldrb.w	r4, [r0, #1]!
 8005418:	b904      	cbnz	r4, 800541c <USBD_GetString+0x2a>
 800541a:	bd30      	pop	{r4, r5, pc}
 800541c:	1c5a      	adds	r2, r3, #1
 800541e:	54cc      	strb	r4, [r1, r3]
 8005420:	b2d2      	uxtb	r2, r2
 8005422:	3302      	adds	r3, #2
 8005424:	b2db      	uxtb	r3, r3
 8005426:	548d      	strb	r5, [r1, r2]
 8005428:	e7f4      	b.n	8005414 <USBD_GetString+0x22>

0800542a <USBD_CtlSendData>:
 800542a:	4613      	mov	r3, r2
 800542c:	2202      	movs	r2, #2
 800542e:	b510      	push	{r4, lr}
 8005430:	e9c0 3307 	strd	r3, r3, [r0, #28]
 8005434:	f8c0 2294 	str.w	r2, [r0, #660]	; 0x294
 8005438:	460a      	mov	r2, r1
 800543a:	2100      	movs	r1, #0
 800543c:	f000 fa35 	bl	80058aa <USBD_LL_Transmit>
 8005440:	2000      	movs	r0, #0
 8005442:	bd10      	pop	{r4, pc}

08005444 <USBD_CtlContinueSendData>:
 8005444:	b508      	push	{r3, lr}
 8005446:	4613      	mov	r3, r2
 8005448:	460a      	mov	r2, r1
 800544a:	2100      	movs	r1, #0
 800544c:	f000 fa2d 	bl	80058aa <USBD_LL_Transmit>
 8005450:	2000      	movs	r0, #0
 8005452:	bd08      	pop	{r3, pc}

08005454 <USBD_CtlPrepareRx>:
 8005454:	4613      	mov	r3, r2
 8005456:	2203      	movs	r2, #3
 8005458:	b510      	push	{r4, lr}
 800545a:	e9c0 3357 	strd	r3, r3, [r0, #348]	; 0x15c
 800545e:	f8c0 2294 	str.w	r2, [r0, #660]	; 0x294
 8005462:	460a      	mov	r2, r1
 8005464:	2100      	movs	r1, #0
 8005466:	f000 fa29 	bl	80058bc <USBD_LL_PrepareReceive>
 800546a:	2000      	movs	r0, #0
 800546c:	bd10      	pop	{r4, pc}

0800546e <USBD_CtlContinueRx>:
 800546e:	b508      	push	{r3, lr}
 8005470:	4613      	mov	r3, r2
 8005472:	460a      	mov	r2, r1
 8005474:	2100      	movs	r1, #0
 8005476:	f000 fa21 	bl	80058bc <USBD_LL_PrepareReceive>
 800547a:	2000      	movs	r0, #0
 800547c:	bd08      	pop	{r3, pc}

0800547e <USBD_CtlSendStatus>:
 800547e:	b508      	push	{r3, lr}
 8005480:	2304      	movs	r3, #4
 8005482:	f8c0 3294 	str.w	r3, [r0, #660]	; 0x294
 8005486:	2300      	movs	r3, #0
 8005488:	461a      	mov	r2, r3
 800548a:	4619      	mov	r1, r3
 800548c:	f000 fa0d 	bl	80058aa <USBD_LL_Transmit>
 8005490:	2000      	movs	r0, #0
 8005492:	bd08      	pop	{r3, pc}

08005494 <USBD_CtlReceiveStatus>:
 8005494:	b508      	push	{r3, lr}
 8005496:	2305      	movs	r3, #5
 8005498:	f8c0 3294 	str.w	r3, [r0, #660]	; 0x294
 800549c:	2300      	movs	r3, #0
 800549e:	461a      	mov	r2, r3
 80054a0:	4619      	mov	r1, r3
 80054a2:	f000 fa0b 	bl	80058bc <USBD_LL_PrepareReceive>
 80054a6:	2000      	movs	r0, #0
 80054a8:	bd08      	pop	{r3, pc}
	...

080054ac <MX_USB_DEVICE_Init>:
 80054ac:	b508      	push	{r3, lr}
 80054ae:	2200      	movs	r2, #0
 80054b0:	490e      	ldr	r1, [pc, #56]	; (80054ec <MX_USB_DEVICE_Init+0x40>)
 80054b2:	480f      	ldr	r0, [pc, #60]	; (80054f0 <MX_USB_DEVICE_Init+0x44>)
 80054b4:	f7ff fc5c 	bl	8004d70 <USBD_Init>
 80054b8:	b108      	cbz	r0, 80054be <MX_USB_DEVICE_Init+0x12>
 80054ba:	f7fb fbeb 	bl	8000c94 <Error_Handler>
 80054be:	490d      	ldr	r1, [pc, #52]	; (80054f4 <MX_USB_DEVICE_Init+0x48>)
 80054c0:	480b      	ldr	r0, [pc, #44]	; (80054f0 <MX_USB_DEVICE_Init+0x44>)
 80054c2:	f7ff fc6a 	bl	8004d9a <USBD_RegisterClass>
 80054c6:	b108      	cbz	r0, 80054cc <MX_USB_DEVICE_Init+0x20>
 80054c8:	f7fb fbe4 	bl	8000c94 <Error_Handler>
 80054cc:	490a      	ldr	r1, [pc, #40]	; (80054f8 <MX_USB_DEVICE_Init+0x4c>)
 80054ce:	4808      	ldr	r0, [pc, #32]	; (80054f0 <MX_USB_DEVICE_Init+0x44>)
 80054d0:	f7ff fc09 	bl	8004ce6 <USBD_CDC_RegisterInterface>
 80054d4:	b108      	cbz	r0, 80054da <MX_USB_DEVICE_Init+0x2e>
 80054d6:	f7fb fbdd 	bl	8000c94 <Error_Handler>
 80054da:	4805      	ldr	r0, [pc, #20]	; (80054f0 <MX_USB_DEVICE_Init+0x44>)
 80054dc:	f7ff fc64 	bl	8004da8 <USBD_Start>
 80054e0:	b118      	cbz	r0, 80054ea <MX_USB_DEVICE_Init+0x3e>
 80054e2:	e8bd 4008 	ldmia.w	sp!, {r3, lr}
 80054e6:	f7fb bbd5 	b.w	8000c94 <Error_Handler>
 80054ea:	bd08      	pop	{r3, pc}
 80054ec:	20000134 	.word	0x20000134
 80054f0:	20000408 	.word	0x20000408
 80054f4:	20000014 	.word	0x20000014
 80054f8:	20000124 	.word	0x20000124

080054fc <CDC_DeInit_FS>:
 80054fc:	2000      	movs	r0, #0
 80054fe:	4770      	bx	lr

08005500 <CDC_Control_FS>:
 8005500:	2820      	cmp	r0, #32
 8005502:	d003      	beq.n	800550c <CDC_Control_FS+0xc>
 8005504:	2821      	cmp	r0, #33	; 0x21
 8005506:	d00b      	beq.n	8005520 <CDC_Control_FS+0x20>
 8005508:	2000      	movs	r0, #0
 800550a:	4770      	bx	lr
 800550c:	680a      	ldr	r2, [r1, #0]
 800550e:	4b0d      	ldr	r3, [pc, #52]	; (8005544 <CDC_Control_FS+0x44>)
 8005510:	601a      	str	r2, [r3, #0]
 8005512:	790a      	ldrb	r2, [r1, #4]
 8005514:	711a      	strb	r2, [r3, #4]
 8005516:	794a      	ldrb	r2, [r1, #5]
 8005518:	715a      	strb	r2, [r3, #5]
 800551a:	798a      	ldrb	r2, [r1, #6]
 800551c:	719a      	strb	r2, [r3, #6]
 800551e:	e7f3      	b.n	8005508 <CDC_Control_FS+0x8>
 8005520:	4b08      	ldr	r3, [pc, #32]	; (8005544 <CDC_Control_FS+0x44>)
 8005522:	681a      	ldr	r2, [r3, #0]
 8005524:	700a      	strb	r2, [r1, #0]
 8005526:	681a      	ldr	r2, [r3, #0]
 8005528:	0a12      	lsrs	r2, r2, #8
 800552a:	704a      	strb	r2, [r1, #1]
 800552c:	885a      	ldrh	r2, [r3, #2]
 800552e:	708a      	strb	r2, [r1, #2]
 8005530:	78da      	ldrb	r2, [r3, #3]
 8005532:	70ca      	strb	r2, [r1, #3]
 8005534:	791a      	ldrb	r2, [r3, #4]
 8005536:	710a      	strb	r2, [r1, #4]
 8005538:	795a      	ldrb	r2, [r3, #5]
 800553a:	714a      	strb	r2, [r1, #5]
 800553c:	799b      	ldrb	r3, [r3, #6]
 800553e:	718b      	strb	r3, [r1, #6]
 8005540:	e7e2      	b.n	8005508 <CDC_Control_FS+0x8>
 8005542:	bf00      	nop
 8005544:	20000e9c 	.word	0x20000e9c

08005548 <CDC_Receive_FS>:
 8005548:	b570      	push	{r4, r5, r6, lr}
 800554a:	4604      	mov	r4, r0
 800554c:	460d      	mov	r5, r1
 800554e:	4e08      	ldr	r6, [pc, #32]	; (8005570 <CDC_Receive_FS+0x28>)
 8005550:	4601      	mov	r1, r0
 8005552:	4630      	mov	r0, r6
 8005554:	f7ff fbd6 	bl	8004d04 <USBD_CDC_SetRxBuffer>
 8005558:	4630      	mov	r0, r6
 800555a:	f7ff fbf2 	bl	8004d42 <USBD_CDC_ReceivePacket>
 800555e:	4b05      	ldr	r3, [pc, #20]	; (8005574 <CDC_Receive_FS+0x2c>)
 8005560:	4621      	mov	r1, r4
 8005562:	682a      	ldr	r2, [r5, #0]
 8005564:	6818      	ldr	r0, [r3, #0]
 8005566:	f7fb f997 	bl	8000898 <ringbuf_memcpy_into>
 800556a:	2000      	movs	r0, #0
 800556c:	bd70      	pop	{r4, r5, r6, pc}
 800556e:	bf00      	nop
 8005570:	20000408 	.word	0x20000408
 8005574:	20000318 	.word	0x20000318

08005578 <CDC_Init_FS>:
 8005578:	b510      	push	{r4, lr}
 800557a:	4c06      	ldr	r4, [pc, #24]	; (8005594 <CDC_Init_FS+0x1c>)
 800557c:	2200      	movs	r2, #0
 800557e:	4620      	mov	r0, r4
 8005580:	4905      	ldr	r1, [pc, #20]	; (8005598 <CDC_Init_FS+0x20>)
 8005582:	f7ff fbb7 	bl	8004cf4 <USBD_CDC_SetTxBuffer>
 8005586:	4620      	mov	r0, r4
 8005588:	4904      	ldr	r1, [pc, #16]	; (800559c <CDC_Init_FS+0x24>)
 800558a:	f7ff fbbb 	bl	8004d04 <USBD_CDC_SetRxBuffer>
 800558e:	2000      	movs	r0, #0
 8005590:	bd10      	pop	{r4, pc}
 8005592:	bf00      	nop
 8005594:	20000408 	.word	0x20000408
 8005598:	20000ab4 	.word	0x20000ab4
 800559c:	200006cc 	.word	0x200006cc

080055a0 <CDC_Transmit_FS>:
 80055a0:	b510      	push	{r4, lr}
 80055a2:	4c09      	ldr	r4, [pc, #36]	; (80055c8 <CDC_Transmit_FS+0x28>)
 80055a4:	460a      	mov	r2, r1
 80055a6:	f8d4 32b8 	ldr.w	r3, [r4, #696]	; 0x2b8
 80055aa:	f8d3 3214 	ldr.w	r3, [r3, #532]	; 0x214
 80055ae:	b943      	cbnz	r3, 80055c2 <CDC_Transmit_FS+0x22>
 80055b0:	4601      	mov	r1, r0
 80055b2:	4620      	mov	r0, r4
 80055b4:	f7ff fb9e 	bl	8004cf4 <USBD_CDC_SetTxBuffer>
 80055b8:	4620      	mov	r0, r4
 80055ba:	e8bd 4010 	ldmia.w	sp!, {r4, lr}
 80055be:	f7ff bba7 	b.w	8004d10 <USBD_CDC_TransmitPacket>
 80055c2:	2001      	movs	r0, #1
 80055c4:	bd10      	pop	{r4, pc}
 80055c6:	bf00      	nop
 80055c8:	20000408 	.word	0x20000408

080055cc <USBD_FS_DeviceDescriptor>:
 80055cc:	2312      	movs	r3, #18
 80055ce:	4801      	ldr	r0, [pc, #4]	; (80055d4 <USBD_FS_DeviceDescriptor+0x8>)
 80055d0:	800b      	strh	r3, [r1, #0]
 80055d2:	4770      	bx	lr
 80055d4:	20000150 	.word	0x20000150

080055d8 <USBD_FS_LangIDStrDescriptor>:
 80055d8:	2304      	movs	r3, #4
 80055da:	4801      	ldr	r0, [pc, #4]	; (80055e0 <USBD_FS_LangIDStrDescriptor+0x8>)
 80055dc:	800b      	strh	r3, [r1, #0]
 80055de:	4770      	bx	lr
 80055e0:	20000164 	.word	0x20000164

080055e4 <IntToUnicode>:
 80055e4:	2300      	movs	r3, #0
 80055e6:	b570      	push	{r4, r5, r6, lr}
 80055e8:	461e      	mov	r6, r3
 80055ea:	1c4d      	adds	r5, r1, #1
 80055ec:	0f04      	lsrs	r4, r0, #28
 80055ee:	f1b0 4f20 	cmp.w	r0, #2684354560	; 0xa0000000
 80055f2:	bf34      	ite	cc
 80055f4:	3430      	addcc	r4, #48	; 0x30
 80055f6:	3437      	addcs	r4, #55	; 0x37
 80055f8:	f801 4013 	strb.w	r4, [r1, r3, lsl #1]
 80055fc:	f805 6013 	strb.w	r6, [r5, r3, lsl #1]
 8005600:	3301      	adds	r3, #1
 8005602:	b2dc      	uxtb	r4, r3
 8005604:	42a2      	cmp	r2, r4
 8005606:	ea4f 1000 	mov.w	r0, r0, lsl #4
 800560a:	d8ef      	bhi.n	80055ec <IntToUnicode+0x8>
 800560c:	bd70      	pop	{r4, r5, r6, pc}
	...

08005610 <USBD_FS_SerialStrDescriptor>:
 8005610:	231a      	movs	r3, #26
 8005612:	b510      	push	{r4, lr}
 8005614:	800b      	strh	r3, [r1, #0]
 8005616:	4b0a      	ldr	r3, [pc, #40]	; (8005640 <USBD_FS_SerialStrDescriptor+0x30>)
 8005618:	f8d3 07e8 	ldr.w	r0, [r3, #2024]	; 0x7e8
 800561c:	f8d3 27f0 	ldr.w	r2, [r3, #2032]	; 0x7f0
 8005620:	1880      	adds	r0, r0, r2
 8005622:	d00a      	beq.n	800563a <USBD_FS_SerialStrDescriptor+0x2a>
 8005624:	f8d3 47ec 	ldr.w	r4, [r3, #2028]	; 0x7ec
 8005628:	4906      	ldr	r1, [pc, #24]	; (8005644 <USBD_FS_SerialStrDescriptor+0x34>)
 800562a:	2208      	movs	r2, #8
 800562c:	f7ff ffda 	bl	80055e4 <IntToUnicode>
 8005630:	2204      	movs	r2, #4
 8005632:	4620      	mov	r0, r4
 8005634:	3110      	adds	r1, #16
 8005636:	f7ff ffd5 	bl	80055e4 <IntToUnicode>
 800563a:	4803      	ldr	r0, [pc, #12]	; (8005648 <USBD_FS_SerialStrDescriptor+0x38>)
 800563c:	bd10      	pop	{r4, pc}
 800563e:	bf00      	nop
 8005640:	1ffff000 	.word	0x1ffff000
 8005644:	2000016a 	.word	0x2000016a
 8005648:	20000168 	.word	0x20000168

0800564c <USBD_FS_ManufacturerStrDescriptor>:
 800564c:	b510      	push	{r4, lr}
 800564e:	4c04      	ldr	r4, [pc, #16]	; (8005660 <USBD_FS_ManufacturerStrDescriptor+0x14>)
 8005650:	460a      	mov	r2, r1
 8005652:	4804      	ldr	r0, [pc, #16]	; (8005664 <USBD_FS_ManufacturerStrDescriptor+0x18>)
 8005654:	4621      	mov	r1, r4
 8005656:	f7ff fecc 	bl	80053f2 <USBD_GetString>
 800565a:	4620      	mov	r0, r4
 800565c:	bd10      	pop	{r4, pc}
 800565e:	bf00      	nop
 8005660:	20000ea4 	.word	0x20000ea4
 8005664:	08007022 	.word	0x08007022

08005668 <USBD_FS_ProductStrDescriptor>:
 8005668:	b510      	push	{r4, lr}
 800566a:	4c04      	ldr	r4, [pc, #16]	; (800567c <USBD_FS_ProductStrDescriptor+0x14>)
 800566c:	460a      	mov	r2, r1
 800566e:	4804      	ldr	r0, [pc, #16]	; (8005680 <USBD_FS_ProductStrDescriptor+0x18>)
 8005670:	4621      	mov	r1, r4
 8005672:	f7ff febe 	bl	80053f2 <USBD_GetString>
 8005676:	4620      	mov	r0, r4
 8005678:	bd10      	pop	{r4, pc}
 800567a:	bf00      	nop
 800567c:	20000ea4 	.word	0x20000ea4
 8005680:	08007035 	.word	0x08007035

08005684 <USBD_FS_ConfigStrDescriptor>:
 8005684:	b510      	push	{r4, lr}
 8005686:	4c04      	ldr	r4, [pc, #16]	; (8005698 <USBD_FS_ConfigStrDescriptor+0x14>)
 8005688:	460a      	mov	r2, r1
 800568a:	4804      	ldr	r0, [pc, #16]	; (800569c <USBD_FS_ConfigStrDescriptor+0x18>)
 800568c:	4621      	mov	r1, r4
 800568e:	f7ff feb0 	bl	80053f2 <USBD_GetString>
 8005692:	4620      	mov	r0, r4
 8005694:	bd10      	pop	{r4, pc}
 8005696:	bf00      	nop
 8005698:	20000ea4 	.word	0x20000ea4
 800569c:	0800704b 	.word	0x0800704b

080056a0 <USBD_FS_InterfaceStrDescriptor>:
 80056a0:	b510      	push	{r4, lr}
 80056a2:	4c04      	ldr	r4, [pc, #16]	; (80056b4 <USBD_FS_InterfaceStrDescriptor+0x14>)
 80056a4:	460a      	mov	r2, r1
 80056a6:	4804      	ldr	r0, [pc, #16]	; (80056b8 <USBD_FS_InterfaceStrDescriptor+0x18>)
 80056a8:	4621      	mov	r1, r4
 80056aa:	f7ff fea2 	bl	80053f2 <USBD_GetString>
 80056ae:	4620      	mov	r0, r4
 80056b0:	bd10      	pop	{r4, pc}
 80056b2:	bf00      	nop
 80056b4:	20000ea4 	.word	0x20000ea4
 80056b8:	08007056 	.word	0x08007056

080056bc <USBD_Get_USB_Status>:
 80056bc:	2803      	cmp	r0, #3
 80056be:	bf9a      	itte	ls
 80056c0:	4b01      	ldrls	r3, [pc, #4]	; (80056c8 <USBD_Get_USB_Status+0xc>)
 80056c2:	5c18      	ldrbls	r0, [r3, r0]
 80056c4:	2002      	movhi	r0, #2
 80056c6:	4770      	bx	lr
 80056c8:	08007064 	.word	0x08007064

080056cc <HAL_PCD_MspInit>:
 80056cc:	b507      	push	{r0, r1, r2, lr}
 80056ce:	4b0e      	ldr	r3, [pc, #56]	; (8005708 <HAL_PCD_MspInit+0x3c>)
 80056d0:	6802      	ldr	r2, [r0, #0]
 80056d2:	429a      	cmp	r2, r3
 80056d4:	d115      	bne.n	8005702 <HAL_PCD_MspInit+0x36>
 80056d6:	f503 33da 	add.w	r3, r3, #111616	; 0x1b400
 80056da:	69da      	ldr	r2, [r3, #28]
 80056dc:	2014      	movs	r0, #20
 80056de:	f442 0200 	orr.w	r2, r2, #8388608	; 0x800000
 80056e2:	61da      	str	r2, [r3, #28]
 80056e4:	2200      	movs	r2, #0
 80056e6:	69db      	ldr	r3, [r3, #28]
 80056e8:	4611      	mov	r1, r2
 80056ea:	f403 0300 	and.w	r3, r3, #8388608	; 0x800000
 80056ee:	9301      	str	r3, [sp, #4]
 80056f0:	9b01      	ldr	r3, [sp, #4]
 80056f2:	f7fb ff7f 	bl	80015f4 <HAL_NVIC_SetPriority>
 80056f6:	2014      	movs	r0, #20
 80056f8:	b003      	add	sp, #12
 80056fa:	f85d eb04 	ldr.w	lr, [sp], #4
 80056fe:	f7fb bfab 	b.w	8001658 <HAL_NVIC_EnableIRQ>
 8005702:	b003      	add	sp, #12
 8005704:	f85d fb04 	ldr.w	pc, [sp], #4
 8005708:	40005c00 	.word	0x40005c00

0800570c <HAL_PCD_SetupStageCallback>:
 800570c:	f500 712c 	add.w	r1, r0, #688	; 0x2b0
 8005710:	f8d0 02ec 	ldr.w	r0, [r0, #748]	; 0x2ec
 8005714:	f7ff bb5f 	b.w	8004dd6 <USBD_LL_SetupStage>

08005718 <HAL_PCD_DataOutStageCallback>:
 8005718:	2328      	movs	r3, #40	; 0x28
 800571a:	fb03 0301 	mla	r3, r3, r1, r0
 800571e:	f8d0 02ec 	ldr.w	r0, [r0, #748]	; 0x2ec
 8005722:	f8d3 217c 	ldr.w	r2, [r3, #380]	; 0x17c
 8005726:	f7ff bb83 	b.w	8004e30 <USBD_LL_DataOutStage>

0800572a <HAL_PCD_DataInStageCallback>:
 800572a:	2328      	movs	r3, #40	; 0x28
 800572c:	fb03 0301 	mla	r3, r3, r1, r0
 8005730:	f8d0 02ec 	ldr.w	r0, [r0, #748]	; 0x2ec
 8005734:	6bda      	ldr	r2, [r3, #60]	; 0x3c
 8005736:	f7ff bbb5 	b.w	8004ea4 <USBD_LL_DataInStage>

0800573a <HAL_PCD_SOFCallback>:
 800573a:	f8d0 02ec 	ldr.w	r0, [r0, #748]	; 0x2ec
 800573e:	f7ff bc49 	b.w	8004fd4 <USBD_LL_SOF>

08005742 <HAL_PCD_ResetCallback>:
 8005742:	6883      	ldr	r3, [r0, #8]
 8005744:	b510      	push	{r4, lr}
 8005746:	2b02      	cmp	r3, #2
 8005748:	4604      	mov	r4, r0
 800574a:	d001      	beq.n	8005750 <HAL_PCD_ResetCallback+0xe>
 800574c:	f7fb faa2 	bl	8000c94 <Error_Handler>
 8005750:	f8d4 02ec 	ldr.w	r0, [r4, #748]	; 0x2ec
 8005754:	2101      	movs	r1, #1
 8005756:	f7ff fc27 	bl	8004fa8 <USBD_LL_SetSpeed>
 800575a:	f8d4 02ec 	ldr.w	r0, [r4, #748]	; 0x2ec
 800575e:	e8bd 4010 	ldmia.w	sp!, {r4, lr}
 8005762:	f7ff bbfa 	b.w	8004f5a <USBD_LL_Reset>
	...

08005768 <HAL_PCD_SuspendCallback>:
 8005768:	b510      	push	{r4, lr}
 800576a:	4604      	mov	r4, r0
 800576c:	f8d0 02ec 	ldr.w	r0, [r0, #748]	; 0x2ec
 8005770:	f7ff fc1d 	bl	8004fae <USBD_LL_Suspend>
 8005774:	69a3      	ldr	r3, [r4, #24]
 8005776:	b123      	cbz	r3, 8005782 <HAL_PCD_SuspendCallback+0x1a>
 8005778:	4a02      	ldr	r2, [pc, #8]	; (8005784 <HAL_PCD_SuspendCallback+0x1c>)
 800577a:	6913      	ldr	r3, [r2, #16]
 800577c:	f043 0306 	orr.w	r3, r3, #6
 8005780:	6113      	str	r3, [r2, #16]
 8005782:	bd10      	pop	{r4, pc}
 8005784:	e000ed00 	.word	0xe000ed00

08005788 <HAL_PCD_ResumeCallback>:
 8005788:	f8d0 02ec 	ldr.w	r0, [r0, #748]	; 0x2ec
 800578c:	f7ff bc18 	b.w	8004fc0 <USBD_LL_Resume>

08005790 <USBD_LL_Init>:
 8005790:	2308      	movs	r3, #8
 8005792:	b510      	push	{r4, lr}
 8005794:	4a1d      	ldr	r2, [pc, #116]	; (800580c <USBD_LL_Init+0x7c>)
 8005796:	4604      	mov	r4, r0
 8005798:	481d      	ldr	r0, [pc, #116]	; (8005810 <USBD_LL_Init+0x80>)
 800579a:	e9c0 2300 	strd	r2, r3, [r0]
 800579e:	2302      	movs	r3, #2
 80057a0:	6083      	str	r3, [r0, #8]
 80057a2:	2300      	movs	r3, #0
 80057a4:	f8c0 42ec 	str.w	r4, [r0, #748]	; 0x2ec
 80057a8:	f8c4 02c0 	str.w	r0, [r4, #704]	; 0x2c0
 80057ac:	e9c0 3306 	strd	r3, r3, [r0, #24]
 80057b0:	6203      	str	r3, [r0, #32]
 80057b2:	f7fc fc1d 	bl	8001ff0 <HAL_PCD_Init>
 80057b6:	b108      	cbz	r0, 80057bc <USBD_LL_Init+0x2c>
 80057b8:	f7fb fa6c 	bl	8000c94 <Error_Handler>
 80057bc:	2200      	movs	r2, #0
 80057be:	2318      	movs	r3, #24
 80057c0:	4611      	mov	r1, r2
 80057c2:	f8d4 02c0 	ldr.w	r0, [r4, #704]	; 0x2c0
 80057c6:	f7fd fa8c 	bl	8002ce2 <HAL_PCDEx_PMAConfig>
 80057ca:	2358      	movs	r3, #88	; 0x58
 80057cc:	2200      	movs	r2, #0
 80057ce:	2180      	movs	r1, #128	; 0x80
 80057d0:	f8d4 02c0 	ldr.w	r0, [r4, #704]	; 0x2c0
 80057d4:	f7fd fa85 	bl	8002ce2 <HAL_PCDEx_PMAConfig>
 80057d8:	23c0      	movs	r3, #192	; 0xc0
 80057da:	2200      	movs	r2, #0
 80057dc:	2181      	movs	r1, #129	; 0x81
 80057de:	f8d4 02c0 	ldr.w	r0, [r4, #704]	; 0x2c0
 80057e2:	f7fd fa7e 	bl	8002ce2 <HAL_PCDEx_PMAConfig>
 80057e6:	f44f 7388 	mov.w	r3, #272	; 0x110
 80057ea:	2200      	movs	r2, #0
 80057ec:	2101      	movs	r1, #1
 80057ee:	f8d4 02c0 	ldr.w	r0, [r4, #704]	; 0x2c0
 80057f2:	f7fd fa76 	bl	8002ce2 <HAL_PCDEx_PMAConfig>
 80057f6:	f44f 7380 	mov.w	r3, #256	; 0x100
 80057fa:	2200      	movs	r2, #0
 80057fc:	2182      	movs	r1, #130	; 0x82
 80057fe:	f8d4 02c0 	ldr.w	r0, [r4, #704]	; 0x2c0
 8005802:	f7fd fa6e 	bl	8002ce2 <HAL_PCDEx_PMAConfig>
 8005806:	2000      	movs	r0, #0
 8005808:	bd10      	pop	{r4, pc}
 800580a:	bf00      	nop
 800580c:	40005c00 	.word	0x40005c00
 8005810:	200010a4 	.word	0x200010a4

08005814 <USBD_LL_Start>:
 8005814:	b508      	push	{r3, lr}
 8005816:	f8d0 02c0 	ldr.w	r0, [r0, #704]	; 0x2c0
 800581a:	f7fc fc61 	bl	80020e0 <HAL_PCD_Start>
 800581e:	e8bd 4008 	ldmia.w	sp!, {r3, lr}
 8005822:	f7ff bf4b 	b.w	80056bc <USBD_Get_USB_Status>

08005826 <USBD_LL_OpenEP>:
 8005826:	b510      	push	{r4, lr}
 8005828:	4614      	mov	r4, r2
 800582a:	f8d0 02c0 	ldr.w	r0, [r0, #704]	; 0x2c0
 800582e:	461a      	mov	r2, r3
 8005830:	4623      	mov	r3, r4
 8005832:	f7fd f961 	bl	8002af8 <HAL_PCD_EP_Open>
 8005836:	e8bd 4010 	ldmia.w	sp!, {r4, lr}
 800583a:	f7ff bf3f 	b.w	80056bc <USBD_Get_USB_Status>

0800583e <USBD_LL_CloseEP>:
 800583e:	b508      	push	{r3, lr}
 8005840:	f8d0 02c0 	ldr.w	r0, [r0, #704]	; 0x2c0
 8005844:	f7fd f987 	bl	8002b56 <HAL_PCD_EP_Close>
 8005848:	e8bd 4008 	ldmia.w	sp!, {r3, lr}
 800584c:	f7ff bf36 	b.w	80056bc <USBD_Get_USB_Status>

08005850 <USBD_LL_StallEP>:
 8005850:	b508      	push	{r3, lr}
 8005852:	f8d0 02c0 	ldr.w	r0, [r0, #704]	; 0x2c0
 8005856:	f7fd f9df 	bl	8002c18 <HAL_PCD_EP_SetStall>
 800585a:	e8bd 4008 	ldmia.w	sp!, {r3, lr}
 800585e:	f7ff bf2d 	b.w	80056bc <USBD_Get_USB_Status>

08005862 <USBD_LL_ClearStallEP>:
 8005862:	b508      	push	{r3, lr}
 8005864:	f8d0 02c0 	ldr.w	r0, [r0, #704]	; 0x2c0
 8005868:	f7fd fa0a 	bl	8002c80 <HAL_PCD_EP_ClrStall>
 800586c:	e8bd 4008 	ldmia.w	sp!, {r3, lr}
 8005870:	f7ff bf24 	b.w	80056bc <USBD_Get_USB_Status>

08005874 <USBD_LL_IsStallEP>:
 8005874:	2228      	movs	r2, #40	; 0x28
 8005876:	f011 0f80 	tst.w	r1, #128	; 0x80
 800587a:	f8d0 32c0 	ldr.w	r3, [r0, #704]	; 0x2c0
 800587e:	bf1b      	ittet	ne
 8005880:	f001 017f 	andne.w	r1, r1, #127	; 0x7f
 8005884:	fb01 2102 	mlane	r1, r1, r2, r2
 8005888:	fb02 3101 	mlaeq	r1, r2, r1, r3
 800588c:	185b      	addne	r3, r3, r1
 800588e:	bf14      	ite	ne
 8005890:	7898      	ldrbne	r0, [r3, #2]
 8005892:	f891 016a 	ldrbeq.w	r0, [r1, #362]	; 0x16a
 8005896:	4770      	bx	lr

08005898 <USBD_LL_SetUSBAddress>:
 8005898:	b508      	push	{r3, lr}
 800589a:	f8d0 02c0 	ldr.w	r0, [r0, #704]	; 0x2c0
 800589e:	f7fc fc38 	bl	8002112 <HAL_PCD_SetAddress>
 80058a2:	e8bd 4008 	ldmia.w	sp!, {r3, lr}
 80058a6:	f7ff bf09 	b.w	80056bc <USBD_Get_USB_Status>

080058aa <USBD_LL_Transmit>:
 80058aa:	b508      	push	{r3, lr}
 80058ac:	f8d0 02c0 	ldr.w	r0, [r0, #704]	; 0x2c0
 80058b0:	f7fd f998 	bl	8002be4 <HAL_PCD_EP_Transmit>
 80058b4:	e8bd 4008 	ldmia.w	sp!, {r3, lr}
 80058b8:	f7ff bf00 	b.w	80056bc <USBD_Get_USB_Status>

080058bc <USBD_LL_PrepareReceive>:
 80058bc:	b508      	push	{r3, lr}
 80058be:	f8d0 02c0 	ldr.w	r0, [r0, #704]	; 0x2c0
 80058c2:	f7fd f970 	bl	8002ba6 <HAL_PCD_EP_Receive>
 80058c6:	e8bd 4008 	ldmia.w	sp!, {r3, lr}
 80058ca:	f7ff bef7 	b.w	80056bc <USBD_Get_USB_Status>

080058ce <USBD_LL_GetRxDataSize>:
 80058ce:	f8d0 02c0 	ldr.w	r0, [r0, #704]	; 0x2c0
 80058d2:	f7fd b97f 	b.w	8002bd4 <HAL_PCD_EP_GetRxCount>
	...

080058d8 <USBD_static_malloc>:
 80058d8:	4800      	ldr	r0, [pc, #0]	; (80058dc <USBD_static_malloc+0x4>)
 80058da:	4770      	bx	lr
 80058dc:	20001394 	.word	0x20001394

080058e0 <USBD_static_free>:
 80058e0:	4770      	bx	lr

080058e2 <HAL_PCDEx_SetConnectionState>:
 80058e2:	4770      	bx	lr

080058e4 <_ZdlPvj>:
 80058e4:	f000 b81a 	b.w	800591c <_ZdlPv>

080058e8 <_Znwj>:
 80058e8:	2801      	cmp	r0, #1
 80058ea:	bf38      	it	cc
 80058ec:	2001      	movcc	r0, #1
 80058ee:	b510      	push	{r4, lr}
 80058f0:	4604      	mov	r4, r0
 80058f2:	4620      	mov	r0, r4
 80058f4:	f000 f87e 	bl	80059f4 <malloc>
 80058f8:	b930      	cbnz	r0, 8005908 <_Znwj+0x20>
 80058fa:	f000 f811 	bl	8005920 <_ZSt15get_new_handlerv>
 80058fe:	b908      	cbnz	r0, 8005904 <_Znwj+0x1c>
 8005900:	f000 f816 	bl	8005930 <abort>
 8005904:	4780      	blx	r0
 8005906:	e7f4      	b.n	80058f2 <_Znwj+0xa>
 8005908:	bd10      	pop	{r4, pc}

0800590a <_ZSt17__throw_bad_allocv>:
 800590a:	b508      	push	{r3, lr}
 800590c:	f000 f810 	bl	8005930 <abort>

08005910 <_ZSt19__throw_logic_errorPKc>:
 8005910:	b508      	push	{r3, lr}
 8005912:	f000 f80d 	bl	8005930 <abort>

08005916 <_ZSt20__throw_length_errorPKc>:
 8005916:	b508      	push	{r3, lr}
 8005918:	f000 f80a 	bl	8005930 <abort>

0800591c <_ZdlPv>:
 800591c:	f000 b872 	b.w	8005a04 <free>

08005920 <_ZSt15get_new_handlerv>:
 8005920:	4b02      	ldr	r3, [pc, #8]	; (800592c <_ZSt15get_new_handlerv+0xc>)
 8005922:	6818      	ldr	r0, [r3, #0]
 8005924:	f3bf 8f5b 	dmb	ish
 8005928:	4770      	bx	lr
 800592a:	bf00      	nop
 800592c:	200015b4 	.word	0x200015b4

08005930 <abort>:
 8005930:	2006      	movs	r0, #6
 8005932:	b508      	push	{r3, lr}
 8005934:	f000 fc96 	bl	8006264 <raise>
 8005938:	2001      	movs	r0, #1
 800593a:	f7fb fd19 	bl	8001370 <_exit>
	...

08005940 <__assert_func>:
 8005940:	b51f      	push	{r0, r1, r2, r3, r4, lr}
 8005942:	4614      	mov	r4, r2
 8005944:	461a      	mov	r2, r3
 8005946:	4b09      	ldr	r3, [pc, #36]	; (800596c <__assert_func+0x2c>)
 8005948:	4605      	mov	r5, r0
 800594a:	681b      	ldr	r3, [r3, #0]
 800594c:	68d8      	ldr	r0, [r3, #12]
 800594e:	b14c      	cbz	r4, 8005964 <__assert_func+0x24>
 8005950:	4b07      	ldr	r3, [pc, #28]	; (8005970 <__assert_func+0x30>)
 8005952:	e9cd 3401 	strd	r3, r4, [sp, #4]
 8005956:	9100      	str	r1, [sp, #0]
 8005958:	462b      	mov	r3, r5
 800595a:	4906      	ldr	r1, [pc, #24]	; (8005974 <__assert_func+0x34>)
 800595c:	f000 f814 	bl	8005988 <fiprintf>
 8005960:	f7ff ffe6 	bl	8005930 <abort>
 8005964:	4b04      	ldr	r3, [pc, #16]	; (8005978 <__assert_func+0x38>)
 8005966:	461c      	mov	r4, r3
 8005968:	e7f3      	b.n	8005952 <__assert_func+0x12>
 800596a:	bf00      	nop
 800596c:	20000184 	.word	0x20000184
 8005970:	08007068 	.word	0x08007068
 8005974:	08007075 	.word	0x08007075
 8005978:	08006ee4 	.word	0x08006ee4

0800597c <__errno>:
 800597c:	4b01      	ldr	r3, [pc, #4]	; (8005984 <__errno+0x8>)
 800597e:	6818      	ldr	r0, [r3, #0]
 8005980:	4770      	bx	lr
 8005982:	bf00      	nop
 8005984:	20000184 	.word	0x20000184

08005988 <fiprintf>:
 8005988:	b40e      	push	{r1, r2, r3}
 800598a:	b503      	push	{r0, r1, lr}
 800598c:	4601      	mov	r1, r0
 800598e:	ab03      	add	r3, sp, #12
 8005990:	4805      	ldr	r0, [pc, #20]	; (80059a8 <fiprintf+0x20>)
 8005992:	f853 2b04 	ldr.w	r2, [r3], #4
 8005996:	6800      	ldr	r0, [r0, #0]
 8005998:	9301      	str	r3, [sp, #4]
 800599a:	f000 f965 	bl	8005c68 <_vfiprintf_r>
 800599e:	b002      	add	sp, #8
 80059a0:	f85d eb04 	ldr.w	lr, [sp], #4
 80059a4:	b003      	add	sp, #12
 80059a6:	4770      	bx	lr
 80059a8:	20000184 	.word	0x20000184

080059ac <__libc_init_array>:
 80059ac:	b570      	push	{r4, r5, r6, lr}
 80059ae:	2600      	movs	r6, #0
 80059b0:	4d0c      	ldr	r5, [pc, #48]	; (80059e4 <__libc_init_array+0x38>)
 80059b2:	4c0d      	ldr	r4, [pc, #52]	; (80059e8 <__libc_init_array+0x3c>)
 80059b4:	1b64      	subs	r4, r4, r5
 80059b6:	10a4      	asrs	r4, r4, #2
 80059b8:	42a6      	cmp	r6, r4
 80059ba:	d109      	bne.n	80059d0 <__libc_init_array+0x24>
 80059bc:	f001 f9f6 	bl	8006dac <_init>
 80059c0:	2600      	movs	r6, #0
 80059c2:	4d0a      	ldr	r5, [pc, #40]	; (80059ec <__libc_init_array+0x40>)
 80059c4:	4c0a      	ldr	r4, [pc, #40]	; (80059f0 <__libc_init_array+0x44>)
 80059c6:	1b64      	subs	r4, r4, r5
 80059c8:	10a4      	asrs	r4, r4, #2
 80059ca:	42a6      	cmp	r6, r4
 80059cc:	d105      	bne.n	80059da <__libc_init_array+0x2e>
 80059ce:	bd70      	pop	{r4, r5, r6, pc}
 80059d0:	f855 3b04 	ldr.w	r3, [r5], #4
 80059d4:	4798      	blx	r3
 80059d6:	3601      	adds	r6, #1
 80059d8:	e7ee      	b.n	80059b8 <__libc_init_array+0xc>
 80059da:	f855 3b04 	ldr.w	r3, [r5], #4
 80059de:	4798      	blx	r3
 80059e0:	3601      	adds	r6, #1
 80059e2:	e7f2      	b.n	80059ca <__libc_init_array+0x1e>
 80059e4:	0800713c 	.word	0x0800713c
 80059e8:	0800713c 	.word	0x0800713c
 80059ec:	0800713c 	.word	0x0800713c
 80059f0:	08007144 	.word	0x08007144

080059f4 <malloc>:
 80059f4:	4b02      	ldr	r3, [pc, #8]	; (8005a00 <malloc+0xc>)
 80059f6:	4601      	mov	r1, r0
 80059f8:	6818      	ldr	r0, [r3, #0]
 80059fa:	f000 b899 	b.w	8005b30 <_malloc_r>
 80059fe:	bf00      	nop
 8005a00:	20000184 	.word	0x20000184

08005a04 <free>:
 8005a04:	4b02      	ldr	r3, [pc, #8]	; (8005a10 <free+0xc>)
 8005a06:	4601      	mov	r1, r0
 8005a08:	6818      	ldr	r0, [r3, #0]
 8005a0a:	f000 b829 	b.w	8005a60 <_free_r>
 8005a0e:	bf00      	nop
 8005a10:	20000184 	.word	0x20000184

08005a14 <memcmp>:
 8005a14:	b510      	push	{r4, lr}
 8005a16:	3901      	subs	r1, #1
 8005a18:	4402      	add	r2, r0
 8005a1a:	4290      	cmp	r0, r2
 8005a1c:	d101      	bne.n	8005a22 <memcmp+0xe>
 8005a1e:	2000      	movs	r0, #0
 8005a20:	e005      	b.n	8005a2e <memcmp+0x1a>
 8005a22:	7803      	ldrb	r3, [r0, #0]
 8005a24:	f811 4f01 	ldrb.w	r4, [r1, #1]!
 8005a28:	42a3      	cmp	r3, r4
 8005a2a:	d001      	beq.n	8005a30 <memcmp+0x1c>
 8005a2c:	1b18      	subs	r0, r3, r4
 8005a2e:	bd10      	pop	{r4, pc}
 8005a30:	3001      	adds	r0, #1
 8005a32:	e7f2      	b.n	8005a1a <memcmp+0x6>

08005a34 <memcpy>:
 8005a34:	440a      	add	r2, r1
 8005a36:	4291      	cmp	r1, r2
 8005a38:	f100 33ff 	add.w	r3, r0, #4294967295
 8005a3c:	d100      	bne.n	8005a40 <memcpy+0xc>
 8005a3e:	4770      	bx	lr
 8005a40:	b510      	push	{r4, lr}
 8005a42:	f811 4b01 	ldrb.w	r4, [r1], #1
 8005a46:	4291      	cmp	r1, r2
 8005a48:	f803 4f01 	strb.w	r4, [r3, #1]!
 8005a4c:	d1f9      	bne.n	8005a42 <memcpy+0xe>
 8005a4e:	bd10      	pop	{r4, pc}

08005a50 <memset>:
 8005a50:	4603      	mov	r3, r0
 8005a52:	4402      	add	r2, r0
 8005a54:	4293      	cmp	r3, r2
 8005a56:	d100      	bne.n	8005a5a <memset+0xa>
 8005a58:	4770      	bx	lr
 8005a5a:	f803 1b01 	strb.w	r1, [r3], #1
 8005a5e:	e7f9      	b.n	8005a54 <memset+0x4>

08005a60 <_free_r>:
 8005a60:	b538      	push	{r3, r4, r5, lr}
 8005a62:	4605      	mov	r5, r0
 8005a64:	2900      	cmp	r1, #0
 8005a66:	d040      	beq.n	8005aea <_free_r+0x8a>
 8005a68:	f851 3c04 	ldr.w	r3, [r1, #-4]
 8005a6c:	1f0c      	subs	r4, r1, #4
 8005a6e:	2b00      	cmp	r3, #0
 8005a70:	bfb8      	it	lt
 8005a72:	18e4      	addlt	r4, r4, r3
 8005a74:	f000 ff62 	bl	800693c <__malloc_lock>
 8005a78:	4a1c      	ldr	r2, [pc, #112]	; (8005aec <_free_r+0x8c>)
 8005a7a:	6813      	ldr	r3, [r2, #0]
 8005a7c:	b933      	cbnz	r3, 8005a8c <_free_r+0x2c>
 8005a7e:	6063      	str	r3, [r4, #4]
 8005a80:	6014      	str	r4, [r2, #0]
 8005a82:	4628      	mov	r0, r5
 8005a84:	e8bd 4038 	ldmia.w	sp!, {r3, r4, r5, lr}
 8005a88:	f000 bf5e 	b.w	8006948 <__malloc_unlock>
 8005a8c:	42a3      	cmp	r3, r4
 8005a8e:	d908      	bls.n	8005aa2 <_free_r+0x42>
 8005a90:	6820      	ldr	r0, [r4, #0]
 8005a92:	1821      	adds	r1, r4, r0
 8005a94:	428b      	cmp	r3, r1
 8005a96:	bf01      	itttt	eq
 8005a98:	6819      	ldreq	r1, [r3, #0]
 8005a9a:	685b      	ldreq	r3, [r3, #4]
 8005a9c:	1809      	addeq	r1, r1, r0
 8005a9e:	6021      	streq	r1, [r4, #0]
 8005aa0:	e7ed      	b.n	8005a7e <_free_r+0x1e>
 8005aa2:	461a      	mov	r2, r3
 8005aa4:	685b      	ldr	r3, [r3, #4]
 8005aa6:	b10b      	cbz	r3, 8005aac <_free_r+0x4c>
 8005aa8:	42a3      	cmp	r3, r4
 8005aaa:	d9fa      	bls.n	8005aa2 <_free_r+0x42>
 8005aac:	6811      	ldr	r1, [r2, #0]
 8005aae:	1850      	adds	r0, r2, r1
 8005ab0:	42a0      	cmp	r0, r4
 8005ab2:	d10b      	bne.n	8005acc <_free_r+0x6c>
 8005ab4:	6820      	ldr	r0, [r4, #0]
 8005ab6:	4401      	add	r1, r0
 8005ab8:	1850      	adds	r0, r2, r1
 8005aba:	4283      	cmp	r3, r0
 8005abc:	6011      	str	r1, [r2, #0]
 8005abe:	d1e0      	bne.n	8005a82 <_free_r+0x22>
 8005ac0:	6818      	ldr	r0, [r3, #0]
 8005ac2:	685b      	ldr	r3, [r3, #4]
 8005ac4:	4401      	add	r1, r0
 8005ac6:	6011      	str	r1, [r2, #0]
 8005ac8:	6053      	str	r3, [r2, #4]
 8005aca:	e7da      	b.n	8005a82 <_free_r+0x22>
 8005acc:	d902      	bls.n	8005ad4 <_free_r+0x74>
 8005ace:	230c      	movs	r3, #12
 8005ad0:	602b      	str	r3, [r5, #0]
 8005ad2:	e7d6      	b.n	8005a82 <_free_r+0x22>
 8005ad4:	6820      	ldr	r0, [r4, #0]
 8005ad6:	1821      	adds	r1, r4, r0
 8005ad8:	428b      	cmp	r3, r1
 8005ada:	bf01      	itttt	eq
 8005adc:	6819      	ldreq	r1, [r3, #0]
 8005ade:	685b      	ldreq	r3, [r3, #4]
 8005ae0:	1809      	addeq	r1, r1, r0
 8005ae2:	6021      	streq	r1, [r4, #0]
 8005ae4:	6063      	str	r3, [r4, #4]
 8005ae6:	6054      	str	r4, [r2, #4]
 8005ae8:	e7cb      	b.n	8005a82 <_free_r+0x22>
 8005aea:	bd38      	pop	{r3, r4, r5, pc}
 8005aec:	200015b8 	.word	0x200015b8

08005af0 <sbrk_aligned>:
 8005af0:	b570      	push	{r4, r5, r6, lr}
 8005af2:	4e0e      	ldr	r6, [pc, #56]	; (8005b2c <sbrk_aligned+0x3c>)
 8005af4:	460c      	mov	r4, r1
 8005af6:	6831      	ldr	r1, [r6, #0]
 8005af8:	4605      	mov	r5, r0
 8005afa:	b911      	cbnz	r1, 8005b02 <sbrk_aligned+0x12>
 8005afc:	f000 fb7a 	bl	80061f4 <_sbrk_r>
 8005b00:	6030      	str	r0, [r6, #0]
 8005b02:	4621      	mov	r1, r4
 8005b04:	4628      	mov	r0, r5
 8005b06:	f000 fb75 	bl	80061f4 <_sbrk_r>
 8005b0a:	1c43      	adds	r3, r0, #1
 8005b0c:	d00a      	beq.n	8005b24 <sbrk_aligned+0x34>
 8005b0e:	1cc4      	adds	r4, r0, #3
 8005b10:	f024 0403 	bic.w	r4, r4, #3
 8005b14:	42a0      	cmp	r0, r4
 8005b16:	d007      	beq.n	8005b28 <sbrk_aligned+0x38>
 8005b18:	1a21      	subs	r1, r4, r0
 8005b1a:	4628      	mov	r0, r5
 8005b1c:	f000 fb6a 	bl	80061f4 <_sbrk_r>
 8005b20:	3001      	adds	r0, #1
 8005b22:	d101      	bne.n	8005b28 <sbrk_aligned+0x38>
 8005b24:	f04f 34ff 	mov.w	r4, #4294967295
 8005b28:	4620      	mov	r0, r4
 8005b2a:	bd70      	pop	{r4, r5, r6, pc}
 8005b2c:	200015bc 	.word	0x200015bc

08005b30 <_malloc_r>:
 8005b30:	e92d 41f0 	stmdb	sp!, {r4, r5, r6, r7, r8, lr}
 8005b34:	1ccd      	adds	r5, r1, #3
 8005b36:	f025 0503 	bic.w	r5, r5, #3
 8005b3a:	3508      	adds	r5, #8
 8005b3c:	2d0c      	cmp	r5, #12
 8005b3e:	bf38      	it	cc
 8005b40:	250c      	movcc	r5, #12
 8005b42:	2d00      	cmp	r5, #0
 8005b44:	4607      	mov	r7, r0
 8005b46:	db01      	blt.n	8005b4c <_malloc_r+0x1c>
 8005b48:	42a9      	cmp	r1, r5
 8005b4a:	d905      	bls.n	8005b58 <_malloc_r+0x28>
 8005b4c:	230c      	movs	r3, #12
 8005b4e:	2600      	movs	r6, #0
 8005b50:	603b      	str	r3, [r7, #0]
 8005b52:	4630      	mov	r0, r6
 8005b54:	e8bd 81f0 	ldmia.w	sp!, {r4, r5, r6, r7, r8, pc}
 8005b58:	4e2e      	ldr	r6, [pc, #184]	; (8005c14 <_malloc_r+0xe4>)
 8005b5a:	f000 feef 	bl	800693c <__malloc_lock>
 8005b5e:	6833      	ldr	r3, [r6, #0]
 8005b60:	461c      	mov	r4, r3
 8005b62:	bb34      	cbnz	r4, 8005bb2 <_malloc_r+0x82>
 8005b64:	4629      	mov	r1, r5
 8005b66:	4638      	mov	r0, r7
 8005b68:	f7ff ffc2 	bl	8005af0 <sbrk_aligned>
 8005b6c:	1c43      	adds	r3, r0, #1
 8005b6e:	4604      	mov	r4, r0
 8005b70:	d14d      	bne.n	8005c0e <_malloc_r+0xde>
 8005b72:	6834      	ldr	r4, [r6, #0]
 8005b74:	4626      	mov	r6, r4
 8005b76:	2e00      	cmp	r6, #0
 8005b78:	d140      	bne.n	8005bfc <_malloc_r+0xcc>
 8005b7a:	6823      	ldr	r3, [r4, #0]
 8005b7c:	4631      	mov	r1, r6
 8005b7e:	4638      	mov	r0, r7
 8005b80:	eb04 0803 	add.w	r8, r4, r3
 8005b84:	f000 fb36 	bl	80061f4 <_sbrk_r>
 8005b88:	4580      	cmp	r8, r0
 8005b8a:	d13a      	bne.n	8005c02 <_malloc_r+0xd2>
 8005b8c:	6821      	ldr	r1, [r4, #0]
 8005b8e:	3503      	adds	r5, #3
 8005b90:	1a6d      	subs	r5, r5, r1
 8005b92:	f025 0503 	bic.w	r5, r5, #3
 8005b96:	3508      	adds	r5, #8
 8005b98:	2d0c      	cmp	r5, #12
 8005b9a:	bf38      	it	cc
 8005b9c:	250c      	movcc	r5, #12
 8005b9e:	4638      	mov	r0, r7
 8005ba0:	4629      	mov	r1, r5
 8005ba2:	f7ff ffa5 	bl	8005af0 <sbrk_aligned>
 8005ba6:	3001      	adds	r0, #1
 8005ba8:	d02b      	beq.n	8005c02 <_malloc_r+0xd2>
 8005baa:	6823      	ldr	r3, [r4, #0]
 8005bac:	442b      	add	r3, r5
 8005bae:	6023      	str	r3, [r4, #0]
 8005bb0:	e00e      	b.n	8005bd0 <_malloc_r+0xa0>
 8005bb2:	6822      	ldr	r2, [r4, #0]
 8005bb4:	1b52      	subs	r2, r2, r5
 8005bb6:	d41e      	bmi.n	8005bf6 <_malloc_r+0xc6>
 8005bb8:	2a0b      	cmp	r2, #11
 8005bba:	d916      	bls.n	8005bea <_malloc_r+0xba>
 8005bbc:	1961      	adds	r1, r4, r5
 8005bbe:	42a3      	cmp	r3, r4
 8005bc0:	6025      	str	r5, [r4, #0]
 8005bc2:	bf18      	it	ne
 8005bc4:	6059      	strne	r1, [r3, #4]
 8005bc6:	6863      	ldr	r3, [r4, #4]
 8005bc8:	bf08      	it	eq
 8005bca:	6031      	streq	r1, [r6, #0]
 8005bcc:	5162      	str	r2, [r4, r5]
 8005bce:	604b      	str	r3, [r1, #4]
 8005bd0:	4638      	mov	r0, r7
 8005bd2:	f104 060b 	add.w	r6, r4, #11
 8005bd6:	f000 feb7 	bl	8006948 <__malloc_unlock>
 8005bda:	f026 0607 	bic.w	r6, r6, #7
 8005bde:	1d23      	adds	r3, r4, #4
 8005be0:	1af2      	subs	r2, r6, r3
 8005be2:	d0b6      	beq.n	8005b52 <_malloc_r+0x22>
 8005be4:	1b9b      	subs	r3, r3, r6
 8005be6:	50a3      	str	r3, [r4, r2]
 8005be8:	e7b3      	b.n	8005b52 <_malloc_r+0x22>
 8005bea:	6862      	ldr	r2, [r4, #4]
 8005bec:	42a3      	cmp	r3, r4
 8005bee:	bf0c      	ite	eq
 8005bf0:	6032      	streq	r2, [r6, #0]
 8005bf2:	605a      	strne	r2, [r3, #4]
 8005bf4:	e7ec      	b.n	8005bd0 <_malloc_r+0xa0>
 8005bf6:	4623      	mov	r3, r4
 8005bf8:	6864      	ldr	r4, [r4, #4]
 8005bfa:	e7b2      	b.n	8005b62 <_malloc_r+0x32>
 8005bfc:	4634      	mov	r4, r6
 8005bfe:	6876      	ldr	r6, [r6, #4]
 8005c00:	e7b9      	b.n	8005b76 <_malloc_r+0x46>
 8005c02:	230c      	movs	r3, #12
 8005c04:	4638      	mov	r0, r7
 8005c06:	603b      	str	r3, [r7, #0]
 8005c08:	f000 fe9e 	bl	8006948 <__malloc_unlock>
 8005c0c:	e7a1      	b.n	8005b52 <_malloc_r+0x22>
 8005c0e:	6025      	str	r5, [r4, #0]
 8005c10:	e7de      	b.n	8005bd0 <_malloc_r+0xa0>
 8005c12:	bf00      	nop
 8005c14:	200015b8 	.word	0x200015b8

08005c18 <__sfputc_r>:
 8005c18:	6893      	ldr	r3, [r2, #8]
 8005c1a:	b410      	push	{r4}
 8005c1c:	3b01      	subs	r3, #1
 8005c1e:	2b00      	cmp	r3, #0
 8005c20:	6093      	str	r3, [r2, #8]
 8005c22:	da07      	bge.n	8005c34 <__sfputc_r+0x1c>
 8005c24:	6994      	ldr	r4, [r2, #24]
 8005c26:	42a3      	cmp	r3, r4
 8005c28:	db01      	blt.n	8005c2e <__sfputc_r+0x16>
 8005c2a:	290a      	cmp	r1, #10
 8005c2c:	d102      	bne.n	8005c34 <__sfputc_r+0x1c>
 8005c2e:	bc10      	pop	{r4}
 8005c30:	f000 bb6e 	b.w	8006310 <__swbuf_r>
 8005c34:	6813      	ldr	r3, [r2, #0]
 8005c36:	1c58      	adds	r0, r3, #1
 8005c38:	6010      	str	r0, [r2, #0]
 8005c3a:	7019      	strb	r1, [r3, #0]
 8005c3c:	4608      	mov	r0, r1
 8005c3e:	bc10      	pop	{r4}
 8005c40:	4770      	bx	lr

08005c42 <__sfputs_r>:
 8005c42:	b5f8      	push	{r3, r4, r5, r6, r7, lr}
 8005c44:	4606      	mov	r6, r0
 8005c46:	460f      	mov	r7, r1
 8005c48:	4614      	mov	r4, r2
 8005c4a:	18d5      	adds	r5, r2, r3
 8005c4c:	42ac      	cmp	r4, r5
 8005c4e:	d101      	bne.n	8005c54 <__sfputs_r+0x12>
 8005c50:	2000      	movs	r0, #0
 8005c52:	e007      	b.n	8005c64 <__sfputs_r+0x22>
 8005c54:	463a      	mov	r2, r7
 8005c56:	4630      	mov	r0, r6
 8005c58:	f814 1b01 	ldrb.w	r1, [r4], #1
 8005c5c:	f7ff ffdc 	bl	8005c18 <__sfputc_r>
 8005c60:	1c43      	adds	r3, r0, #1
 8005c62:	d1f3      	bne.n	8005c4c <__sfputs_r+0xa>
 8005c64:	bdf8      	pop	{r3, r4, r5, r6, r7, pc}
	...

08005c68 <_vfiprintf_r>:
 8005c68:	e92d 4ff0 	stmdb	sp!, {r4, r5, r6, r7, r8, r9, sl, fp, lr}
 8005c6c:	460d      	mov	r5, r1
 8005c6e:	4614      	mov	r4, r2
 8005c70:	4698      	mov	r8, r3
 8005c72:	4606      	mov	r6, r0
 8005c74:	b09d      	sub	sp, #116	; 0x74
 8005c76:	b118      	cbz	r0, 8005c80 <_vfiprintf_r+0x18>
 8005c78:	6983      	ldr	r3, [r0, #24]
 8005c7a:	b90b      	cbnz	r3, 8005c80 <_vfiprintf_r+0x18>
 8005c7c:	f000 fd30 	bl	80066e0 <__sinit>
 8005c80:	4b89      	ldr	r3, [pc, #548]	; (8005ea8 <_vfiprintf_r+0x240>)
 8005c82:	429d      	cmp	r5, r3
 8005c84:	d11b      	bne.n	8005cbe <_vfiprintf_r+0x56>
 8005c86:	6875      	ldr	r5, [r6, #4]
 8005c88:	6e6b      	ldr	r3, [r5, #100]	; 0x64
 8005c8a:	07d9      	lsls	r1, r3, #31
 8005c8c:	d405      	bmi.n	8005c9a <_vfiprintf_r+0x32>
 8005c8e:	89ab      	ldrh	r3, [r5, #12]
 8005c90:	059a      	lsls	r2, r3, #22
 8005c92:	d402      	bmi.n	8005c9a <_vfiprintf_r+0x32>
 8005c94:	6da8      	ldr	r0, [r5, #88]	; 0x58
 8005c96:	f000 fdc1 	bl	800681c <__retarget_lock_acquire_recursive>
 8005c9a:	89ab      	ldrh	r3, [r5, #12]
 8005c9c:	071b      	lsls	r3, r3, #28
 8005c9e:	d501      	bpl.n	8005ca4 <_vfiprintf_r+0x3c>
 8005ca0:	692b      	ldr	r3, [r5, #16]
 8005ca2:	b9eb      	cbnz	r3, 8005ce0 <_vfiprintf_r+0x78>
 8005ca4:	4629      	mov	r1, r5
 8005ca6:	4630      	mov	r0, r6
 8005ca8:	f000 fb96 	bl	80063d8 <__swsetup_r>
 8005cac:	b1c0      	cbz	r0, 8005ce0 <_vfiprintf_r+0x78>
 8005cae:	6e6b      	ldr	r3, [r5, #100]	; 0x64
 8005cb0:	07dc      	lsls	r4, r3, #31
 8005cb2:	d50e      	bpl.n	8005cd2 <_vfiprintf_r+0x6a>
 8005cb4:	f04f 30ff 	mov.w	r0, #4294967295
 8005cb8:	b01d      	add	sp, #116	; 0x74
 8005cba:	e8bd 8ff0 	ldmia.w	sp!, {r4, r5, r6, r7, r8, r9, sl, fp, pc}
 8005cbe:	4b7b      	ldr	r3, [pc, #492]	; (8005eac <_vfiprintf_r+0x244>)
 8005cc0:	429d      	cmp	r5, r3
 8005cc2:	d101      	bne.n	8005cc8 <_vfiprintf_r+0x60>
 8005cc4:	68b5      	ldr	r5, [r6, #8]
 8005cc6:	e7df      	b.n	8005c88 <_vfiprintf_r+0x20>
 8005cc8:	4b79      	ldr	r3, [pc, #484]	; (8005eb0 <_vfiprintf_r+0x248>)
 8005cca:	429d      	cmp	r5, r3
 8005ccc:	bf08      	it	eq
 8005cce:	68f5      	ldreq	r5, [r6, #12]
 8005cd0:	e7da      	b.n	8005c88 <_vfiprintf_r+0x20>
 8005cd2:	89ab      	ldrh	r3, [r5, #12]
 8005cd4:	0598      	lsls	r0, r3, #22
 8005cd6:	d4ed      	bmi.n	8005cb4 <_vfiprintf_r+0x4c>
 8005cd8:	6da8      	ldr	r0, [r5, #88]	; 0x58
 8005cda:	f000 fda0 	bl	800681e <__retarget_lock_release_recursive>
 8005cde:	e7e9      	b.n	8005cb4 <_vfiprintf_r+0x4c>
 8005ce0:	2300      	movs	r3, #0
 8005ce2:	9309      	str	r3, [sp, #36]	; 0x24
 8005ce4:	2320      	movs	r3, #32
 8005ce6:	f88d 3029 	strb.w	r3, [sp, #41]	; 0x29
 8005cea:	2330      	movs	r3, #48	; 0x30
 8005cec:	f04f 0901 	mov.w	r9, #1
 8005cf0:	f8cd 800c 	str.w	r8, [sp, #12]
 8005cf4:	f8df 81bc 	ldr.w	r8, [pc, #444]	; 8005eb4 <_vfiprintf_r+0x24c>
 8005cf8:	f88d 302a 	strb.w	r3, [sp, #42]	; 0x2a
 8005cfc:	4623      	mov	r3, r4
 8005cfe:	469a      	mov	sl, r3
 8005d00:	f813 2b01 	ldrb.w	r2, [r3], #1
 8005d04:	b10a      	cbz	r2, 8005d0a <_vfiprintf_r+0xa2>
 8005d06:	2a25      	cmp	r2, #37	; 0x25
 8005d08:	d1f9      	bne.n	8005cfe <_vfiprintf_r+0x96>
 8005d0a:	ebba 0b04 	subs.w	fp, sl, r4
 8005d0e:	d00b      	beq.n	8005d28 <_vfiprintf_r+0xc0>
 8005d10:	465b      	mov	r3, fp
 8005d12:	4622      	mov	r2, r4
 8005d14:	4629      	mov	r1, r5
 8005d16:	4630      	mov	r0, r6
 8005d18:	f7ff ff93 	bl	8005c42 <__sfputs_r>
 8005d1c:	3001      	adds	r0, #1
 8005d1e:	f000 80aa 	beq.w	8005e76 <_vfiprintf_r+0x20e>
 8005d22:	9a09      	ldr	r2, [sp, #36]	; 0x24
 8005d24:	445a      	add	r2, fp
 8005d26:	9209      	str	r2, [sp, #36]	; 0x24
 8005d28:	f89a 3000 	ldrb.w	r3, [sl]
 8005d2c:	2b00      	cmp	r3, #0
 8005d2e:	f000 80a2 	beq.w	8005e76 <_vfiprintf_r+0x20e>
 8005d32:	2300      	movs	r3, #0
 8005d34:	f04f 32ff 	mov.w	r2, #4294967295
 8005d38:	e9cd 2305 	strd	r2, r3, [sp, #20]
 8005d3c:	f10a 0a01 	add.w	sl, sl, #1
 8005d40:	9304      	str	r3, [sp, #16]
 8005d42:	9307      	str	r3, [sp, #28]
 8005d44:	f88d 3053 	strb.w	r3, [sp, #83]	; 0x53
 8005d48:	931a      	str	r3, [sp, #104]	; 0x68
 8005d4a:	4654      	mov	r4, sl
 8005d4c:	2205      	movs	r2, #5
 8005d4e:	f814 1b01 	ldrb.w	r1, [r4], #1
 8005d52:	4858      	ldr	r0, [pc, #352]	; (8005eb4 <_vfiprintf_r+0x24c>)
 8005d54:	f000 fdca 	bl	80068ec <memchr>
 8005d58:	9a04      	ldr	r2, [sp, #16]
 8005d5a:	b9d8      	cbnz	r0, 8005d94 <_vfiprintf_r+0x12c>
 8005d5c:	06d1      	lsls	r1, r2, #27
 8005d5e:	bf44      	itt	mi
 8005d60:	2320      	movmi	r3, #32
 8005d62:	f88d 3053 	strbmi.w	r3, [sp, #83]	; 0x53
 8005d66:	0713      	lsls	r3, r2, #28
 8005d68:	bf44      	itt	mi
 8005d6a:	232b      	movmi	r3, #43	; 0x2b
 8005d6c:	f88d 3053 	strbmi.w	r3, [sp, #83]	; 0x53
 8005d70:	f89a 3000 	ldrb.w	r3, [sl]
 8005d74:	2b2a      	cmp	r3, #42	; 0x2a
 8005d76:	d015      	beq.n	8005da4 <_vfiprintf_r+0x13c>
 8005d78:	4654      	mov	r4, sl
 8005d7a:	2000      	movs	r0, #0
 8005d7c:	f04f 0c0a 	mov.w	ip, #10
 8005d80:	9a07      	ldr	r2, [sp, #28]
 8005d82:	4621      	mov	r1, r4
 8005d84:	f811 3b01 	ldrb.w	r3, [r1], #1
 8005d88:	3b30      	subs	r3, #48	; 0x30
 8005d8a:	2b09      	cmp	r3, #9
 8005d8c:	d94e      	bls.n	8005e2c <_vfiprintf_r+0x1c4>
 8005d8e:	b1b0      	cbz	r0, 8005dbe <_vfiprintf_r+0x156>
 8005d90:	9207      	str	r2, [sp, #28]
 8005d92:	e014      	b.n	8005dbe <_vfiprintf_r+0x156>
 8005d94:	eba0 0308 	sub.w	r3, r0, r8
 8005d98:	fa09 f303 	lsl.w	r3, r9, r3
 8005d9c:	4313      	orrs	r3, r2
 8005d9e:	46a2      	mov	sl, r4
 8005da0:	9304      	str	r3, [sp, #16]
 8005da2:	e7d2      	b.n	8005d4a <_vfiprintf_r+0xe2>
 8005da4:	9b03      	ldr	r3, [sp, #12]
 8005da6:	1d19      	adds	r1, r3, #4
 8005da8:	681b      	ldr	r3, [r3, #0]
 8005daa:	9103      	str	r1, [sp, #12]
 8005dac:	2b00      	cmp	r3, #0
 8005dae:	bfbb      	ittet	lt
 8005db0:	425b      	neglt	r3, r3
 8005db2:	f042 0202 	orrlt.w	r2, r2, #2
 8005db6:	9307      	strge	r3, [sp, #28]
 8005db8:	9307      	strlt	r3, [sp, #28]
 8005dba:	bfb8      	it	lt
 8005dbc:	9204      	strlt	r2, [sp, #16]
 8005dbe:	7823      	ldrb	r3, [r4, #0]
 8005dc0:	2b2e      	cmp	r3, #46	; 0x2e
 8005dc2:	d10c      	bne.n	8005dde <_vfiprintf_r+0x176>
 8005dc4:	7863      	ldrb	r3, [r4, #1]
 8005dc6:	2b2a      	cmp	r3, #42	; 0x2a
 8005dc8:	d135      	bne.n	8005e36 <_vfiprintf_r+0x1ce>
 8005dca:	9b03      	ldr	r3, [sp, #12]
 8005dcc:	3402      	adds	r4, #2
 8005dce:	1d1a      	adds	r2, r3, #4
 8005dd0:	681b      	ldr	r3, [r3, #0]
 8005dd2:	9203      	str	r2, [sp, #12]
 8005dd4:	2b00      	cmp	r3, #0
 8005dd6:	bfb8      	it	lt
 8005dd8:	f04f 33ff 	movlt.w	r3, #4294967295
 8005ddc:	9305      	str	r3, [sp, #20]
 8005dde:	f8df a0d8 	ldr.w	sl, [pc, #216]	; 8005eb8 <_vfiprintf_r+0x250>
 8005de2:	2203      	movs	r2, #3
 8005de4:	4650      	mov	r0, sl
 8005de6:	7821      	ldrb	r1, [r4, #0]
 8005de8:	f000 fd80 	bl	80068ec <memchr>
 8005dec:	b140      	cbz	r0, 8005e00 <_vfiprintf_r+0x198>
 8005dee:	2340      	movs	r3, #64	; 0x40
 8005df0:	eba0 000a 	sub.w	r0, r0, sl
 8005df4:	fa03 f000 	lsl.w	r0, r3, r0
 8005df8:	9b04      	ldr	r3, [sp, #16]
 8005dfa:	3401      	adds	r4, #1
 8005dfc:	4303      	orrs	r3, r0
 8005dfe:	9304      	str	r3, [sp, #16]
 8005e00:	f814 1b01 	ldrb.w	r1, [r4], #1
 8005e04:	2206      	movs	r2, #6
 8005e06:	482d      	ldr	r0, [pc, #180]	; (8005ebc <_vfiprintf_r+0x254>)
 8005e08:	f88d 1028 	strb.w	r1, [sp, #40]	; 0x28
 8005e0c:	f000 fd6e 	bl	80068ec <memchr>
 8005e10:	2800      	cmp	r0, #0
 8005e12:	d03f      	beq.n	8005e94 <_vfiprintf_r+0x22c>
 8005e14:	4b2a      	ldr	r3, [pc, #168]	; (8005ec0 <_vfiprintf_r+0x258>)
 8005e16:	bb1b      	cbnz	r3, 8005e60 <_vfiprintf_r+0x1f8>
 8005e18:	9b03      	ldr	r3, [sp, #12]
 8005e1a:	3307      	adds	r3, #7
 8005e1c:	f023 0307 	bic.w	r3, r3, #7
 8005e20:	3308      	adds	r3, #8
 8005e22:	9303      	str	r3, [sp, #12]
 8005e24:	9b09      	ldr	r3, [sp, #36]	; 0x24
 8005e26:	443b      	add	r3, r7
 8005e28:	9309      	str	r3, [sp, #36]	; 0x24
 8005e2a:	e767      	b.n	8005cfc <_vfiprintf_r+0x94>
 8005e2c:	460c      	mov	r4, r1
 8005e2e:	2001      	movs	r0, #1
 8005e30:	fb0c 3202 	mla	r2, ip, r2, r3
 8005e34:	e7a5      	b.n	8005d82 <_vfiprintf_r+0x11a>
 8005e36:	2300      	movs	r3, #0
 8005e38:	f04f 0c0a 	mov.w	ip, #10
 8005e3c:	4619      	mov	r1, r3
 8005e3e:	3401      	adds	r4, #1
 8005e40:	9305      	str	r3, [sp, #20]
 8005e42:	4620      	mov	r0, r4
 8005e44:	f810 2b01 	ldrb.w	r2, [r0], #1
 8005e48:	3a30      	subs	r2, #48	; 0x30
 8005e4a:	2a09      	cmp	r2, #9
 8005e4c:	d903      	bls.n	8005e56 <_vfiprintf_r+0x1ee>
 8005e4e:	2b00      	cmp	r3, #0
 8005e50:	d0c5      	beq.n	8005dde <_vfiprintf_r+0x176>
 8005e52:	9105      	str	r1, [sp, #20]
 8005e54:	e7c3      	b.n	8005dde <_vfiprintf_r+0x176>
 8005e56:	4604      	mov	r4, r0
 8005e58:	2301      	movs	r3, #1
 8005e5a:	fb0c 2101 	mla	r1, ip, r1, r2
 8005e5e:	e7f0      	b.n	8005e42 <_vfiprintf_r+0x1da>
 8005e60:	ab03      	add	r3, sp, #12
 8005e62:	9300      	str	r3, [sp, #0]
 8005e64:	462a      	mov	r2, r5
 8005e66:	4630      	mov	r0, r6
 8005e68:	4b16      	ldr	r3, [pc, #88]	; (8005ec4 <_vfiprintf_r+0x25c>)
 8005e6a:	a904      	add	r1, sp, #16
 8005e6c:	f3af 8000 	nop.w
 8005e70:	4607      	mov	r7, r0
 8005e72:	1c78      	adds	r0, r7, #1
 8005e74:	d1d6      	bne.n	8005e24 <_vfiprintf_r+0x1bc>
 8005e76:	6e6b      	ldr	r3, [r5, #100]	; 0x64
 8005e78:	07d9      	lsls	r1, r3, #31
 8005e7a:	d405      	bmi.n	8005e88 <_vfiprintf_r+0x220>
 8005e7c:	89ab      	ldrh	r3, [r5, #12]
 8005e7e:	059a      	lsls	r2, r3, #22
 8005e80:	d402      	bmi.n	8005e88 <_vfiprintf_r+0x220>
 8005e82:	6da8      	ldr	r0, [r5, #88]	; 0x58
 8005e84:	f000 fccb 	bl	800681e <__retarget_lock_release_recursive>
 8005e88:	89ab      	ldrh	r3, [r5, #12]
 8005e8a:	065b      	lsls	r3, r3, #25
 8005e8c:	f53f af12 	bmi.w	8005cb4 <_vfiprintf_r+0x4c>
 8005e90:	9809      	ldr	r0, [sp, #36]	; 0x24
 8005e92:	e711      	b.n	8005cb8 <_vfiprintf_r+0x50>
 8005e94:	ab03      	add	r3, sp, #12
 8005e96:	9300      	str	r3, [sp, #0]
 8005e98:	462a      	mov	r2, r5
 8005e9a:	4630      	mov	r0, r6
 8005e9c:	4b09      	ldr	r3, [pc, #36]	; (8005ec4 <_vfiprintf_r+0x25c>)
 8005e9e:	a904      	add	r1, sp, #16
 8005ea0:	f000 f882 	bl	8005fa8 <_printf_i>
 8005ea4:	e7e4      	b.n	8005e70 <_vfiprintf_r+0x208>
 8005ea6:	bf00      	nop
 8005ea8:	080070fc 	.word	0x080070fc
 8005eac:	0800711c 	.word	0x0800711c
 8005eb0:	080070dc 	.word	0x080070dc
 8005eb4:	080070a8 	.word	0x080070a8
 8005eb8:	080070ae 	.word	0x080070ae
 8005ebc:	080070b2 	.word	0x080070b2
 8005ec0:	00000000 	.word	0x00000000
 8005ec4:	08005c43 	.word	0x08005c43

08005ec8 <_printf_common>:
 8005ec8:	e92d 47f0 	stmdb	sp!, {r4, r5, r6, r7, r8, r9, sl, lr}
 8005ecc:	4616      	mov	r6, r2
 8005ece:	4699      	mov	r9, r3
 8005ed0:	688a      	ldr	r2, [r1, #8]
 8005ed2:	690b      	ldr	r3, [r1, #16]
 8005ed4:	4607      	mov	r7, r0
 8005ed6:	4293      	cmp	r3, r2
 8005ed8:	bfb8      	it	lt
 8005eda:	4613      	movlt	r3, r2
 8005edc:	6033      	str	r3, [r6, #0]
 8005ede:	f891 2043 	ldrb.w	r2, [r1, #67]	; 0x43
 8005ee2:	460c      	mov	r4, r1
 8005ee4:	f8dd 8020 	ldr.w	r8, [sp, #32]
 8005ee8:	b10a      	cbz	r2, 8005eee <_printf_common+0x26>
 8005eea:	3301      	adds	r3, #1
 8005eec:	6033      	str	r3, [r6, #0]
 8005eee:	6823      	ldr	r3, [r4, #0]
 8005ef0:	0699      	lsls	r1, r3, #26
 8005ef2:	bf42      	ittt	mi
 8005ef4:	6833      	ldrmi	r3, [r6, #0]
 8005ef6:	3302      	addmi	r3, #2
 8005ef8:	6033      	strmi	r3, [r6, #0]
 8005efa:	6825      	ldr	r5, [r4, #0]
 8005efc:	f015 0506 	ands.w	r5, r5, #6
 8005f00:	d106      	bne.n	8005f10 <_printf_common+0x48>
 8005f02:	f104 0a19 	add.w	sl, r4, #25
 8005f06:	68e3      	ldr	r3, [r4, #12]
 8005f08:	6832      	ldr	r2, [r6, #0]
 8005f0a:	1a9b      	subs	r3, r3, r2
 8005f0c:	42ab      	cmp	r3, r5
 8005f0e:	dc28      	bgt.n	8005f62 <_printf_common+0x9a>
 8005f10:	f894 2043 	ldrb.w	r2, [r4, #67]	; 0x43
 8005f14:	1e13      	subs	r3, r2, #0
 8005f16:	6822      	ldr	r2, [r4, #0]
 8005f18:	bf18      	it	ne
 8005f1a:	2301      	movne	r3, #1
 8005f1c:	0692      	lsls	r2, r2, #26
 8005f1e:	d42d      	bmi.n	8005f7c <_printf_common+0xb4>
 8005f20:	4649      	mov	r1, r9
 8005f22:	4638      	mov	r0, r7
 8005f24:	f104 0243 	add.w	r2, r4, #67	; 0x43
 8005f28:	47c0      	blx	r8
 8005f2a:	3001      	adds	r0, #1
 8005f2c:	d020      	beq.n	8005f70 <_printf_common+0xa8>
 8005f2e:	6823      	ldr	r3, [r4, #0]
 8005f30:	68e5      	ldr	r5, [r4, #12]
 8005f32:	f003 0306 	and.w	r3, r3, #6
 8005f36:	2b04      	cmp	r3, #4
 8005f38:	bf18      	it	ne
 8005f3a:	2500      	movne	r5, #0
 8005f3c:	6832      	ldr	r2, [r6, #0]
 8005f3e:	f04f 0600 	mov.w	r6, #0
 8005f42:	68a3      	ldr	r3, [r4, #8]
 8005f44:	bf08      	it	eq
 8005f46:	1aad      	subeq	r5, r5, r2
 8005f48:	6922      	ldr	r2, [r4, #16]
 8005f4a:	bf08      	it	eq
 8005f4c:	ea25 75e5 	biceq.w	r5, r5, r5, asr #31
 8005f50:	4293      	cmp	r3, r2
 8005f52:	bfc4      	itt	gt
 8005f54:	1a9b      	subgt	r3, r3, r2
 8005f56:	18ed      	addgt	r5, r5, r3
 8005f58:	341a      	adds	r4, #26
 8005f5a:	42b5      	cmp	r5, r6
 8005f5c:	d11a      	bne.n	8005f94 <_printf_common+0xcc>
 8005f5e:	2000      	movs	r0, #0
 8005f60:	e008      	b.n	8005f74 <_printf_common+0xac>
 8005f62:	2301      	movs	r3, #1
 8005f64:	4652      	mov	r2, sl
 8005f66:	4649      	mov	r1, r9
 8005f68:	4638      	mov	r0, r7
 8005f6a:	47c0      	blx	r8
 8005f6c:	3001      	adds	r0, #1
 8005f6e:	d103      	bne.n	8005f78 <_printf_common+0xb0>
 8005f70:	f04f 30ff 	mov.w	r0, #4294967295
 8005f74:	e8bd 87f0 	ldmia.w	sp!, {r4, r5, r6, r7, r8, r9, sl, pc}
 8005f78:	3501      	adds	r5, #1
 8005f7a:	e7c4      	b.n	8005f06 <_printf_common+0x3e>
 8005f7c:	2030      	movs	r0, #48	; 0x30
 8005f7e:	18e1      	adds	r1, r4, r3
 8005f80:	f881 0043 	strb.w	r0, [r1, #67]	; 0x43
 8005f84:	1c5a      	adds	r2, r3, #1
 8005f86:	f894 1045 	ldrb.w	r1, [r4, #69]	; 0x45
 8005f8a:	4422      	add	r2, r4
 8005f8c:	3302      	adds	r3, #2
 8005f8e:	f882 1043 	strb.w	r1, [r2, #67]	; 0x43
 8005f92:	e7c5      	b.n	8005f20 <_printf_common+0x58>
 8005f94:	2301      	movs	r3, #1
 8005f96:	4622      	mov	r2, r4
 8005f98:	4649      	mov	r1, r9
 8005f9a:	4638      	mov	r0, r7
 8005f9c:	47c0      	blx	r8
 8005f9e:	3001      	adds	r0, #1
 8005fa0:	d0e6      	beq.n	8005f70 <_printf_common+0xa8>
 8005fa2:	3601      	adds	r6, #1
 8005fa4:	e7d9      	b.n	8005f5a <_printf_common+0x92>
	...

08005fa8 <_printf_i>:
 8005fa8:	e92d 47ff 	stmdb	sp!, {r0, r1, r2, r3, r4, r5, r6, r7, r8, r9, sl, lr}
 8005fac:	7e0f      	ldrb	r7, [r1, #24]
 8005fae:	4691      	mov	r9, r2
 8005fb0:	2f78      	cmp	r7, #120	; 0x78
 8005fb2:	4680      	mov	r8, r0
 8005fb4:	460c      	mov	r4, r1
 8005fb6:	469a      	mov	sl, r3
 8005fb8:	9d0c      	ldr	r5, [sp, #48]	; 0x30
 8005fba:	f101 0243 	add.w	r2, r1, #67	; 0x43
 8005fbe:	d807      	bhi.n	8005fd0 <_printf_i+0x28>
 8005fc0:	2f62      	cmp	r7, #98	; 0x62
 8005fc2:	d80a      	bhi.n	8005fda <_printf_i+0x32>
 8005fc4:	2f00      	cmp	r7, #0
 8005fc6:	f000 80d9 	beq.w	800617c <_printf_i+0x1d4>
 8005fca:	2f58      	cmp	r7, #88	; 0x58
 8005fcc:	f000 80a4 	beq.w	8006118 <_printf_i+0x170>
 8005fd0:	f104 0542 	add.w	r5, r4, #66	; 0x42
 8005fd4:	f884 7042 	strb.w	r7, [r4, #66]	; 0x42
 8005fd8:	e03a      	b.n	8006050 <_printf_i+0xa8>
 8005fda:	f1a7 0363 	sub.w	r3, r7, #99	; 0x63
 8005fde:	2b15      	cmp	r3, #21
 8005fe0:	d8f6      	bhi.n	8005fd0 <_printf_i+0x28>
 8005fe2:	a101      	add	r1, pc, #4	; (adr r1, 8005fe8 <_printf_i+0x40>)
 8005fe4:	f851 f023 	ldr.w	pc, [r1, r3, lsl #2]
 8005fe8:	08006041 	.word	0x08006041
 8005fec:	08006055 	.word	0x08006055
 8005ff0:	08005fd1 	.word	0x08005fd1
 8005ff4:	08005fd1 	.word	0x08005fd1
 8005ff8:	08005fd1 	.word	0x08005fd1
 8005ffc:	08005fd1 	.word	0x08005fd1
 8006000:	08006055 	.word	0x08006055
 8006004:	08005fd1 	.word	0x08005fd1
 8006008:	08005fd1 	.word	0x08005fd1
 800600c:	08005fd1 	.word	0x08005fd1
 8006010:	08005fd1 	.word	0x08005fd1
 8006014:	08006163 	.word	0x08006163
 8006018:	08006085 	.word	0x08006085
 800601c:	08006145 	.word	0x08006145
 8006020:	08005fd1 	.word	0x08005fd1
 8006024:	08005fd1 	.word	0x08005fd1
 8006028:	08006185 	.word	0x08006185
 800602c:	08005fd1 	.word	0x08005fd1
 8006030:	08006085 	.word	0x08006085
 8006034:	08005fd1 	.word	0x08005fd1
 8006038:	08005fd1 	.word	0x08005fd1
 800603c:	0800614d 	.word	0x0800614d
 8006040:	682b      	ldr	r3, [r5, #0]
 8006042:	1d1a      	adds	r2, r3, #4
 8006044:	681b      	ldr	r3, [r3, #0]
 8006046:	602a      	str	r2, [r5, #0]
 8006048:	f104 0542 	add.w	r5, r4, #66	; 0x42
 800604c:	f884 3042 	strb.w	r3, [r4, #66]	; 0x42
 8006050:	2301      	movs	r3, #1
 8006052:	e0a4      	b.n	800619e <_printf_i+0x1f6>
 8006054:	6820      	ldr	r0, [r4, #0]
 8006056:	6829      	ldr	r1, [r5, #0]
 8006058:	0606      	lsls	r6, r0, #24
 800605a:	f101 0304 	add.w	r3, r1, #4
 800605e:	d50a      	bpl.n	8006076 <_printf_i+0xce>
 8006060:	680e      	ldr	r6, [r1, #0]
 8006062:	602b      	str	r3, [r5, #0]
 8006064:	2e00      	cmp	r6, #0
 8006066:	da03      	bge.n	8006070 <_printf_i+0xc8>
 8006068:	232d      	movs	r3, #45	; 0x2d
 800606a:	4276      	negs	r6, r6
 800606c:	f884 3043 	strb.w	r3, [r4, #67]	; 0x43
 8006070:	230a      	movs	r3, #10
 8006072:	485e      	ldr	r0, [pc, #376]	; (80061ec <_printf_i+0x244>)
 8006074:	e019      	b.n	80060aa <_printf_i+0x102>
 8006076:	680e      	ldr	r6, [r1, #0]
 8006078:	f010 0f40 	tst.w	r0, #64	; 0x40
 800607c:	602b      	str	r3, [r5, #0]
 800607e:	bf18      	it	ne
 8006080:	b236      	sxthne	r6, r6
 8006082:	e7ef      	b.n	8006064 <_printf_i+0xbc>
 8006084:	682b      	ldr	r3, [r5, #0]
 8006086:	6820      	ldr	r0, [r4, #0]
 8006088:	1d19      	adds	r1, r3, #4
 800608a:	6029      	str	r1, [r5, #0]
 800608c:	0601      	lsls	r1, r0, #24
 800608e:	d501      	bpl.n	8006094 <_printf_i+0xec>
 8006090:	681e      	ldr	r6, [r3, #0]
 8006092:	e002      	b.n	800609a <_printf_i+0xf2>
 8006094:	0646      	lsls	r6, r0, #25
 8006096:	d5fb      	bpl.n	8006090 <_printf_i+0xe8>
 8006098:	881e      	ldrh	r6, [r3, #0]
 800609a:	2f6f      	cmp	r7, #111	; 0x6f
 800609c:	bf0c      	ite	eq
 800609e:	2308      	moveq	r3, #8
 80060a0:	230a      	movne	r3, #10
 80060a2:	4852      	ldr	r0, [pc, #328]	; (80061ec <_printf_i+0x244>)
 80060a4:	2100      	movs	r1, #0
 80060a6:	f884 1043 	strb.w	r1, [r4, #67]	; 0x43
 80060aa:	6865      	ldr	r5, [r4, #4]
 80060ac:	2d00      	cmp	r5, #0
 80060ae:	bfa8      	it	ge
 80060b0:	6821      	ldrge	r1, [r4, #0]
 80060b2:	60a5      	str	r5, [r4, #8]
 80060b4:	bfa4      	itt	ge
 80060b6:	f021 0104 	bicge.w	r1, r1, #4
 80060ba:	6021      	strge	r1, [r4, #0]
 80060bc:	b90e      	cbnz	r6, 80060c2 <_printf_i+0x11a>
 80060be:	2d00      	cmp	r5, #0
 80060c0:	d04d      	beq.n	800615e <_printf_i+0x1b6>
 80060c2:	4615      	mov	r5, r2
 80060c4:	fbb6 f1f3 	udiv	r1, r6, r3
 80060c8:	fb03 6711 	mls	r7, r3, r1, r6
 80060cc:	5dc7      	ldrb	r7, [r0, r7]
 80060ce:	f805 7d01 	strb.w	r7, [r5, #-1]!
 80060d2:	4637      	mov	r7, r6
 80060d4:	42bb      	cmp	r3, r7
 80060d6:	460e      	mov	r6, r1
 80060d8:	d9f4      	bls.n	80060c4 <_printf_i+0x11c>
 80060da:	2b08      	cmp	r3, #8
 80060dc:	d10b      	bne.n	80060f6 <_printf_i+0x14e>
 80060de:	6823      	ldr	r3, [r4, #0]
 80060e0:	07de      	lsls	r6, r3, #31
 80060e2:	d508      	bpl.n	80060f6 <_printf_i+0x14e>
 80060e4:	6923      	ldr	r3, [r4, #16]
 80060e6:	6861      	ldr	r1, [r4, #4]
 80060e8:	4299      	cmp	r1, r3
 80060ea:	bfde      	ittt	le
 80060ec:	2330      	movle	r3, #48	; 0x30
 80060ee:	f805 3c01 	strble.w	r3, [r5, #-1]
 80060f2:	f105 35ff 	addle.w	r5, r5, #4294967295
 80060f6:	1b52      	subs	r2, r2, r5
 80060f8:	6122      	str	r2, [r4, #16]
 80060fa:	464b      	mov	r3, r9
 80060fc:	4621      	mov	r1, r4
 80060fe:	4640      	mov	r0, r8
 8006100:	f8cd a000 	str.w	sl, [sp]
 8006104:	aa03      	add	r2, sp, #12
 8006106:	f7ff fedf 	bl	8005ec8 <_printf_common>
 800610a:	3001      	adds	r0, #1
 800610c:	d14c      	bne.n	80061a8 <_printf_i+0x200>
 800610e:	f04f 30ff 	mov.w	r0, #4294967295
 8006112:	b004      	add	sp, #16
 8006114:	e8bd 87f0 	ldmia.w	sp!, {r4, r5, r6, r7, r8, r9, sl, pc}
 8006118:	4834      	ldr	r0, [pc, #208]	; (80061ec <_printf_i+0x244>)
 800611a:	f881 7045 	strb.w	r7, [r1, #69]	; 0x45
 800611e:	6829      	ldr	r1, [r5, #0]
 8006120:	6823      	ldr	r3, [r4, #0]
 8006122:	f851 6b04 	ldr.w	r6, [r1], #4
 8006126:	6029      	str	r1, [r5, #0]
 8006128:	061d      	lsls	r5, r3, #24
 800612a:	d514      	bpl.n	8006156 <_printf_i+0x1ae>
 800612c:	07df      	lsls	r7, r3, #31
 800612e:	bf44      	itt	mi
 8006130:	f043 0320 	orrmi.w	r3, r3, #32
 8006134:	6023      	strmi	r3, [r4, #0]
 8006136:	b91e      	cbnz	r6, 8006140 <_printf_i+0x198>
 8006138:	6823      	ldr	r3, [r4, #0]
 800613a:	f023 0320 	bic.w	r3, r3, #32
 800613e:	6023      	str	r3, [r4, #0]
 8006140:	2310      	movs	r3, #16
 8006142:	e7af      	b.n	80060a4 <_printf_i+0xfc>
 8006144:	6823      	ldr	r3, [r4, #0]
 8006146:	f043 0320 	orr.w	r3, r3, #32
 800614a:	6023      	str	r3, [r4, #0]
 800614c:	2378      	movs	r3, #120	; 0x78
 800614e:	4828      	ldr	r0, [pc, #160]	; (80061f0 <_printf_i+0x248>)
 8006150:	f884 3045 	strb.w	r3, [r4, #69]	; 0x45
 8006154:	e7e3      	b.n	800611e <_printf_i+0x176>
 8006156:	0659      	lsls	r1, r3, #25
 8006158:	bf48      	it	mi
 800615a:	b2b6      	uxthmi	r6, r6
 800615c:	e7e6      	b.n	800612c <_printf_i+0x184>
 800615e:	4615      	mov	r5, r2
 8006160:	e7bb      	b.n	80060da <_printf_i+0x132>
 8006162:	682b      	ldr	r3, [r5, #0]
 8006164:	6826      	ldr	r6, [r4, #0]
 8006166:	1d18      	adds	r0, r3, #4
 8006168:	6961      	ldr	r1, [r4, #20]
 800616a:	6028      	str	r0, [r5, #0]
 800616c:	0635      	lsls	r5, r6, #24
 800616e:	681b      	ldr	r3, [r3, #0]
 8006170:	d501      	bpl.n	8006176 <_printf_i+0x1ce>
 8006172:	6019      	str	r1, [r3, #0]
 8006174:	e002      	b.n	800617c <_printf_i+0x1d4>
 8006176:	0670      	lsls	r0, r6, #25
 8006178:	d5fb      	bpl.n	8006172 <_printf_i+0x1ca>
 800617a:	8019      	strh	r1, [r3, #0]
 800617c:	2300      	movs	r3, #0
 800617e:	4615      	mov	r5, r2
 8006180:	6123      	str	r3, [r4, #16]
 8006182:	e7ba      	b.n	80060fa <_printf_i+0x152>
 8006184:	682b      	ldr	r3, [r5, #0]
 8006186:	2100      	movs	r1, #0
 8006188:	1d1a      	adds	r2, r3, #4
 800618a:	602a      	str	r2, [r5, #0]
 800618c:	681d      	ldr	r5, [r3, #0]
 800618e:	6862      	ldr	r2, [r4, #4]
 8006190:	4628      	mov	r0, r5
 8006192:	f000 fbab 	bl	80068ec <memchr>
 8006196:	b108      	cbz	r0, 800619c <_printf_i+0x1f4>
 8006198:	1b40      	subs	r0, r0, r5
 800619a:	6060      	str	r0, [r4, #4]
 800619c:	6863      	ldr	r3, [r4, #4]
 800619e:	6123      	str	r3, [r4, #16]
 80061a0:	2300      	movs	r3, #0
 80061a2:	f884 3043 	strb.w	r3, [r4, #67]	; 0x43
 80061a6:	e7a8      	b.n	80060fa <_printf_i+0x152>
 80061a8:	462a      	mov	r2, r5
 80061aa:	4649      	mov	r1, r9
 80061ac:	4640      	mov	r0, r8
 80061ae:	6923      	ldr	r3, [r4, #16]
 80061b0:	47d0      	blx	sl
 80061b2:	3001      	adds	r0, #1
 80061b4:	d0ab      	beq.n	800610e <_printf_i+0x166>
 80061b6:	6823      	ldr	r3, [r4, #0]
 80061b8:	079b      	lsls	r3, r3, #30
 80061ba:	d413      	bmi.n	80061e4 <_printf_i+0x23c>
 80061bc:	68e0      	ldr	r0, [r4, #12]
 80061be:	9b03      	ldr	r3, [sp, #12]
 80061c0:	4298      	cmp	r0, r3
 80061c2:	bfb8      	it	lt
 80061c4:	4618      	movlt	r0, r3
 80061c6:	e7a4      	b.n	8006112 <_printf_i+0x16a>
 80061c8:	2301      	movs	r3, #1
 80061ca:	4632      	mov	r2, r6
 80061cc:	4649      	mov	r1, r9
 80061ce:	4640      	mov	r0, r8
 80061d0:	47d0      	blx	sl
 80061d2:	3001      	adds	r0, #1
 80061d4:	d09b      	beq.n	800610e <_printf_i+0x166>
 80061d6:	3501      	adds	r5, #1
 80061d8:	68e3      	ldr	r3, [r4, #12]
 80061da:	9903      	ldr	r1, [sp, #12]
 80061dc:	1a5b      	subs	r3, r3, r1
 80061de:	42ab      	cmp	r3, r5
 80061e0:	dcf2      	bgt.n	80061c8 <_printf_i+0x220>
 80061e2:	e7eb      	b.n	80061bc <_printf_i+0x214>
 80061e4:	2500      	movs	r5, #0
 80061e6:	f104 0619 	add.w	r6, r4, #25
 80061ea:	e7f5      	b.n	80061d8 <_printf_i+0x230>
 80061ec:	080070b9 	.word	0x080070b9
 80061f0:	080070ca 	.word	0x080070ca

080061f4 <_sbrk_r>:
 80061f4:	b538      	push	{r3, r4, r5, lr}
 80061f6:	2300      	movs	r3, #0
 80061f8:	4d05      	ldr	r5, [pc, #20]	; (8006210 <_sbrk_r+0x1c>)
 80061fa:	4604      	mov	r4, r0
 80061fc:	4608      	mov	r0, r1
 80061fe:	602b      	str	r3, [r5, #0]
 8006200:	f7fb f8e4 	bl	80013cc <_sbrk>
 8006204:	1c43      	adds	r3, r0, #1
 8006206:	d102      	bne.n	800620e <_sbrk_r+0x1a>
 8006208:	682b      	ldr	r3, [r5, #0]
 800620a:	b103      	cbz	r3, 800620e <_sbrk_r+0x1a>
 800620c:	6023      	str	r3, [r4, #0]
 800620e:	bd38      	pop	{r3, r4, r5, pc}
 8006210:	200015c4 	.word	0x200015c4

08006214 <_raise_r>:
 8006214:	291f      	cmp	r1, #31
 8006216:	b538      	push	{r3, r4, r5, lr}
 8006218:	4604      	mov	r4, r0
 800621a:	460d      	mov	r5, r1
 800621c:	d904      	bls.n	8006228 <_raise_r+0x14>
 800621e:	2316      	movs	r3, #22
 8006220:	6003      	str	r3, [r0, #0]
 8006222:	f04f 30ff 	mov.w	r0, #4294967295
 8006226:	bd38      	pop	{r3, r4, r5, pc}
 8006228:	6c42      	ldr	r2, [r0, #68]	; 0x44
 800622a:	b112      	cbz	r2, 8006232 <_raise_r+0x1e>
 800622c:	f852 3021 	ldr.w	r3, [r2, r1, lsl #2]
 8006230:	b94b      	cbnz	r3, 8006246 <_raise_r+0x32>
 8006232:	4620      	mov	r0, r4
 8006234:	f000 f830 	bl	8006298 <_getpid_r>
 8006238:	462a      	mov	r2, r5
 800623a:	4601      	mov	r1, r0
 800623c:	4620      	mov	r0, r4
 800623e:	e8bd 4038 	ldmia.w	sp!, {r3, r4, r5, lr}
 8006242:	f000 b817 	b.w	8006274 <_kill_r>
 8006246:	2b01      	cmp	r3, #1
 8006248:	d00a      	beq.n	8006260 <_raise_r+0x4c>
 800624a:	1c59      	adds	r1, r3, #1
 800624c:	d103      	bne.n	8006256 <_raise_r+0x42>
 800624e:	2316      	movs	r3, #22
 8006250:	6003      	str	r3, [r0, #0]
 8006252:	2001      	movs	r0, #1
 8006254:	e7e7      	b.n	8006226 <_raise_r+0x12>
 8006256:	2400      	movs	r4, #0
 8006258:	4628      	mov	r0, r5
 800625a:	f842 4025 	str.w	r4, [r2, r5, lsl #2]
 800625e:	4798      	blx	r3
 8006260:	2000      	movs	r0, #0
 8006262:	e7e0      	b.n	8006226 <_raise_r+0x12>

08006264 <raise>:
 8006264:	4b02      	ldr	r3, [pc, #8]	; (8006270 <raise+0xc>)
 8006266:	4601      	mov	r1, r0
 8006268:	6818      	ldr	r0, [r3, #0]
 800626a:	f7ff bfd3 	b.w	8006214 <_raise_r>
 800626e:	bf00      	nop
 8006270:	20000184 	.word	0x20000184

08006274 <_kill_r>:
 8006274:	b538      	push	{r3, r4, r5, lr}
 8006276:	2300      	movs	r3, #0
 8006278:	4d06      	ldr	r5, [pc, #24]	; (8006294 <_kill_r+0x20>)
 800627a:	4604      	mov	r4, r0
 800627c:	4608      	mov	r0, r1
 800627e:	4611      	mov	r1, r2
 8006280:	602b      	str	r3, [r5, #0]
 8006282:	f7fb f86d 	bl	8001360 <_kill>
 8006286:	1c43      	adds	r3, r0, #1
 8006288:	d102      	bne.n	8006290 <_kill_r+0x1c>
 800628a:	682b      	ldr	r3, [r5, #0]
 800628c:	b103      	cbz	r3, 8006290 <_kill_r+0x1c>
 800628e:	6023      	str	r3, [r4, #0]
 8006290:	bd38      	pop	{r3, r4, r5, pc}
 8006292:	bf00      	nop
 8006294:	200015c4 	.word	0x200015c4

08006298 <_getpid_r>:
 8006298:	f7fb b860 	b.w	800135c <_getpid>

0800629c <_vsniprintf_r>:
 800629c:	b530      	push	{r4, r5, lr}
 800629e:	4614      	mov	r4, r2
 80062a0:	2c00      	cmp	r4, #0
 80062a2:	4605      	mov	r5, r0
 80062a4:	461a      	mov	r2, r3
 80062a6:	b09b      	sub	sp, #108	; 0x6c
 80062a8:	da05      	bge.n	80062b6 <_vsniprintf_r+0x1a>
 80062aa:	238b      	movs	r3, #139	; 0x8b
 80062ac:	6003      	str	r3, [r0, #0]
 80062ae:	f04f 30ff 	mov.w	r0, #4294967295
 80062b2:	b01b      	add	sp, #108	; 0x6c
 80062b4:	bd30      	pop	{r4, r5, pc}
 80062b6:	f44f 7302 	mov.w	r3, #520	; 0x208
 80062ba:	f8ad 300c 	strh.w	r3, [sp, #12]
 80062be:	bf0c      	ite	eq
 80062c0:	4623      	moveq	r3, r4
 80062c2:	f104 33ff 	addne.w	r3, r4, #4294967295
 80062c6:	9302      	str	r3, [sp, #8]
 80062c8:	9305      	str	r3, [sp, #20]
 80062ca:	f64f 73ff 	movw	r3, #65535	; 0xffff
 80062ce:	9100      	str	r1, [sp, #0]
 80062d0:	9104      	str	r1, [sp, #16]
 80062d2:	f8ad 300e 	strh.w	r3, [sp, #14]
 80062d6:	4669      	mov	r1, sp
 80062d8:	9b1e      	ldr	r3, [sp, #120]	; 0x78
 80062da:	f000 fbc5 	bl	8006a68 <_svfiprintf_r>
 80062de:	1c43      	adds	r3, r0, #1
 80062e0:	bfbc      	itt	lt
 80062e2:	238b      	movlt	r3, #139	; 0x8b
 80062e4:	602b      	strlt	r3, [r5, #0]
 80062e6:	2c00      	cmp	r4, #0
 80062e8:	d0e3      	beq.n	80062b2 <_vsniprintf_r+0x16>
 80062ea:	2200      	movs	r2, #0
 80062ec:	9b00      	ldr	r3, [sp, #0]
 80062ee:	701a      	strb	r2, [r3, #0]
 80062f0:	e7df      	b.n	80062b2 <_vsniprintf_r+0x16>
	...

080062f4 <vsniprintf>:
 80062f4:	b507      	push	{r0, r1, r2, lr}
 80062f6:	9300      	str	r3, [sp, #0]
 80062f8:	4613      	mov	r3, r2
 80062fa:	460a      	mov	r2, r1
 80062fc:	4601      	mov	r1, r0
 80062fe:	4803      	ldr	r0, [pc, #12]	; (800630c <vsniprintf+0x18>)
 8006300:	6800      	ldr	r0, [r0, #0]
 8006302:	f7ff ffcb 	bl	800629c <_vsniprintf_r>
 8006306:	b003      	add	sp, #12
 8006308:	f85d fb04 	ldr.w	pc, [sp], #4
 800630c:	20000184 	.word	0x20000184

08006310 <__swbuf_r>:
 8006310:	b5f8      	push	{r3, r4, r5, r6, r7, lr}
 8006312:	460e      	mov	r6, r1
 8006314:	4614      	mov	r4, r2
 8006316:	4605      	mov	r5, r0
 8006318:	b118      	cbz	r0, 8006322 <__swbuf_r+0x12>
 800631a:	6983      	ldr	r3, [r0, #24]
 800631c:	b90b      	cbnz	r3, 8006322 <__swbuf_r+0x12>
 800631e:	f000 f9df 	bl	80066e0 <__sinit>
 8006322:	4b21      	ldr	r3, [pc, #132]	; (80063a8 <__swbuf_r+0x98>)
 8006324:	429c      	cmp	r4, r3
 8006326:	d12b      	bne.n	8006380 <__swbuf_r+0x70>
 8006328:	686c      	ldr	r4, [r5, #4]
 800632a:	69a3      	ldr	r3, [r4, #24]
 800632c:	60a3      	str	r3, [r4, #8]
 800632e:	89a3      	ldrh	r3, [r4, #12]
 8006330:	071a      	lsls	r2, r3, #28
 8006332:	d52f      	bpl.n	8006394 <__swbuf_r+0x84>
 8006334:	6923      	ldr	r3, [r4, #16]
 8006336:	b36b      	cbz	r3, 8006394 <__swbuf_r+0x84>
 8006338:	6923      	ldr	r3, [r4, #16]
 800633a:	6820      	ldr	r0, [r4, #0]
 800633c:	b2f6      	uxtb	r6, r6
 800633e:	1ac0      	subs	r0, r0, r3
 8006340:	6963      	ldr	r3, [r4, #20]
 8006342:	4637      	mov	r7, r6
 8006344:	4283      	cmp	r3, r0
 8006346:	dc04      	bgt.n	8006352 <__swbuf_r+0x42>
 8006348:	4621      	mov	r1, r4
 800634a:	4628      	mov	r0, r5
 800634c:	f000 f934 	bl	80065b8 <_fflush_r>
 8006350:	bb30      	cbnz	r0, 80063a0 <__swbuf_r+0x90>
 8006352:	68a3      	ldr	r3, [r4, #8]
 8006354:	3001      	adds	r0, #1
 8006356:	3b01      	subs	r3, #1
 8006358:	60a3      	str	r3, [r4, #8]
 800635a:	6823      	ldr	r3, [r4, #0]
 800635c:	1c5a      	adds	r2, r3, #1
 800635e:	6022      	str	r2, [r4, #0]
 8006360:	701e      	strb	r6, [r3, #0]
 8006362:	6963      	ldr	r3, [r4, #20]
 8006364:	4283      	cmp	r3, r0
 8006366:	d004      	beq.n	8006372 <__swbuf_r+0x62>
 8006368:	89a3      	ldrh	r3, [r4, #12]
 800636a:	07db      	lsls	r3, r3, #31
 800636c:	d506      	bpl.n	800637c <__swbuf_r+0x6c>
 800636e:	2e0a      	cmp	r6, #10
 8006370:	d104      	bne.n	800637c <__swbuf_r+0x6c>
 8006372:	4621      	mov	r1, r4
 8006374:	4628      	mov	r0, r5
 8006376:	f000 f91f 	bl	80065b8 <_fflush_r>
 800637a:	b988      	cbnz	r0, 80063a0 <__swbuf_r+0x90>
 800637c:	4638      	mov	r0, r7
 800637e:	bdf8      	pop	{r3, r4, r5, r6, r7, pc}
 8006380:	4b0a      	ldr	r3, [pc, #40]	; (80063ac <__swbuf_r+0x9c>)
 8006382:	429c      	cmp	r4, r3
 8006384:	d101      	bne.n	800638a <__swbuf_r+0x7a>
 8006386:	68ac      	ldr	r4, [r5, #8]
 8006388:	e7cf      	b.n	800632a <__swbuf_r+0x1a>
 800638a:	4b09      	ldr	r3, [pc, #36]	; (80063b0 <__swbuf_r+0xa0>)
 800638c:	429c      	cmp	r4, r3
 800638e:	bf08      	it	eq
 8006390:	68ec      	ldreq	r4, [r5, #12]
 8006392:	e7ca      	b.n	800632a <__swbuf_r+0x1a>
 8006394:	4621      	mov	r1, r4
 8006396:	4628      	mov	r0, r5
 8006398:	f000 f81e 	bl	80063d8 <__swsetup_r>
 800639c:	2800      	cmp	r0, #0
 800639e:	d0cb      	beq.n	8006338 <__swbuf_r+0x28>
 80063a0:	f04f 37ff 	mov.w	r7, #4294967295
 80063a4:	e7ea      	b.n	800637c <__swbuf_r+0x6c>
 80063a6:	bf00      	nop
 80063a8:	080070fc 	.word	0x080070fc
 80063ac:	0800711c 	.word	0x0800711c
 80063b0:	080070dc 	.word	0x080070dc

080063b4 <_write_r>:
 80063b4:	b538      	push	{r3, r4, r5, lr}
 80063b6:	4604      	mov	r4, r0
 80063b8:	4608      	mov	r0, r1
 80063ba:	4611      	mov	r1, r2
 80063bc:	2200      	movs	r2, #0
 80063be:	4d05      	ldr	r5, [pc, #20]	; (80063d4 <_write_r+0x20>)
 80063c0:	602a      	str	r2, [r5, #0]
 80063c2:	461a      	mov	r2, r3
 80063c4:	f7fa ffe8 	bl	8001398 <_write>
 80063c8:	1c43      	adds	r3, r0, #1
 80063ca:	d102      	bne.n	80063d2 <_write_r+0x1e>
 80063cc:	682b      	ldr	r3, [r5, #0]
 80063ce:	b103      	cbz	r3, 80063d2 <_write_r+0x1e>
 80063d0:	6023      	str	r3, [r4, #0]
 80063d2:	bd38      	pop	{r3, r4, r5, pc}
 80063d4:	200015c4 	.word	0x200015c4

080063d8 <__swsetup_r>:
 80063d8:	4b32      	ldr	r3, [pc, #200]	; (80064a4 <__swsetup_r+0xcc>)
 80063da:	b570      	push	{r4, r5, r6, lr}
 80063dc:	681d      	ldr	r5, [r3, #0]
 80063de:	4606      	mov	r6, r0
 80063e0:	460c      	mov	r4, r1
 80063e2:	b125      	cbz	r5, 80063ee <__swsetup_r+0x16>
 80063e4:	69ab      	ldr	r3, [r5, #24]
 80063e6:	b913      	cbnz	r3, 80063ee <__swsetup_r+0x16>
 80063e8:	4628      	mov	r0, r5
 80063ea:	f000 f979 	bl	80066e0 <__sinit>
 80063ee:	4b2e      	ldr	r3, [pc, #184]	; (80064a8 <__swsetup_r+0xd0>)
 80063f0:	429c      	cmp	r4, r3
 80063f2:	d10f      	bne.n	8006414 <__swsetup_r+0x3c>
 80063f4:	686c      	ldr	r4, [r5, #4]
 80063f6:	89a3      	ldrh	r3, [r4, #12]
 80063f8:	f9b4 200c 	ldrsh.w	r2, [r4, #12]
 80063fc:	0719      	lsls	r1, r3, #28
 80063fe:	d42c      	bmi.n	800645a <__swsetup_r+0x82>
 8006400:	06dd      	lsls	r5, r3, #27
 8006402:	d411      	bmi.n	8006428 <__swsetup_r+0x50>
 8006404:	2309      	movs	r3, #9
 8006406:	6033      	str	r3, [r6, #0]
 8006408:	f042 0340 	orr.w	r3, r2, #64	; 0x40
 800640c:	f04f 30ff 	mov.w	r0, #4294967295
 8006410:	81a3      	strh	r3, [r4, #12]
 8006412:	e03e      	b.n	8006492 <__swsetup_r+0xba>
 8006414:	4b25      	ldr	r3, [pc, #148]	; (80064ac <__swsetup_r+0xd4>)
 8006416:	429c      	cmp	r4, r3
 8006418:	d101      	bne.n	800641e <__swsetup_r+0x46>
 800641a:	68ac      	ldr	r4, [r5, #8]
 800641c:	e7eb      	b.n	80063f6 <__swsetup_r+0x1e>
 800641e:	4b24      	ldr	r3, [pc, #144]	; (80064b0 <__swsetup_r+0xd8>)
 8006420:	429c      	cmp	r4, r3
 8006422:	bf08      	it	eq
 8006424:	68ec      	ldreq	r4, [r5, #12]
 8006426:	e7e6      	b.n	80063f6 <__swsetup_r+0x1e>
 8006428:	0758      	lsls	r0, r3, #29
 800642a:	d512      	bpl.n	8006452 <__swsetup_r+0x7a>
 800642c:	6b61      	ldr	r1, [r4, #52]	; 0x34
 800642e:	b141      	cbz	r1, 8006442 <__swsetup_r+0x6a>
 8006430:	f104 0344 	add.w	r3, r4, #68	; 0x44
 8006434:	4299      	cmp	r1, r3
 8006436:	d002      	beq.n	800643e <__swsetup_r+0x66>
 8006438:	4630      	mov	r0, r6
 800643a:	f7ff fb11 	bl	8005a60 <_free_r>
 800643e:	2300      	movs	r3, #0
 8006440:	6363      	str	r3, [r4, #52]	; 0x34
 8006442:	89a3      	ldrh	r3, [r4, #12]
 8006444:	f023 0324 	bic.w	r3, r3, #36	; 0x24
 8006448:	81a3      	strh	r3, [r4, #12]
 800644a:	2300      	movs	r3, #0
 800644c:	6063      	str	r3, [r4, #4]
 800644e:	6923      	ldr	r3, [r4, #16]
 8006450:	6023      	str	r3, [r4, #0]
 8006452:	89a3      	ldrh	r3, [r4, #12]
 8006454:	f043 0308 	orr.w	r3, r3, #8
 8006458:	81a3      	strh	r3, [r4, #12]
 800645a:	6923      	ldr	r3, [r4, #16]
 800645c:	b94b      	cbnz	r3, 8006472 <__swsetup_r+0x9a>
 800645e:	89a3      	ldrh	r3, [r4, #12]
 8006460:	f403 7320 	and.w	r3, r3, #640	; 0x280
 8006464:	f5b3 7f00 	cmp.w	r3, #512	; 0x200
 8006468:	d003      	beq.n	8006472 <__swsetup_r+0x9a>
 800646a:	4621      	mov	r1, r4
 800646c:	4630      	mov	r0, r6
 800646e:	f000 f9fd 	bl	800686c <__smakebuf_r>
 8006472:	89a0      	ldrh	r0, [r4, #12]
 8006474:	f9b4 200c 	ldrsh.w	r2, [r4, #12]
 8006478:	f010 0301 	ands.w	r3, r0, #1
 800647c:	d00a      	beq.n	8006494 <__swsetup_r+0xbc>
 800647e:	2300      	movs	r3, #0
 8006480:	60a3      	str	r3, [r4, #8]
 8006482:	6963      	ldr	r3, [r4, #20]
 8006484:	425b      	negs	r3, r3
 8006486:	61a3      	str	r3, [r4, #24]
 8006488:	6923      	ldr	r3, [r4, #16]
 800648a:	b943      	cbnz	r3, 800649e <__swsetup_r+0xc6>
 800648c:	f010 0080 	ands.w	r0, r0, #128	; 0x80
 8006490:	d1ba      	bne.n	8006408 <__swsetup_r+0x30>
 8006492:	bd70      	pop	{r4, r5, r6, pc}
 8006494:	0781      	lsls	r1, r0, #30
 8006496:	bf58      	it	pl
 8006498:	6963      	ldrpl	r3, [r4, #20]
 800649a:	60a3      	str	r3, [r4, #8]
 800649c:	e7f4      	b.n	8006488 <__swsetup_r+0xb0>
 800649e:	2000      	movs	r0, #0
 80064a0:	e7f7      	b.n	8006492 <__swsetup_r+0xba>
 80064a2:	bf00      	nop
 80064a4:	20000184 	.word	0x20000184
 80064a8:	080070fc 	.word	0x080070fc
 80064ac:	0800711c 	.word	0x0800711c
 80064b0:	080070dc 	.word	0x080070dc

080064b4 <__sflush_r>:
 80064b4:	898a      	ldrh	r2, [r1, #12]
 80064b6:	b5f8      	push	{r3, r4, r5, r6, r7, lr}
 80064b8:	4605      	mov	r5, r0
 80064ba:	0710      	lsls	r0, r2, #28
 80064bc:	460c      	mov	r4, r1
 80064be:	d457      	bmi.n	8006570 <__sflush_r+0xbc>
 80064c0:	684b      	ldr	r3, [r1, #4]
 80064c2:	2b00      	cmp	r3, #0
 80064c4:	dc04      	bgt.n	80064d0 <__sflush_r+0x1c>
 80064c6:	6c0b      	ldr	r3, [r1, #64]	; 0x40
 80064c8:	2b00      	cmp	r3, #0
 80064ca:	dc01      	bgt.n	80064d0 <__sflush_r+0x1c>
 80064cc:	2000      	movs	r0, #0
 80064ce:	bdf8      	pop	{r3, r4, r5, r6, r7, pc}
 80064d0:	6ae6      	ldr	r6, [r4, #44]	; 0x2c
 80064d2:	2e00      	cmp	r6, #0
 80064d4:	d0fa      	beq.n	80064cc <__sflush_r+0x18>
 80064d6:	2300      	movs	r3, #0
 80064d8:	f412 5280 	ands.w	r2, r2, #4096	; 0x1000
 80064dc:	682f      	ldr	r7, [r5, #0]
 80064de:	602b      	str	r3, [r5, #0]
 80064e0:	d032      	beq.n	8006548 <__sflush_r+0x94>
 80064e2:	6d60      	ldr	r0, [r4, #84]	; 0x54
 80064e4:	89a3      	ldrh	r3, [r4, #12]
 80064e6:	075a      	lsls	r2, r3, #29
 80064e8:	d505      	bpl.n	80064f6 <__sflush_r+0x42>
 80064ea:	6863      	ldr	r3, [r4, #4]
 80064ec:	1ac0      	subs	r0, r0, r3
 80064ee:	6b63      	ldr	r3, [r4, #52]	; 0x34
 80064f0:	b10b      	cbz	r3, 80064f6 <__sflush_r+0x42>
 80064f2:	6c23      	ldr	r3, [r4, #64]	; 0x40
 80064f4:	1ac0      	subs	r0, r0, r3
 80064f6:	2300      	movs	r3, #0
 80064f8:	4602      	mov	r2, r0
 80064fa:	6ae6      	ldr	r6, [r4, #44]	; 0x2c
 80064fc:	4628      	mov	r0, r5
 80064fe:	6a21      	ldr	r1, [r4, #32]
 8006500:	47b0      	blx	r6
 8006502:	1c43      	adds	r3, r0, #1
 8006504:	89a3      	ldrh	r3, [r4, #12]
 8006506:	d106      	bne.n	8006516 <__sflush_r+0x62>
 8006508:	6829      	ldr	r1, [r5, #0]
 800650a:	291d      	cmp	r1, #29
 800650c:	d82c      	bhi.n	8006568 <__sflush_r+0xb4>
 800650e:	4a29      	ldr	r2, [pc, #164]	; (80065b4 <__sflush_r+0x100>)
 8006510:	40ca      	lsrs	r2, r1
 8006512:	07d6      	lsls	r6, r2, #31
 8006514:	d528      	bpl.n	8006568 <__sflush_r+0xb4>
 8006516:	2200      	movs	r2, #0
 8006518:	6062      	str	r2, [r4, #4]
 800651a:	6922      	ldr	r2, [r4, #16]
 800651c:	04d9      	lsls	r1, r3, #19
 800651e:	6022      	str	r2, [r4, #0]
 8006520:	d504      	bpl.n	800652c <__sflush_r+0x78>
 8006522:	1c42      	adds	r2, r0, #1
 8006524:	d101      	bne.n	800652a <__sflush_r+0x76>
 8006526:	682b      	ldr	r3, [r5, #0]
 8006528:	b903      	cbnz	r3, 800652c <__sflush_r+0x78>
 800652a:	6560      	str	r0, [r4, #84]	; 0x54
 800652c:	6b61      	ldr	r1, [r4, #52]	; 0x34
 800652e:	602f      	str	r7, [r5, #0]
 8006530:	2900      	cmp	r1, #0
 8006532:	d0cb      	beq.n	80064cc <__sflush_r+0x18>
 8006534:	f104 0344 	add.w	r3, r4, #68	; 0x44
 8006538:	4299      	cmp	r1, r3
 800653a:	d002      	beq.n	8006542 <__sflush_r+0x8e>
 800653c:	4628      	mov	r0, r5
 800653e:	f7ff fa8f 	bl	8005a60 <_free_r>
 8006542:	2000      	movs	r0, #0
 8006544:	6360      	str	r0, [r4, #52]	; 0x34
 8006546:	e7c2      	b.n	80064ce <__sflush_r+0x1a>
 8006548:	6a21      	ldr	r1, [r4, #32]
 800654a:	2301      	movs	r3, #1
 800654c:	4628      	mov	r0, r5
 800654e:	47b0      	blx	r6
 8006550:	1c41      	adds	r1, r0, #1
 8006552:	d1c7      	bne.n	80064e4 <__sflush_r+0x30>
 8006554:	682b      	ldr	r3, [r5, #0]
 8006556:	2b00      	cmp	r3, #0
 8006558:	d0c4      	beq.n	80064e4 <__sflush_r+0x30>
 800655a:	2b1d      	cmp	r3, #29
 800655c:	d001      	beq.n	8006562 <__sflush_r+0xae>
 800655e:	2b16      	cmp	r3, #22
 8006560:	d101      	bne.n	8006566 <__sflush_r+0xb2>
 8006562:	602f      	str	r7, [r5, #0]
 8006564:	e7b2      	b.n	80064cc <__sflush_r+0x18>
 8006566:	89a3      	ldrh	r3, [r4, #12]
 8006568:	f043 0340 	orr.w	r3, r3, #64	; 0x40
 800656c:	81a3      	strh	r3, [r4, #12]
 800656e:	e7ae      	b.n	80064ce <__sflush_r+0x1a>
 8006570:	690f      	ldr	r7, [r1, #16]
 8006572:	2f00      	cmp	r7, #0
 8006574:	d0aa      	beq.n	80064cc <__sflush_r+0x18>
 8006576:	0793      	lsls	r3, r2, #30
 8006578:	bf18      	it	ne
 800657a:	2300      	movne	r3, #0
 800657c:	680e      	ldr	r6, [r1, #0]
 800657e:	bf08      	it	eq
 8006580:	694b      	ldreq	r3, [r1, #20]
 8006582:	1bf6      	subs	r6, r6, r7
 8006584:	600f      	str	r7, [r1, #0]
 8006586:	608b      	str	r3, [r1, #8]
 8006588:	2e00      	cmp	r6, #0
 800658a:	dd9f      	ble.n	80064cc <__sflush_r+0x18>
 800658c:	4633      	mov	r3, r6
 800658e:	463a      	mov	r2, r7
 8006590:	4628      	mov	r0, r5
 8006592:	6a21      	ldr	r1, [r4, #32]
 8006594:	f8d4 c028 	ldr.w	ip, [r4, #40]	; 0x28
 8006598:	47e0      	blx	ip
 800659a:	2800      	cmp	r0, #0
 800659c:	dc06      	bgt.n	80065ac <__sflush_r+0xf8>
 800659e:	89a3      	ldrh	r3, [r4, #12]
 80065a0:	f04f 30ff 	mov.w	r0, #4294967295
 80065a4:	f043 0340 	orr.w	r3, r3, #64	; 0x40
 80065a8:	81a3      	strh	r3, [r4, #12]
 80065aa:	e790      	b.n	80064ce <__sflush_r+0x1a>
 80065ac:	4407      	add	r7, r0
 80065ae:	1a36      	subs	r6, r6, r0
 80065b0:	e7ea      	b.n	8006588 <__sflush_r+0xd4>
 80065b2:	bf00      	nop
 80065b4:	20400001 	.word	0x20400001

080065b8 <_fflush_r>:
 80065b8:	b538      	push	{r3, r4, r5, lr}
 80065ba:	690b      	ldr	r3, [r1, #16]
 80065bc:	4605      	mov	r5, r0
 80065be:	460c      	mov	r4, r1
 80065c0:	b913      	cbnz	r3, 80065c8 <_fflush_r+0x10>
 80065c2:	2500      	movs	r5, #0
 80065c4:	4628      	mov	r0, r5
 80065c6:	bd38      	pop	{r3, r4, r5, pc}
 80065c8:	b118      	cbz	r0, 80065d2 <_fflush_r+0x1a>
 80065ca:	6983      	ldr	r3, [r0, #24]
 80065cc:	b90b      	cbnz	r3, 80065d2 <_fflush_r+0x1a>
 80065ce:	f000 f887 	bl	80066e0 <__sinit>
 80065d2:	4b14      	ldr	r3, [pc, #80]	; (8006624 <_fflush_r+0x6c>)
 80065d4:	429c      	cmp	r4, r3
 80065d6:	d11b      	bne.n	8006610 <_fflush_r+0x58>
 80065d8:	686c      	ldr	r4, [r5, #4]
 80065da:	f9b4 300c 	ldrsh.w	r3, [r4, #12]
 80065de:	2b00      	cmp	r3, #0
 80065e0:	d0ef      	beq.n	80065c2 <_fflush_r+0xa>
 80065e2:	6e62      	ldr	r2, [r4, #100]	; 0x64
 80065e4:	07d0      	lsls	r0, r2, #31
 80065e6:	d404      	bmi.n	80065f2 <_fflush_r+0x3a>
 80065e8:	0599      	lsls	r1, r3, #22
 80065ea:	d402      	bmi.n	80065f2 <_fflush_r+0x3a>
 80065ec:	6da0      	ldr	r0, [r4, #88]	; 0x58
 80065ee:	f000 f915 	bl	800681c <__retarget_lock_acquire_recursive>
 80065f2:	4628      	mov	r0, r5
 80065f4:	4621      	mov	r1, r4
 80065f6:	f7ff ff5d 	bl	80064b4 <__sflush_r>
 80065fa:	6e63      	ldr	r3, [r4, #100]	; 0x64
 80065fc:	4605      	mov	r5, r0
 80065fe:	07da      	lsls	r2, r3, #31
 8006600:	d4e0      	bmi.n	80065c4 <_fflush_r+0xc>
 8006602:	89a3      	ldrh	r3, [r4, #12]
 8006604:	059b      	lsls	r3, r3, #22
 8006606:	d4dd      	bmi.n	80065c4 <_fflush_r+0xc>
 8006608:	6da0      	ldr	r0, [r4, #88]	; 0x58
 800660a:	f000 f908 	bl	800681e <__retarget_lock_release_recursive>
 800660e:	e7d9      	b.n	80065c4 <_fflush_r+0xc>
 8006610:	4b05      	ldr	r3, [pc, #20]	; (8006628 <_fflush_r+0x70>)
 8006612:	429c      	cmp	r4, r3
 8006614:	d101      	bne.n	800661a <_fflush_r+0x62>
 8006616:	68ac      	ldr	r4, [r5, #8]
 8006618:	e7df      	b.n	80065da <_fflush_r+0x22>
 800661a:	4b04      	ldr	r3, [pc, #16]	; (800662c <_fflush_r+0x74>)
 800661c:	429c      	cmp	r4, r3
 800661e:	bf08      	it	eq
 8006620:	68ec      	ldreq	r4, [r5, #12]
 8006622:	e7da      	b.n	80065da <_fflush_r+0x22>
 8006624:	080070fc 	.word	0x080070fc
 8006628:	0800711c 	.word	0x0800711c
 800662c:	080070dc 	.word	0x080070dc

08006630 <std>:
 8006630:	2300      	movs	r3, #0
 8006632:	b510      	push	{r4, lr}
 8006634:	4604      	mov	r4, r0
 8006636:	e9c0 3300 	strd	r3, r3, [r0]
 800663a:	e9c0 3304 	strd	r3, r3, [r0, #16]
 800663e:	6083      	str	r3, [r0, #8]
 8006640:	8181      	strh	r1, [r0, #12]
 8006642:	6643      	str	r3, [r0, #100]	; 0x64
 8006644:	81c2      	strh	r2, [r0, #14]
 8006646:	6183      	str	r3, [r0, #24]
 8006648:	4619      	mov	r1, r3
 800664a:	2208      	movs	r2, #8
 800664c:	305c      	adds	r0, #92	; 0x5c
 800664e:	f7ff f9ff 	bl	8005a50 <memset>
 8006652:	4b05      	ldr	r3, [pc, #20]	; (8006668 <std+0x38>)
 8006654:	6224      	str	r4, [r4, #32]
 8006656:	6263      	str	r3, [r4, #36]	; 0x24
 8006658:	4b04      	ldr	r3, [pc, #16]	; (800666c <std+0x3c>)
 800665a:	62a3      	str	r3, [r4, #40]	; 0x28
 800665c:	4b04      	ldr	r3, [pc, #16]	; (8006670 <std+0x40>)
 800665e:	62e3      	str	r3, [r4, #44]	; 0x2c
 8006660:	4b04      	ldr	r3, [pc, #16]	; (8006674 <std+0x44>)
 8006662:	6323      	str	r3, [r4, #48]	; 0x30
 8006664:	bd10      	pop	{r4, pc}
 8006666:	bf00      	nop
 8006668:	08006c8d 	.word	0x08006c8d
 800666c:	08006caf 	.word	0x08006caf
 8006670:	08006ce7 	.word	0x08006ce7
 8006674:	08006d0b 	.word	0x08006d0b

08006678 <_cleanup_r>:
 8006678:	4901      	ldr	r1, [pc, #4]	; (8006680 <_cleanup_r+0x8>)
 800667a:	f000 b8af 	b.w	80067dc <_fwalk_reent>
 800667e:	bf00      	nop
 8006680:	080065b9 	.word	0x080065b9

08006684 <__sfmoreglue>:
 8006684:	2268      	movs	r2, #104	; 0x68
 8006686:	b570      	push	{r4, r5, r6, lr}
 8006688:	1e4d      	subs	r5, r1, #1
 800668a:	4355      	muls	r5, r2
 800668c:	460e      	mov	r6, r1
 800668e:	f105 0174 	add.w	r1, r5, #116	; 0x74
 8006692:	f7ff fa4d 	bl	8005b30 <_malloc_r>
 8006696:	4604      	mov	r4, r0
 8006698:	b140      	cbz	r0, 80066ac <__sfmoreglue+0x28>
 800669a:	2100      	movs	r1, #0
 800669c:	e9c0 1600 	strd	r1, r6, [r0]
 80066a0:	300c      	adds	r0, #12
 80066a2:	60a0      	str	r0, [r4, #8]
 80066a4:	f105 0268 	add.w	r2, r5, #104	; 0x68
 80066a8:	f7ff f9d2 	bl	8005a50 <memset>
 80066ac:	4620      	mov	r0, r4
 80066ae:	bd70      	pop	{r4, r5, r6, pc}

080066b0 <__sfp_lock_acquire>:
 80066b0:	4801      	ldr	r0, [pc, #4]	; (80066b8 <__sfp_lock_acquire+0x8>)
 80066b2:	f000 b8b3 	b.w	800681c <__retarget_lock_acquire_recursive>
 80066b6:	bf00      	nop
 80066b8:	200015c1 	.word	0x200015c1

080066bc <__sfp_lock_release>:
 80066bc:	4801      	ldr	r0, [pc, #4]	; (80066c4 <__sfp_lock_release+0x8>)
 80066be:	f000 b8ae 	b.w	800681e <__retarget_lock_release_recursive>
 80066c2:	bf00      	nop
 80066c4:	200015c1 	.word	0x200015c1

080066c8 <__sinit_lock_acquire>:
 80066c8:	4801      	ldr	r0, [pc, #4]	; (80066d0 <__sinit_lock_acquire+0x8>)
 80066ca:	f000 b8a7 	b.w	800681c <__retarget_lock_acquire_recursive>
 80066ce:	bf00      	nop
 80066d0:	200015c2 	.word	0x200015c2

080066d4 <__sinit_lock_release>:
 80066d4:	4801      	ldr	r0, [pc, #4]	; (80066dc <__sinit_lock_release+0x8>)
 80066d6:	f000 b8a2 	b.w	800681e <__retarget_lock_release_recursive>
 80066da:	bf00      	nop
 80066dc:	200015c2 	.word	0x200015c2

080066e0 <__sinit>:
 80066e0:	b510      	push	{r4, lr}
 80066e2:	4604      	mov	r4, r0
 80066e4:	f7ff fff0 	bl	80066c8 <__sinit_lock_acquire>
 80066e8:	69a3      	ldr	r3, [r4, #24]
 80066ea:	b11b      	cbz	r3, 80066f4 <__sinit+0x14>
 80066ec:	e8bd 4010 	ldmia.w	sp!, {r4, lr}
 80066f0:	f7ff bff0 	b.w	80066d4 <__sinit_lock_release>
 80066f4:	e9c4 3312 	strd	r3, r3, [r4, #72]	; 0x48
 80066f8:	6523      	str	r3, [r4, #80]	; 0x50
 80066fa:	4b13      	ldr	r3, [pc, #76]	; (8006748 <__sinit+0x68>)
 80066fc:	4a13      	ldr	r2, [pc, #76]	; (800674c <__sinit+0x6c>)
 80066fe:	681b      	ldr	r3, [r3, #0]
 8006700:	62a2      	str	r2, [r4, #40]	; 0x28
 8006702:	42a3      	cmp	r3, r4
 8006704:	bf08      	it	eq
 8006706:	2301      	moveq	r3, #1
 8006708:	4620      	mov	r0, r4
 800670a:	bf08      	it	eq
 800670c:	61a3      	streq	r3, [r4, #24]
 800670e:	f000 f81f 	bl	8006750 <__sfp>
 8006712:	6060      	str	r0, [r4, #4]
 8006714:	4620      	mov	r0, r4
 8006716:	f000 f81b 	bl	8006750 <__sfp>
 800671a:	60a0      	str	r0, [r4, #8]
 800671c:	4620      	mov	r0, r4
 800671e:	f000 f817 	bl	8006750 <__sfp>
 8006722:	2200      	movs	r2, #0
 8006724:	2104      	movs	r1, #4
 8006726:	60e0      	str	r0, [r4, #12]
 8006728:	6860      	ldr	r0, [r4, #4]
 800672a:	f7ff ff81 	bl	8006630 <std>
 800672e:	2201      	movs	r2, #1
 8006730:	2109      	movs	r1, #9
 8006732:	68a0      	ldr	r0, [r4, #8]
 8006734:	f7ff ff7c 	bl	8006630 <std>
 8006738:	2202      	movs	r2, #2
 800673a:	2112      	movs	r1, #18
 800673c:	68e0      	ldr	r0, [r4, #12]
 800673e:	f7ff ff77 	bl	8006630 <std>
 8006742:	2301      	movs	r3, #1
 8006744:	61a3      	str	r3, [r4, #24]
 8006746:	e7d1      	b.n	80066ec <__sinit+0xc>
 8006748:	080070a4 	.word	0x080070a4
 800674c:	08006679 	.word	0x08006679

08006750 <__sfp>:
 8006750:	b5f8      	push	{r3, r4, r5, r6, r7, lr}
 8006752:	4607      	mov	r7, r0
 8006754:	f7ff ffac 	bl	80066b0 <__sfp_lock_acquire>
 8006758:	4b1e      	ldr	r3, [pc, #120]	; (80067d4 <__sfp+0x84>)
 800675a:	681e      	ldr	r6, [r3, #0]
 800675c:	69b3      	ldr	r3, [r6, #24]
 800675e:	b913      	cbnz	r3, 8006766 <__sfp+0x16>
 8006760:	4630      	mov	r0, r6
 8006762:	f7ff ffbd 	bl	80066e0 <__sinit>
 8006766:	3648      	adds	r6, #72	; 0x48
 8006768:	e9d6 3401 	ldrd	r3, r4, [r6, #4]
 800676c:	3b01      	subs	r3, #1
 800676e:	d503      	bpl.n	8006778 <__sfp+0x28>
 8006770:	6833      	ldr	r3, [r6, #0]
 8006772:	b30b      	cbz	r3, 80067b8 <__sfp+0x68>
 8006774:	6836      	ldr	r6, [r6, #0]
 8006776:	e7f7      	b.n	8006768 <__sfp+0x18>
 8006778:	f9b4 500c 	ldrsh.w	r5, [r4, #12]
 800677c:	b9d5      	cbnz	r5, 80067b4 <__sfp+0x64>
 800677e:	4b16      	ldr	r3, [pc, #88]	; (80067d8 <__sfp+0x88>)
 8006780:	f104 0058 	add.w	r0, r4, #88	; 0x58
 8006784:	60e3      	str	r3, [r4, #12]
 8006786:	6665      	str	r5, [r4, #100]	; 0x64
 8006788:	f000 f847 	bl	800681a <__retarget_lock_init_recursive>
 800678c:	f7ff ff96 	bl	80066bc <__sfp_lock_release>
 8006790:	2208      	movs	r2, #8
 8006792:	4629      	mov	r1, r5
 8006794:	e9c4 5501 	strd	r5, r5, [r4, #4]
 8006798:	e9c4 5504 	strd	r5, r5, [r4, #16]
 800679c:	6025      	str	r5, [r4, #0]
 800679e:	61a5      	str	r5, [r4, #24]
 80067a0:	f104 005c 	add.w	r0, r4, #92	; 0x5c
 80067a4:	f7ff f954 	bl	8005a50 <memset>
 80067a8:	e9c4 550d 	strd	r5, r5, [r4, #52]	; 0x34
 80067ac:	e9c4 5512 	strd	r5, r5, [r4, #72]	; 0x48
 80067b0:	4620      	mov	r0, r4
 80067b2:	bdf8      	pop	{r3, r4, r5, r6, r7, pc}
 80067b4:	3468      	adds	r4, #104	; 0x68
 80067b6:	e7d9      	b.n	800676c <__sfp+0x1c>
 80067b8:	2104      	movs	r1, #4
 80067ba:	4638      	mov	r0, r7
 80067bc:	f7ff ff62 	bl	8006684 <__sfmoreglue>
 80067c0:	4604      	mov	r4, r0
 80067c2:	6030      	str	r0, [r6, #0]
 80067c4:	2800      	cmp	r0, #0
 80067c6:	d1d5      	bne.n	8006774 <__sfp+0x24>
 80067c8:	f7ff ff78 	bl	80066bc <__sfp_lock_release>
 80067cc:	230c      	movs	r3, #12
 80067ce:	603b      	str	r3, [r7, #0]
 80067d0:	e7ee      	b.n	80067b0 <__sfp+0x60>
 80067d2:	bf00      	nop
 80067d4:	080070a4 	.word	0x080070a4
 80067d8:	ffff0001 	.word	0xffff0001

080067dc <_fwalk_reent>:
 80067dc:	e92d 43f8 	stmdb	sp!, {r3, r4, r5, r6, r7, r8, r9, lr}
 80067e0:	4606      	mov	r6, r0
 80067e2:	4688      	mov	r8, r1
 80067e4:	2700      	movs	r7, #0
 80067e6:	f100 0448 	add.w	r4, r0, #72	; 0x48
 80067ea:	e9d4 9501 	ldrd	r9, r5, [r4, #4]
 80067ee:	f1b9 0901 	subs.w	r9, r9, #1
 80067f2:	d505      	bpl.n	8006800 <_fwalk_reent+0x24>
 80067f4:	6824      	ldr	r4, [r4, #0]
 80067f6:	2c00      	cmp	r4, #0
 80067f8:	d1f7      	bne.n	80067ea <_fwalk_reent+0xe>
 80067fa:	4638      	mov	r0, r7
 80067fc:	e8bd 83f8 	ldmia.w	sp!, {r3, r4, r5, r6, r7, r8, r9, pc}
 8006800:	89ab      	ldrh	r3, [r5, #12]
 8006802:	2b01      	cmp	r3, #1
 8006804:	d907      	bls.n	8006816 <_fwalk_reent+0x3a>
 8006806:	f9b5 300e 	ldrsh.w	r3, [r5, #14]
 800680a:	3301      	adds	r3, #1
 800680c:	d003      	beq.n	8006816 <_fwalk_reent+0x3a>
 800680e:	4629      	mov	r1, r5
 8006810:	4630      	mov	r0, r6
 8006812:	47c0      	blx	r8
 8006814:	4307      	orrs	r7, r0
 8006816:	3568      	adds	r5, #104	; 0x68
 8006818:	e7e9      	b.n	80067ee <_fwalk_reent+0x12>

0800681a <__retarget_lock_init_recursive>:
 800681a:	4770      	bx	lr

0800681c <__retarget_lock_acquire_recursive>:
 800681c:	4770      	bx	lr

0800681e <__retarget_lock_release_recursive>:
 800681e:	4770      	bx	lr

08006820 <__swhatbuf_r>:
 8006820:	b570      	push	{r4, r5, r6, lr}
 8006822:	460e      	mov	r6, r1
 8006824:	f9b1 100e 	ldrsh.w	r1, [r1, #14]
 8006828:	4614      	mov	r4, r2
 800682a:	2900      	cmp	r1, #0
 800682c:	461d      	mov	r5, r3
 800682e:	b096      	sub	sp, #88	; 0x58
 8006830:	da08      	bge.n	8006844 <__swhatbuf_r+0x24>
 8006832:	2200      	movs	r2, #0
 8006834:	f9b6 300c 	ldrsh.w	r3, [r6, #12]
 8006838:	602a      	str	r2, [r5, #0]
 800683a:	061a      	lsls	r2, r3, #24
 800683c:	d410      	bmi.n	8006860 <__swhatbuf_r+0x40>
 800683e:	f44f 6380 	mov.w	r3, #1024	; 0x400
 8006842:	e00e      	b.n	8006862 <__swhatbuf_r+0x42>
 8006844:	466a      	mov	r2, sp
 8006846:	f000 fa75 	bl	8006d34 <_fstat_r>
 800684a:	2800      	cmp	r0, #0
 800684c:	dbf1      	blt.n	8006832 <__swhatbuf_r+0x12>
 800684e:	9a01      	ldr	r2, [sp, #4]
 8006850:	f402 4270 	and.w	r2, r2, #61440	; 0xf000
 8006854:	f5a2 5300 	sub.w	r3, r2, #8192	; 0x2000
 8006858:	425a      	negs	r2, r3
 800685a:	415a      	adcs	r2, r3
 800685c:	602a      	str	r2, [r5, #0]
 800685e:	e7ee      	b.n	800683e <__swhatbuf_r+0x1e>
 8006860:	2340      	movs	r3, #64	; 0x40
 8006862:	2000      	movs	r0, #0
 8006864:	6023      	str	r3, [r4, #0]
 8006866:	b016      	add	sp, #88	; 0x58
 8006868:	bd70      	pop	{r4, r5, r6, pc}
	...

0800686c <__smakebuf_r>:
 800686c:	898b      	ldrh	r3, [r1, #12]
 800686e:	b573      	push	{r0, r1, r4, r5, r6, lr}
 8006870:	079d      	lsls	r5, r3, #30
 8006872:	4606      	mov	r6, r0
 8006874:	460c      	mov	r4, r1
 8006876:	d507      	bpl.n	8006888 <__smakebuf_r+0x1c>
 8006878:	f104 0347 	add.w	r3, r4, #71	; 0x47
 800687c:	6023      	str	r3, [r4, #0]
 800687e:	6123      	str	r3, [r4, #16]
 8006880:	2301      	movs	r3, #1
 8006882:	6163      	str	r3, [r4, #20]
 8006884:	b002      	add	sp, #8
 8006886:	bd70      	pop	{r4, r5, r6, pc}
 8006888:	466a      	mov	r2, sp
 800688a:	ab01      	add	r3, sp, #4
 800688c:	f7ff ffc8 	bl	8006820 <__swhatbuf_r>
 8006890:	9900      	ldr	r1, [sp, #0]
 8006892:	4605      	mov	r5, r0
 8006894:	4630      	mov	r0, r6
 8006896:	f7ff f94b 	bl	8005b30 <_malloc_r>
 800689a:	b948      	cbnz	r0, 80068b0 <__smakebuf_r+0x44>
 800689c:	f9b4 300c 	ldrsh.w	r3, [r4, #12]
 80068a0:	059a      	lsls	r2, r3, #22
 80068a2:	d4ef      	bmi.n	8006884 <__smakebuf_r+0x18>
 80068a4:	f023 0303 	bic.w	r3, r3, #3
 80068a8:	f043 0302 	orr.w	r3, r3, #2
 80068ac:	81a3      	strh	r3, [r4, #12]
 80068ae:	e7e3      	b.n	8006878 <__smakebuf_r+0xc>
 80068b0:	4b0d      	ldr	r3, [pc, #52]	; (80068e8 <__smakebuf_r+0x7c>)
 80068b2:	62b3      	str	r3, [r6, #40]	; 0x28
 80068b4:	89a3      	ldrh	r3, [r4, #12]
 80068b6:	6020      	str	r0, [r4, #0]
 80068b8:	f043 0380 	orr.w	r3, r3, #128	; 0x80
 80068bc:	81a3      	strh	r3, [r4, #12]
 80068be:	9b00      	ldr	r3, [sp, #0]
 80068c0:	6120      	str	r0, [r4, #16]
 80068c2:	6163      	str	r3, [r4, #20]
 80068c4:	9b01      	ldr	r3, [sp, #4]
 80068c6:	b15b      	cbz	r3, 80068e0 <__smakebuf_r+0x74>
 80068c8:	4630      	mov	r0, r6
 80068ca:	f9b4 100e 	ldrsh.w	r1, [r4, #14]
 80068ce:	f000 fa43 	bl	8006d58 <_isatty_r>
 80068d2:	b128      	cbz	r0, 80068e0 <__smakebuf_r+0x74>
 80068d4:	89a3      	ldrh	r3, [r4, #12]
 80068d6:	f023 0303 	bic.w	r3, r3, #3
 80068da:	f043 0301 	orr.w	r3, r3, #1
 80068de:	81a3      	strh	r3, [r4, #12]
 80068e0:	89a0      	ldrh	r0, [r4, #12]
 80068e2:	4305      	orrs	r5, r0
 80068e4:	81a5      	strh	r5, [r4, #12]
 80068e6:	e7cd      	b.n	8006884 <__smakebuf_r+0x18>
 80068e8:	08006679 	.word	0x08006679

080068ec <memchr>:
 80068ec:	4603      	mov	r3, r0
 80068ee:	b510      	push	{r4, lr}
 80068f0:	b2c9      	uxtb	r1, r1
 80068f2:	4402      	add	r2, r0
 80068f4:	4293      	cmp	r3, r2
 80068f6:	4618      	mov	r0, r3
 80068f8:	d101      	bne.n	80068fe <memchr+0x12>
 80068fa:	2000      	movs	r0, #0
 80068fc:	e003      	b.n	8006906 <memchr+0x1a>
 80068fe:	7804      	ldrb	r4, [r0, #0]
 8006900:	3301      	adds	r3, #1
 8006902:	428c      	cmp	r4, r1
 8006904:	d1f6      	bne.n	80068f4 <memchr+0x8>
 8006906:	bd10      	pop	{r4, pc}

08006908 <memmove>:
 8006908:	4288      	cmp	r0, r1
 800690a:	b510      	push	{r4, lr}
 800690c:	eb01 0402 	add.w	r4, r1, r2
 8006910:	d902      	bls.n	8006918 <memmove+0x10>
 8006912:	4284      	cmp	r4, r0
 8006914:	4623      	mov	r3, r4
 8006916:	d807      	bhi.n	8006928 <memmove+0x20>
 8006918:	1e43      	subs	r3, r0, #1
 800691a:	42a1      	cmp	r1, r4
 800691c:	d008      	beq.n	8006930 <memmove+0x28>
 800691e:	f811 2b01 	ldrb.w	r2, [r1], #1
 8006922:	f803 2f01 	strb.w	r2, [r3, #1]!
 8006926:	e7f8      	b.n	800691a <memmove+0x12>
 8006928:	4601      	mov	r1, r0
 800692a:	4402      	add	r2, r0
 800692c:	428a      	cmp	r2, r1
 800692e:	d100      	bne.n	8006932 <memmove+0x2a>
 8006930:	bd10      	pop	{r4, pc}
 8006932:	f813 4d01 	ldrb.w	r4, [r3, #-1]!
 8006936:	f802 4d01 	strb.w	r4, [r2, #-1]!
 800693a:	e7f7      	b.n	800692c <memmove+0x24>

0800693c <__malloc_lock>:
 800693c:	4801      	ldr	r0, [pc, #4]	; (8006944 <__malloc_lock+0x8>)
 800693e:	f7ff bf6d 	b.w	800681c <__retarget_lock_acquire_recursive>
 8006942:	bf00      	nop
 8006944:	200015c0 	.word	0x200015c0

08006948 <__malloc_unlock>:
 8006948:	4801      	ldr	r0, [pc, #4]	; (8006950 <__malloc_unlock+0x8>)
 800694a:	f7ff bf68 	b.w	800681e <__retarget_lock_release_recursive>
 800694e:	bf00      	nop
 8006950:	200015c0 	.word	0x200015c0

08006954 <_realloc_r>:
 8006954:	e92d 41f0 	stmdb	sp!, {r4, r5, r6, r7, r8, lr}
 8006958:	4680      	mov	r8, r0
 800695a:	4614      	mov	r4, r2
 800695c:	460e      	mov	r6, r1
 800695e:	b921      	cbnz	r1, 800696a <_realloc_r+0x16>
 8006960:	4611      	mov	r1, r2
 8006962:	e8bd 41f0 	ldmia.w	sp!, {r4, r5, r6, r7, r8, lr}
 8006966:	f7ff b8e3 	b.w	8005b30 <_malloc_r>
 800696a:	b92a      	cbnz	r2, 8006978 <_realloc_r+0x24>
 800696c:	f7ff f878 	bl	8005a60 <_free_r>
 8006970:	4625      	mov	r5, r4
 8006972:	4628      	mov	r0, r5
 8006974:	e8bd 81f0 	ldmia.w	sp!, {r4, r5, r6, r7, r8, pc}
 8006978:	f000 fa10 	bl	8006d9c <_malloc_usable_size_r>
 800697c:	4284      	cmp	r4, r0
 800697e:	4607      	mov	r7, r0
 8006980:	d802      	bhi.n	8006988 <_realloc_r+0x34>
 8006982:	ebb4 0f50 	cmp.w	r4, r0, lsr #1
 8006986:	d812      	bhi.n	80069ae <_realloc_r+0x5a>
 8006988:	4621      	mov	r1, r4
 800698a:	4640      	mov	r0, r8
 800698c:	f7ff f8d0 	bl	8005b30 <_malloc_r>
 8006990:	4605      	mov	r5, r0
 8006992:	2800      	cmp	r0, #0
 8006994:	d0ed      	beq.n	8006972 <_realloc_r+0x1e>
 8006996:	42bc      	cmp	r4, r7
 8006998:	4622      	mov	r2, r4
 800699a:	4631      	mov	r1, r6
 800699c:	bf28      	it	cs
 800699e:	463a      	movcs	r2, r7
 80069a0:	f7ff f848 	bl	8005a34 <memcpy>
 80069a4:	4631      	mov	r1, r6
 80069a6:	4640      	mov	r0, r8
 80069a8:	f7ff f85a 	bl	8005a60 <_free_r>
 80069ac:	e7e1      	b.n	8006972 <_realloc_r+0x1e>
 80069ae:	4635      	mov	r5, r6
 80069b0:	e7df      	b.n	8006972 <_realloc_r+0x1e>

080069b2 <__ssputs_r>:
 80069b2:	e92d 47f0 	stmdb	sp!, {r4, r5, r6, r7, r8, r9, sl, lr}
 80069b6:	688e      	ldr	r6, [r1, #8]
 80069b8:	4682      	mov	sl, r0
 80069ba:	429e      	cmp	r6, r3
 80069bc:	460c      	mov	r4, r1
 80069be:	4690      	mov	r8, r2
 80069c0:	461f      	mov	r7, r3
 80069c2:	d838      	bhi.n	8006a36 <__ssputs_r+0x84>
 80069c4:	898a      	ldrh	r2, [r1, #12]
 80069c6:	f412 6f90 	tst.w	r2, #1152	; 0x480
 80069ca:	d032      	beq.n	8006a32 <__ssputs_r+0x80>
 80069cc:	6825      	ldr	r5, [r4, #0]
 80069ce:	6909      	ldr	r1, [r1, #16]
 80069d0:	3301      	adds	r3, #1
 80069d2:	eba5 0901 	sub.w	r9, r5, r1
 80069d6:	6965      	ldr	r5, [r4, #20]
 80069d8:	444b      	add	r3, r9
 80069da:	eb05 0545 	add.w	r5, r5, r5, lsl #1
 80069de:	eb05 75d5 	add.w	r5, r5, r5, lsr #31
 80069e2:	106d      	asrs	r5, r5, #1
 80069e4:	429d      	cmp	r5, r3
 80069e6:	bf38      	it	cc
 80069e8:	461d      	movcc	r5, r3
 80069ea:	0553      	lsls	r3, r2, #21
 80069ec:	d531      	bpl.n	8006a52 <__ssputs_r+0xa0>
 80069ee:	4629      	mov	r1, r5
 80069f0:	f7ff f89e 	bl	8005b30 <_malloc_r>
 80069f4:	4606      	mov	r6, r0
 80069f6:	b950      	cbnz	r0, 8006a0e <__ssputs_r+0x5c>
 80069f8:	230c      	movs	r3, #12
 80069fa:	f04f 30ff 	mov.w	r0, #4294967295
 80069fe:	f8ca 3000 	str.w	r3, [sl]
 8006a02:	89a3      	ldrh	r3, [r4, #12]
 8006a04:	f043 0340 	orr.w	r3, r3, #64	; 0x40
 8006a08:	81a3      	strh	r3, [r4, #12]
 8006a0a:	e8bd 87f0 	ldmia.w	sp!, {r4, r5, r6, r7, r8, r9, sl, pc}
 8006a0e:	464a      	mov	r2, r9
 8006a10:	6921      	ldr	r1, [r4, #16]
 8006a12:	f7ff f80f 	bl	8005a34 <memcpy>
 8006a16:	89a3      	ldrh	r3, [r4, #12]
 8006a18:	f423 6390 	bic.w	r3, r3, #1152	; 0x480
 8006a1c:	f043 0380 	orr.w	r3, r3, #128	; 0x80
 8006a20:	81a3      	strh	r3, [r4, #12]
 8006a22:	6126      	str	r6, [r4, #16]
 8006a24:	444e      	add	r6, r9
 8006a26:	6026      	str	r6, [r4, #0]
 8006a28:	463e      	mov	r6, r7
 8006a2a:	6165      	str	r5, [r4, #20]
 8006a2c:	eba5 0509 	sub.w	r5, r5, r9
 8006a30:	60a5      	str	r5, [r4, #8]
 8006a32:	42be      	cmp	r6, r7
 8006a34:	d900      	bls.n	8006a38 <__ssputs_r+0x86>
 8006a36:	463e      	mov	r6, r7
 8006a38:	4632      	mov	r2, r6
 8006a3a:	4641      	mov	r1, r8
 8006a3c:	6820      	ldr	r0, [r4, #0]
 8006a3e:	f7ff ff63 	bl	8006908 <memmove>
 8006a42:	68a3      	ldr	r3, [r4, #8]
 8006a44:	2000      	movs	r0, #0
 8006a46:	1b9b      	subs	r3, r3, r6
 8006a48:	60a3      	str	r3, [r4, #8]
 8006a4a:	6823      	ldr	r3, [r4, #0]
 8006a4c:	4433      	add	r3, r6
 8006a4e:	6023      	str	r3, [r4, #0]
 8006a50:	e7db      	b.n	8006a0a <__ssputs_r+0x58>
 8006a52:	462a      	mov	r2, r5
 8006a54:	f7ff ff7e 	bl	8006954 <_realloc_r>
 8006a58:	4606      	mov	r6, r0
 8006a5a:	2800      	cmp	r0, #0
 8006a5c:	d1e1      	bne.n	8006a22 <__ssputs_r+0x70>
 8006a5e:	4650      	mov	r0, sl
 8006a60:	6921      	ldr	r1, [r4, #16]
 8006a62:	f7fe fffd 	bl	8005a60 <_free_r>
 8006a66:	e7c7      	b.n	80069f8 <__ssputs_r+0x46>

08006a68 <_svfiprintf_r>:
 8006a68:	e92d 4ff0 	stmdb	sp!, {r4, r5, r6, r7, r8, r9, sl, fp, lr}
 8006a6c:	4698      	mov	r8, r3
 8006a6e:	898b      	ldrh	r3, [r1, #12]
 8006a70:	4607      	mov	r7, r0
 8006a72:	061b      	lsls	r3, r3, #24
 8006a74:	460d      	mov	r5, r1
 8006a76:	4614      	mov	r4, r2
 8006a78:	b09d      	sub	sp, #116	; 0x74
 8006a7a:	d50e      	bpl.n	8006a9a <_svfiprintf_r+0x32>
 8006a7c:	690b      	ldr	r3, [r1, #16]
 8006a7e:	b963      	cbnz	r3, 8006a9a <_svfiprintf_r+0x32>
 8006a80:	2140      	movs	r1, #64	; 0x40
 8006a82:	f7ff f855 	bl	8005b30 <_malloc_r>
 8006a86:	6028      	str	r0, [r5, #0]
 8006a88:	6128      	str	r0, [r5, #16]
 8006a8a:	b920      	cbnz	r0, 8006a96 <_svfiprintf_r+0x2e>
 8006a8c:	230c      	movs	r3, #12
 8006a8e:	603b      	str	r3, [r7, #0]
 8006a90:	f04f 30ff 	mov.w	r0, #4294967295
 8006a94:	e0d1      	b.n	8006c3a <_svfiprintf_r+0x1d2>
 8006a96:	2340      	movs	r3, #64	; 0x40
 8006a98:	616b      	str	r3, [r5, #20]
 8006a9a:	2300      	movs	r3, #0
 8006a9c:	9309      	str	r3, [sp, #36]	; 0x24
 8006a9e:	2320      	movs	r3, #32
 8006aa0:	f88d 3029 	strb.w	r3, [sp, #41]	; 0x29
 8006aa4:	2330      	movs	r3, #48	; 0x30
 8006aa6:	f04f 0901 	mov.w	r9, #1
 8006aaa:	f8cd 800c 	str.w	r8, [sp, #12]
 8006aae:	f8df 81a4 	ldr.w	r8, [pc, #420]	; 8006c54 <_svfiprintf_r+0x1ec>
 8006ab2:	f88d 302a 	strb.w	r3, [sp, #42]	; 0x2a
 8006ab6:	4623      	mov	r3, r4
 8006ab8:	469a      	mov	sl, r3
 8006aba:	f813 2b01 	ldrb.w	r2, [r3], #1
 8006abe:	b10a      	cbz	r2, 8006ac4 <_svfiprintf_r+0x5c>
 8006ac0:	2a25      	cmp	r2, #37	; 0x25
 8006ac2:	d1f9      	bne.n	8006ab8 <_svfiprintf_r+0x50>
 8006ac4:	ebba 0b04 	subs.w	fp, sl, r4
 8006ac8:	d00b      	beq.n	8006ae2 <_svfiprintf_r+0x7a>
 8006aca:	465b      	mov	r3, fp
 8006acc:	4622      	mov	r2, r4
 8006ace:	4629      	mov	r1, r5
 8006ad0:	4638      	mov	r0, r7
 8006ad2:	f7ff ff6e 	bl	80069b2 <__ssputs_r>
 8006ad6:	3001      	adds	r0, #1
 8006ad8:	f000 80aa 	beq.w	8006c30 <_svfiprintf_r+0x1c8>
 8006adc:	9a09      	ldr	r2, [sp, #36]	; 0x24
 8006ade:	445a      	add	r2, fp
 8006ae0:	9209      	str	r2, [sp, #36]	; 0x24
 8006ae2:	f89a 3000 	ldrb.w	r3, [sl]
 8006ae6:	2b00      	cmp	r3, #0
 8006ae8:	f000 80a2 	beq.w	8006c30 <_svfiprintf_r+0x1c8>
 8006aec:	2300      	movs	r3, #0
 8006aee:	f04f 32ff 	mov.w	r2, #4294967295
 8006af2:	e9cd 2305 	strd	r2, r3, [sp, #20]
 8006af6:	f10a 0a01 	add.w	sl, sl, #1
 8006afa:	9304      	str	r3, [sp, #16]
 8006afc:	9307      	str	r3, [sp, #28]
 8006afe:	f88d 3053 	strb.w	r3, [sp, #83]	; 0x53
 8006b02:	931a      	str	r3, [sp, #104]	; 0x68
 8006b04:	4654      	mov	r4, sl
 8006b06:	2205      	movs	r2, #5
 8006b08:	f814 1b01 	ldrb.w	r1, [r4], #1
 8006b0c:	4851      	ldr	r0, [pc, #324]	; (8006c54 <_svfiprintf_r+0x1ec>)
 8006b0e:	f7ff feed 	bl	80068ec <memchr>
 8006b12:	9a04      	ldr	r2, [sp, #16]
 8006b14:	b9d8      	cbnz	r0, 8006b4e <_svfiprintf_r+0xe6>
 8006b16:	06d0      	lsls	r0, r2, #27
 8006b18:	bf44      	itt	mi
 8006b1a:	2320      	movmi	r3, #32
 8006b1c:	f88d 3053 	strbmi.w	r3, [sp, #83]	; 0x53
 8006b20:	0711      	lsls	r1, r2, #28
 8006b22:	bf44      	itt	mi
 8006b24:	232b      	movmi	r3, #43	; 0x2b
 8006b26:	f88d 3053 	strbmi.w	r3, [sp, #83]	; 0x53
 8006b2a:	f89a 3000 	ldrb.w	r3, [sl]
 8006b2e:	2b2a      	cmp	r3, #42	; 0x2a
 8006b30:	d015      	beq.n	8006b5e <_svfiprintf_r+0xf6>
 8006b32:	4654      	mov	r4, sl
 8006b34:	2000      	movs	r0, #0
 8006b36:	f04f 0c0a 	mov.w	ip, #10
 8006b3a:	9a07      	ldr	r2, [sp, #28]
 8006b3c:	4621      	mov	r1, r4
 8006b3e:	f811 3b01 	ldrb.w	r3, [r1], #1
 8006b42:	3b30      	subs	r3, #48	; 0x30
 8006b44:	2b09      	cmp	r3, #9
 8006b46:	d94e      	bls.n	8006be6 <_svfiprintf_r+0x17e>
 8006b48:	b1b0      	cbz	r0, 8006b78 <_svfiprintf_r+0x110>
 8006b4a:	9207      	str	r2, [sp, #28]
 8006b4c:	e014      	b.n	8006b78 <_svfiprintf_r+0x110>
 8006b4e:	eba0 0308 	sub.w	r3, r0, r8
 8006b52:	fa09 f303 	lsl.w	r3, r9, r3
 8006b56:	4313      	orrs	r3, r2
 8006b58:	46a2      	mov	sl, r4
 8006b5a:	9304      	str	r3, [sp, #16]
 8006b5c:	e7d2      	b.n	8006b04 <_svfiprintf_r+0x9c>
 8006b5e:	9b03      	ldr	r3, [sp, #12]
 8006b60:	1d19      	adds	r1, r3, #4
 8006b62:	681b      	ldr	r3, [r3, #0]
 8006b64:	9103      	str	r1, [sp, #12]
 8006b66:	2b00      	cmp	r3, #0
 8006b68:	bfbb      	ittet	lt
 8006b6a:	425b      	neglt	r3, r3
 8006b6c:	f042 0202 	orrlt.w	r2, r2, #2
 8006b70:	9307      	strge	r3, [sp, #28]
 8006b72:	9307      	strlt	r3, [sp, #28]
 8006b74:	bfb8      	it	lt
 8006b76:	9204      	strlt	r2, [sp, #16]
 8006b78:	7823      	ldrb	r3, [r4, #0]
 8006b7a:	2b2e      	cmp	r3, #46	; 0x2e
 8006b7c:	d10c      	bne.n	8006b98 <_svfiprintf_r+0x130>
 8006b7e:	7863      	ldrb	r3, [r4, #1]
 8006b80:	2b2a      	cmp	r3, #42	; 0x2a
 8006b82:	d135      	bne.n	8006bf0 <_svfiprintf_r+0x188>
 8006b84:	9b03      	ldr	r3, [sp, #12]
 8006b86:	3402      	adds	r4, #2
 8006b88:	1d1a      	adds	r2, r3, #4
 8006b8a:	681b      	ldr	r3, [r3, #0]
 8006b8c:	9203      	str	r2, [sp, #12]
 8006b8e:	2b00      	cmp	r3, #0
 8006b90:	bfb8      	it	lt
 8006b92:	f04f 33ff 	movlt.w	r3, #4294967295
 8006b96:	9305      	str	r3, [sp, #20]
 8006b98:	f8df a0bc 	ldr.w	sl, [pc, #188]	; 8006c58 <_svfiprintf_r+0x1f0>
 8006b9c:	2203      	movs	r2, #3
 8006b9e:	4650      	mov	r0, sl
 8006ba0:	7821      	ldrb	r1, [r4, #0]
 8006ba2:	f7ff fea3 	bl	80068ec <memchr>
 8006ba6:	b140      	cbz	r0, 8006bba <_svfiprintf_r+0x152>
 8006ba8:	2340      	movs	r3, #64	; 0x40
 8006baa:	eba0 000a 	sub.w	r0, r0, sl
 8006bae:	fa03 f000 	lsl.w	r0, r3, r0
 8006bb2:	9b04      	ldr	r3, [sp, #16]
 8006bb4:	3401      	adds	r4, #1
 8006bb6:	4303      	orrs	r3, r0
 8006bb8:	9304      	str	r3, [sp, #16]
 8006bba:	f814 1b01 	ldrb.w	r1, [r4], #1
 8006bbe:	2206      	movs	r2, #6
 8006bc0:	4826      	ldr	r0, [pc, #152]	; (8006c5c <_svfiprintf_r+0x1f4>)
 8006bc2:	f88d 1028 	strb.w	r1, [sp, #40]	; 0x28
 8006bc6:	f7ff fe91 	bl	80068ec <memchr>
 8006bca:	2800      	cmp	r0, #0
 8006bcc:	d038      	beq.n	8006c40 <_svfiprintf_r+0x1d8>
 8006bce:	4b24      	ldr	r3, [pc, #144]	; (8006c60 <_svfiprintf_r+0x1f8>)
 8006bd0:	bb1b      	cbnz	r3, 8006c1a <_svfiprintf_r+0x1b2>
 8006bd2:	9b03      	ldr	r3, [sp, #12]
 8006bd4:	3307      	adds	r3, #7
 8006bd6:	f023 0307 	bic.w	r3, r3, #7
 8006bda:	3308      	adds	r3, #8
 8006bdc:	9303      	str	r3, [sp, #12]
 8006bde:	9b09      	ldr	r3, [sp, #36]	; 0x24
 8006be0:	4433      	add	r3, r6
 8006be2:	9309      	str	r3, [sp, #36]	; 0x24
 8006be4:	e767      	b.n	8006ab6 <_svfiprintf_r+0x4e>
 8006be6:	460c      	mov	r4, r1
 8006be8:	2001      	movs	r0, #1
 8006bea:	fb0c 3202 	mla	r2, ip, r2, r3
 8006bee:	e7a5      	b.n	8006b3c <_svfiprintf_r+0xd4>
 8006bf0:	2300      	movs	r3, #0
 8006bf2:	f04f 0c0a 	mov.w	ip, #10
 8006bf6:	4619      	mov	r1, r3
 8006bf8:	3401      	adds	r4, #1
 8006bfa:	9305      	str	r3, [sp, #20]
 8006bfc:	4620      	mov	r0, r4
 8006bfe:	f810 2b01 	ldrb.w	r2, [r0], #1
 8006c02:	3a30      	subs	r2, #48	; 0x30
 8006c04:	2a09      	cmp	r2, #9
 8006c06:	d903      	bls.n	8006c10 <_svfiprintf_r+0x1a8>
 8006c08:	2b00      	cmp	r3, #0
 8006c0a:	d0c5      	beq.n	8006b98 <_svfiprintf_r+0x130>
 8006c0c:	9105      	str	r1, [sp, #20]
 8006c0e:	e7c3      	b.n	8006b98 <_svfiprintf_r+0x130>
 8006c10:	4604      	mov	r4, r0
 8006c12:	2301      	movs	r3, #1
 8006c14:	fb0c 2101 	mla	r1, ip, r1, r2
 8006c18:	e7f0      	b.n	8006bfc <_svfiprintf_r+0x194>
 8006c1a:	ab03      	add	r3, sp, #12
 8006c1c:	9300      	str	r3, [sp, #0]
 8006c1e:	462a      	mov	r2, r5
 8006c20:	4638      	mov	r0, r7
 8006c22:	4b10      	ldr	r3, [pc, #64]	; (8006c64 <_svfiprintf_r+0x1fc>)
 8006c24:	a904      	add	r1, sp, #16
 8006c26:	f3af 8000 	nop.w
 8006c2a:	1c42      	adds	r2, r0, #1
 8006c2c:	4606      	mov	r6, r0
 8006c2e:	d1d6      	bne.n	8006bde <_svfiprintf_r+0x176>
 8006c30:	89ab      	ldrh	r3, [r5, #12]
 8006c32:	065b      	lsls	r3, r3, #25
 8006c34:	f53f af2c 	bmi.w	8006a90 <_svfiprintf_r+0x28>
 8006c38:	9809      	ldr	r0, [sp, #36]	; 0x24
 8006c3a:	b01d      	add	sp, #116	; 0x74
 8006c3c:	e8bd 8ff0 	ldmia.w	sp!, {r4, r5, r6, r7, r8, r9, sl, fp, pc}
 8006c40:	ab03      	add	r3, sp, #12
 8006c42:	9300      	str	r3, [sp, #0]
 8006c44:	462a      	mov	r2, r5
 8006c46:	4638      	mov	r0, r7
 8006c48:	4b06      	ldr	r3, [pc, #24]	; (8006c64 <_svfiprintf_r+0x1fc>)
 8006c4a:	a904      	add	r1, sp, #16
 8006c4c:	f7ff f9ac 	bl	8005fa8 <_printf_i>
 8006c50:	e7eb      	b.n	8006c2a <_svfiprintf_r+0x1c2>
 8006c52:	bf00      	nop
 8006c54:	080070a8 	.word	0x080070a8
 8006c58:	080070ae 	.word	0x080070ae
 8006c5c:	080070b2 	.word	0x080070b2
 8006c60:	00000000 	.word	0x00000000
 8006c64:	080069b3 	.word	0x080069b3

08006c68 <_read_r>:
 8006c68:	b538      	push	{r3, r4, r5, lr}
 8006c6a:	4604      	mov	r4, r0
 8006c6c:	4608      	mov	r0, r1
 8006c6e:	4611      	mov	r1, r2
 8006c70:	2200      	movs	r2, #0
 8006c72:	4d05      	ldr	r5, [pc, #20]	; (8006c88 <_read_r+0x20>)
 8006c74:	602a      	str	r2, [r5, #0]
 8006c76:	461a      	mov	r2, r3
 8006c78:	f7fa fb80 	bl	800137c <_read>
 8006c7c:	1c43      	adds	r3, r0, #1
 8006c7e:	d102      	bne.n	8006c86 <_read_r+0x1e>
 8006c80:	682b      	ldr	r3, [r5, #0]
 8006c82:	b103      	cbz	r3, 8006c86 <_read_r+0x1e>
 8006c84:	6023      	str	r3, [r4, #0]
 8006c86:	bd38      	pop	{r3, r4, r5, pc}
 8006c88:	200015c4 	.word	0x200015c4

08006c8c <__sread>:
 8006c8c:	b510      	push	{r4, lr}
 8006c8e:	460c      	mov	r4, r1
 8006c90:	f9b1 100e 	ldrsh.w	r1, [r1, #14]
 8006c94:	f7ff ffe8 	bl	8006c68 <_read_r>
 8006c98:	2800      	cmp	r0, #0
 8006c9a:	bfab      	itete	ge
 8006c9c:	6d63      	ldrge	r3, [r4, #84]	; 0x54
 8006c9e:	89a3      	ldrhlt	r3, [r4, #12]
 8006ca0:	181b      	addge	r3, r3, r0
 8006ca2:	f423 5380 	biclt.w	r3, r3, #4096	; 0x1000
 8006ca6:	bfac      	ite	ge
 8006ca8:	6563      	strge	r3, [r4, #84]	; 0x54
 8006caa:	81a3      	strhlt	r3, [r4, #12]
 8006cac:	bd10      	pop	{r4, pc}

08006cae <__swrite>:
 8006cae:	e92d 41f0 	stmdb	sp!, {r4, r5, r6, r7, r8, lr}
 8006cb2:	461f      	mov	r7, r3
 8006cb4:	898b      	ldrh	r3, [r1, #12]
 8006cb6:	4605      	mov	r5, r0
 8006cb8:	05db      	lsls	r3, r3, #23
 8006cba:	460c      	mov	r4, r1
 8006cbc:	4616      	mov	r6, r2
 8006cbe:	d505      	bpl.n	8006ccc <__swrite+0x1e>
 8006cc0:	2302      	movs	r3, #2
 8006cc2:	2200      	movs	r2, #0
 8006cc4:	f9b1 100e 	ldrsh.w	r1, [r1, #14]
 8006cc8:	f000 f856 	bl	8006d78 <_lseek_r>
 8006ccc:	89a3      	ldrh	r3, [r4, #12]
 8006cce:	4632      	mov	r2, r6
 8006cd0:	f423 5380 	bic.w	r3, r3, #4096	; 0x1000
 8006cd4:	81a3      	strh	r3, [r4, #12]
 8006cd6:	4628      	mov	r0, r5
 8006cd8:	463b      	mov	r3, r7
 8006cda:	f9b4 100e 	ldrsh.w	r1, [r4, #14]
 8006cde:	e8bd 41f0 	ldmia.w	sp!, {r4, r5, r6, r7, r8, lr}
 8006ce2:	f7ff bb67 	b.w	80063b4 <_write_r>

08006ce6 <__sseek>:
 8006ce6:	b510      	push	{r4, lr}
 8006ce8:	460c      	mov	r4, r1
 8006cea:	f9b1 100e 	ldrsh.w	r1, [r1, #14]
 8006cee:	f000 f843 	bl	8006d78 <_lseek_r>
 8006cf2:	1c43      	adds	r3, r0, #1
 8006cf4:	89a3      	ldrh	r3, [r4, #12]
 8006cf6:	bf15      	itete	ne
 8006cf8:	6560      	strne	r0, [r4, #84]	; 0x54
 8006cfa:	f423 5380 	biceq.w	r3, r3, #4096	; 0x1000
 8006cfe:	f443 5380 	orrne.w	r3, r3, #4096	; 0x1000
 8006d02:	81a3      	strheq	r3, [r4, #12]
 8006d04:	bf18      	it	ne
 8006d06:	81a3      	strhne	r3, [r4, #12]
 8006d08:	bd10      	pop	{r4, pc}

08006d0a <__sclose>:
 8006d0a:	f9b1 100e 	ldrsh.w	r1, [r1, #14]
 8006d0e:	f000 b801 	b.w	8006d14 <_close_r>
	...

08006d14 <_close_r>:
 8006d14:	b538      	push	{r3, r4, r5, lr}
 8006d16:	2300      	movs	r3, #0
 8006d18:	4d05      	ldr	r5, [pc, #20]	; (8006d30 <_close_r+0x1c>)
 8006d1a:	4604      	mov	r4, r0
 8006d1c:	4608      	mov	r0, r1
 8006d1e:	602b      	str	r3, [r5, #0]
 8006d20:	f7fa fb48 	bl	80013b4 <_close>
 8006d24:	1c43      	adds	r3, r0, #1
 8006d26:	d102      	bne.n	8006d2e <_close_r+0x1a>
 8006d28:	682b      	ldr	r3, [r5, #0]
 8006d2a:	b103      	cbz	r3, 8006d2e <_close_r+0x1a>
 8006d2c:	6023      	str	r3, [r4, #0]
 8006d2e:	bd38      	pop	{r3, r4, r5, pc}
 8006d30:	200015c4 	.word	0x200015c4

08006d34 <_fstat_r>:
 8006d34:	b538      	push	{r3, r4, r5, lr}
 8006d36:	2300      	movs	r3, #0
 8006d38:	4d06      	ldr	r5, [pc, #24]	; (8006d54 <_fstat_r+0x20>)
 8006d3a:	4604      	mov	r4, r0
 8006d3c:	4608      	mov	r0, r1
 8006d3e:	4611      	mov	r1, r2
 8006d40:	602b      	str	r3, [r5, #0]
 8006d42:	f7fa fb3a 	bl	80013ba <_fstat>
 8006d46:	1c43      	adds	r3, r0, #1
 8006d48:	d102      	bne.n	8006d50 <_fstat_r+0x1c>
 8006d4a:	682b      	ldr	r3, [r5, #0]
 8006d4c:	b103      	cbz	r3, 8006d50 <_fstat_r+0x1c>
 8006d4e:	6023      	str	r3, [r4, #0]
 8006d50:	bd38      	pop	{r3, r4, r5, pc}
 8006d52:	bf00      	nop
 8006d54:	200015c4 	.word	0x200015c4

08006d58 <_isatty_r>:
 8006d58:	b538      	push	{r3, r4, r5, lr}
 8006d5a:	2300      	movs	r3, #0
 8006d5c:	4d05      	ldr	r5, [pc, #20]	; (8006d74 <_isatty_r+0x1c>)
 8006d5e:	4604      	mov	r4, r0
 8006d60:	4608      	mov	r0, r1
 8006d62:	602b      	str	r3, [r5, #0]
 8006d64:	f7fa fb2e 	bl	80013c4 <_isatty>
 8006d68:	1c43      	adds	r3, r0, #1
 8006d6a:	d102      	bne.n	8006d72 <_isatty_r+0x1a>
 8006d6c:	682b      	ldr	r3, [r5, #0]
 8006d6e:	b103      	cbz	r3, 8006d72 <_isatty_r+0x1a>
 8006d70:	6023      	str	r3, [r4, #0]
 8006d72:	bd38      	pop	{r3, r4, r5, pc}
 8006d74:	200015c4 	.word	0x200015c4

08006d78 <_lseek_r>:
 8006d78:	b538      	push	{r3, r4, r5, lr}
 8006d7a:	4604      	mov	r4, r0
 8006d7c:	4608      	mov	r0, r1
 8006d7e:	4611      	mov	r1, r2
 8006d80:	2200      	movs	r2, #0
 8006d82:	4d05      	ldr	r5, [pc, #20]	; (8006d98 <_lseek_r+0x20>)
 8006d84:	602a      	str	r2, [r5, #0]
 8006d86:	461a      	mov	r2, r3
 8006d88:	f7fa fb1e 	bl	80013c8 <_lseek>
 8006d8c:	1c43      	adds	r3, r0, #1
 8006d8e:	d102      	bne.n	8006d96 <_lseek_r+0x1e>
 8006d90:	682b      	ldr	r3, [r5, #0]
 8006d92:	b103      	cbz	r3, 8006d96 <_lseek_r+0x1e>
 8006d94:	6023      	str	r3, [r4, #0]
 8006d96:	bd38      	pop	{r3, r4, r5, pc}
 8006d98:	200015c4 	.word	0x200015c4

08006d9c <_malloc_usable_size_r>:
 8006d9c:	f851 3c04 	ldr.w	r3, [r1, #-4]
 8006da0:	1f18      	subs	r0, r3, #4
 8006da2:	2b00      	cmp	r3, #0
 8006da4:	bfbc      	itt	lt
 8006da6:	580b      	ldrlt	r3, [r1, r0]
 8006da8:	18c0      	addlt	r0, r0, r3
 8006daa:	4770      	bx	lr

08006dac <_init>:
 8006dac:	b5f8      	push	{r3, r4, r5, r6, r7, lr}
 8006dae:	bf00      	nop
 8006db0:	bcf8      	pop	{r3, r4, r5, r6, r7}
 8006db2:	bc08      	pop	{r3}
 8006db4:	469e      	mov	lr, r3
 8006db6:	4770      	bx	lr

08006db8 <_fini>:
 8006db8:	b5f8      	push	{r3, r4, r5, r6, r7, lr}
 8006dba:	bf00      	nop
 8006dbc:	bcf8      	pop	{r3, r4, r5, r6, r7}
 8006dbe:	bc08      	pop	{r3}
 8006dc0:	469e      	mov	lr, r3
 8006dc2:	4770      	bx	lr
